 DttSP

 Timestamp is 61a90751 (Thu Dec  2 19:50:09 2021)

 Preferred load address is 10000000

 Start         Length     Name                   Class
 0001:00000000 0006cb6aH .text$mn                CODE
 0001:0006cb6a 000001b0H .text$x                 CODE
 0002:00000000 000001a8H .idata$5                DATA
 0002:000001a8 00000008H .00cfg                  DATA
 0002:000001b0 00000004H .CRT$XCA                DATA
 0002:000001b4 00000004H .CRT$XCZ                DATA
 0002:000001b8 00000004H .CRT$XIA                DATA
 0002:000001bc 00000014H .CRT$XIC                DATA
 0002:000001d0 00000004H .CRT$XIZ                DATA
 0002:000001d4 00000004H .CRT$XPA                DATA
 0002:000001d8 00000008H .CRT$XPX                DATA
 0002:000001e0 00000004H .CRT$XPXA               DATA
 0002:000001e4 00000004H .CRT$XPZ                DATA
 0002:000001e8 00000004H .CRT$XTA                DATA
 0002:000001ec 00000004H .CRT$XTZ                DATA
 0002:000001f0 00000000H .gfids$y                DATA
 0002:000001f0 00010650H .rdata                  DATA
 0002:00010840 00000004H .rdata$CastGuardVftablesA DATA
 0002:00010844 00000004H .rdata$CastGuardVftablesC DATA
 0002:00010848 000002a0H .rdata$r                DATA
 0002:00010ae8 00000050H .rdata$sxdata           DATA
 0002:00010b38 000003bcH .rdata$voltmd           DATA
 0002:00010ef4 00000374H .rdata$zzzdbg           DATA
 0002:00011268 00000004H .rtc$IAA                DATA
 0002:0001126c 00000004H .rtc$IZZ                DATA
 0002:00011270 00000004H .rtc$TAA                DATA
 0002:00011274 00000004H .rtc$TZZ                DATA
 0002:00011278 00000db8H .xdata$x                DATA
 0002:00012030 00001044H .edata                  DATA
 0002:00013074 00000050H .idata$2                DATA
 0002:000130c4 00000014H .idata$3                DATA
 0002:000130d8 000001a8H .idata$4                DATA
 0002:00013280 000007c8H .idata$6                DATA
 0003:00000000 000011d0H .data                   DATA
 0003:000011d0 00000058H .data$r                 DATA
 0003:00001228 000000b8H .data$rs                DATA
 0003:000012e0 0003eda8H .bss                    DATA
 0004:00000000 000000a0H .rsrc$01                DATA
 0004:000000a0 00000498H .rsrc$02                DATA

  Address         Publics by Value              Rva+Base       Lib:Object

 0000:00000000       ___guard_eh_cont_table     00000000     <absolute>
 0000:00000000       ___arm64x_redirection_metadata 00000000     <absolute>
 0000:00000000       ___arm64x_extra_rfe_table  00000000     <absolute>
 0000:00000000       __except_list              00000000     <absolute>
 0000:00000000       ___guard_longjmp_table     00000000     <absolute>
 0000:00000000       ___hybrid_code_map_count   00000000     <absolute>
 0000:00000000       ___hybrid_code_map         00000000     <absolute>
 0000:00000000       ___guard_iat_count         00000000     <absolute>
 0000:00000000       ___guard_longjmp_count     00000000     <absolute>
 0000:00000000       ___hybrid_auxiliary_iat    00000000     <absolute>
 0000:00000000       ___arm64x_extra_rfe_table_size 00000000     <absolute>
 0000:00000000       ___x64_code_ranges_to_entry_points 00000000     <absolute>
 0000:00000000       ___x64_code_ranges_to_entry_points_count 00000000     <absolute>
 0000:00000000       ___AbsoluteZero            00000000     <absolute>
 0000:00000000       ___guard_fids_table        00000000     <absolute>
 0000:00000000       ___arm64x_redirection_metadata_count 00000000     <absolute>
 0000:00000000       ___guard_fids_count        00000000     <absolute>
 0000:00000000       ___arm64x_native_entrypoint 00000000     <absolute>
 0000:00000000       ___guard_iat_table         00000000     <absolute>
 0000:00000000       ___guard_check_icall_a64n_fptr 00000000     <absolute>
 0000:00000000       ___hybrid_auxiliary_iat_copy 00000000     <absolute>
 0000:00000000       ___guard_eh_cont_count     00000000     <absolute>
 0000:00000000       ___dynamic_value_reloc_table 00000000     <absolute>
 0000:00000000       ___enclave_config          00000000     <absolute>
 0000:00000014       ___safe_se_handler_count   00000014     <absolute>
 0000:00000100       ___guard_flags             00000100     <absolute>
 0000:00000000       ___ImageBase               10000000     <linker-defined>
 0001:00000000       _AMDemod                   10001000 f   am_demod.obj
 0001:000002c0       _newAMD                    100012c0 f   am_demod.obj
 0001:000003b0       _delAMD                    100013b0 f   am_demod.obj
 0001:000003e0       _nilfunc                   100013e0 f   banal.obj
 0001:000003f0       _popcnt                    100013f0 f   banal.obj
 0001:00000460       _npoof2                    10001460 f   banal.obj
 0001:00000480       _nblock2                   10001480 f   banal.obj
 0001:000004a0       _in_blocks                 100014a0 f   banal.obj
 0001:000004e0       _efopen                    100014e0 f   banal.obj
 0001:00000520       _efreopen                  10001520 f   banal.obj
 0001:00000560       _filesize                  10001560 f   banal.obj
 0001:000005a0       _fdsize                    100015a0 f   banal.obj
 0001:000005e0       _now_tv                    100015e0 f   banal.obj
 0001:00000630       _diff_tv                   10001630 f   banal.obj
 0001:00000670       _sum_tv                    10001670 f   banal.obj
 0001:000006a0       _fmt_tv                    100016a0 f   banal.obj
 0001:000006d0       _since                     100016d0 f   banal.obj
 0001:00000770       _hinterp_vec               10001770 f   banal.obj
 0001:00000810       _status_message            10001810 f   banal.obj
 0001:00000840       _find_rcfile               10001840 f   banal.obj
 0001:000008f0       _hash                      100018f0 f   banal.obj
 0001:00000920       _gcd                       10001920 f   banal.obj
 0001:00000940       _least_common_mul          10001940 f   banal.obj
 0001:000009b0       ___local_stdio_printf_options 100019b0 f i banal.obj
 0001:000009c0       __snprintf                 100019c0 f i banal.obj
 0001:00000a00       _fprintf                   10001a00 f i banal.obj
 0001:00000a30       _sprintf                   10001a30 f i banal.obj
 0001:00000a70       _sqr                       10001a70 f i banal.obj
 0001:00000a80       _safealloc                 10001a80 f   bufvec.obj
 0001:00000ae0       _safefree                  10001ae0 f   bufvec.obj
 0001:00000b00       _safememcurrcount          10001b00 f   bufvec.obj
 0001:00000b10       _safememreset              10001b10 f   bufvec.obj
 0001:00000b20       _newvec_REAL               10001b20 f   bufvec.obj
 0001:00000b90       _newvec_REAL_16            10001b90 f   bufvec.obj
 0001:00000c00       _delvec_REAL               10001c00 f   bufvec.obj
 0001:00000c20       _newvec_IMAG               10001c20 f   bufvec.obj
 0001:00000c90       _delvec_IMAG               10001c90 f   bufvec.obj
 0001:00000cb0       _newvec_COMPLEX            10001cb0 f   bufvec.obj
 0001:00000d20       _delvec_COMPLEX            10001d20 f   bufvec.obj
 0001:00000d40       _newvec_COMPLEX_16         10001d40 f   bufvec.obj
 0001:00000dc0       _delvec_COMPLEX_16         10001dc0 f   bufvec.obj
 0001:00000dd0       _dump_REAL                 10001dd0 f   bufvec.obj
 0001:00000e40       _dump_IMAG                 10001e40 f   bufvec.obj
 0001:00000eb0       _dump_CX                   10001eb0 f   bufvec.obj
 0001:00000f30       _newCXB                    10001f30 f   bufvec.obj
 0001:00001010       _delCXB                    10002010 f   bufvec.obj
 0001:00001040       _newRLB                    10002040 f   bufvec.obj
 0001:00001120       _delRLB                    10002120 f   bufvec.obj
 0001:00001150       _normalize_vec_REAL        10002150 f   bufvec.obj
 0001:00001280       _normalize_vec_COMPLEX     10002280 f   bufvec.obj
 0001:000013d0       _safealloc16               100023d0 f   bufvec.obj
 0001:00001440       _newCorrectIQ              10002440 f   correctIQ.obj
 0001:000014e0       _delCorrectIQ              100024e0 f   correctIQ.obj
 0001:00001510       _correctIQ                 10002510 f   correctIQ.obj
 0001:00001700       _newCWToneGen              10002700 f   cwtones.obj
 0001:000017a0       _delCWToneGen              100027a0 f   cwtones.obj
 0001:000017d0       _setCWToneGenVals          100027d0 f   cwtones.obj
 0001:00001800       _CWToneOn                  10002800 f   cwtones.obj
 0001:00001910       _CWToneOff                 10002910 f   cwtones.obj
 0001:00001920       _CWTone                    10002920 f   cwtones.obj
 0001:00001b60       _CWComplexOSC              10002b60 f   cwtones.obj
 0001:00001c50       _DCBlock                   10002c50 f   dcblock.obj
 0001:00002230       _resetDCBlocker            10003230 f   dcblock.obj
 0001:00002260       _newDCBlocker              10003260 f   dcblock.obj
 0001:000022c0       _delDCBlocker              100032c0 f   dcblock.obj
 0001:000022e0       _DttSPAgc                  100032e0 f   dttspagc.obj
 0001:00002600       _newDttSPAgc               10003600 f   dttspagc.obj
 0001:00002860       _delDttSPAgc               10003860 f   dttspagc.obj
 0001:00002890       _DttSPAgc_flushbuf         10003890 f   dttspagc.obj
 0001:000028c0       _new_IIR_LPF_2P            100038c0 f   filt2p2z.obj
 0001:00002930       _del_IIR_LPF_2P            10003930 f   filt2p2z.obj
 0001:00002950       _do_IIR_LPF_2P             10003950 f   filt2p2z.obj
 0001:000029e0       _new_IIR_BPF_2P            100039e0 f   filt2p2z.obj
 0001:00002a60       _del_IIR_BPF_2P            10003a60 f   filt2p2z.obj
 0001:00002a80       _do_IIR_BPF_2P             10003a80 f   filt2p2z.obj
 0001:00002b30       _new_IIR_HPF_2P            10003b30 f   filt2p2z.obj
 0001:00002bc0       _del_IIR_HPF_2P            10003bc0 f   filt2p2z.obj
 0001:00002be0       _do_IIR_HPF_2P             10003be0 f   filt2p2z.obj
 0001:00002cb0       _new_IIR_2P2Z              10003cb0 f   filt2p2z.obj
 0001:000030c0       _del_IIR_2P2Z              100040c0 f   filt2p2z.obj
 0001:000030e0       _do_IIR_2P2Z               100040e0 f   filt2p2z.obj
 0001:000031f0       _new_IIR_1P1Z              100041f0 f   filt2p2z.obj
 0001:000032c0       _del_IIR_1P1Z              100042c0 f   filt2p2z.obj
 0001:000032e0       _do_IIR_1P1Z               100042e0 f   filt2p2z.obj
 0001:00003340       _newFIR_REAL               10004340 f   filter.obj
 0001:00003390       _newFIR_COMPLEX            10004390 f   filter.obj
 0001:000033e0       _delFIR_REAL               100043e0 f   filter.obj
 0001:00003400       _delFIR_COMPLEX            10004400 f   filter.obj
 0001:00003420       _newFIR_Lowpass_REAL       10004420 f   filter.obj
 0001:00003570       _newFIR_Lowpass_COMPLEX    10004570 f   filter.obj
 0001:000036c0       _newFIR_Bandpass_REAL      100046c0 f   filter.obj
 0001:00003890       _newFIR_Bandpass_COMPLEX   10004890 f   filter.obj
 0001:00003a90       _newFIR_Highpass_REAL      10004a90 f   filter.obj
 0001:00003cc0       _newFIR_Highpass_COMPLEX   10004cc0 f   filter.obj
 0001:00003e60       _newFIR_Hilbert_REAL       10004e60 f   filter.obj
 0001:00004040       _newFIR_Hilbert_COMPLEX    10005040 f   filter.obj
 0001:00004210       _newFIR_Bandstop_REAL      10005210 f   filter.obj
 0001:000044e0       _newFIR_Bandstop_COMPLEX   100054e0 f   filter.obj
 0001:00004760       _newFIRPFBChannelizer      10005760 f   filterbank.obj
 0001:000048d0       _newFIRHBPFBChannelizer    100058d0 f   filterbank.obj
 0001:00004a20       _delFIRDownsampler         10005a20 f   filterbank.obj
 0001:00004a70       _doFIRPFBChannelizer       10005a70 f   filterbank.obj
 0001:00004b70       _newFIRPDownsampler        10005b70 f   filterbank.obj
 0001:00004d60       _newFIRPUpsampler          10005d60 f   filterbank.obj
 0001:00004f50       _delFIRPB                  10005f50 f   filterbank.obj
 0001:00004fb0       _doFIRPFBUpsampler         10005fb0 f   filterbank.obj
 0001:000050b0       _doFIRPFBdownsampler       100060b0 f   filterbank.obj
 0001:000051d0       _delFIRUpsample            100061d0 f   filterbank.obj
 0001:00005220       _FMDemod                   10006220 f   fm_demod.obj
 0001:00005660       _newFMD                    10006660 f   fm_demod.obj
 0001:000059d0       _delFMD                    100069d0 f   fm_demod.obj
 0001:00005a50       _new_EQ                    10006a50 f   graphiceq.obj
 0001:00005c10       _graphiceq                 10006c10 f   graphiceq.obj
 0001:00005f60       _delEQ                     10006f60 f   graphiceq.obj
 0001:00005f90       _newHilbert                10006f90 f   hilbert.obj
 0001:00006290       _newHilbertsim             10007290 f   hilbert.obj
 0001:000062f0       _delHilbert                100072f0 f   hilbert.obj
 0001:00006330       _delHilsim                 10007330 f   hilbert.obj
 0001:00006360       _hilbert_transform         10007360 f   hilbert.obj
 0001:00006580       _hilsim_transform          10007580 f   hilbert.obj
 0001:000066a0       _ISOband_get_nominal       100076a0 f   isoband.obj
 0001:000066e0       _ISOband_get_exact         100076e0 f   isoband.obj
 0001:00006720       _ISOband_get_low           10007720 f   isoband.obj
 0001:00006760       _ISOband_get_high          10007760 f   isoband.obj
 0001:000067a0       _CWtoneExchange            100077a0 f   keyd.obj
 0001:00006940       _send_tone                 10007940 f   keyd.obj
 0001:00006a10       _send_silence              10007a10 f   keyd.obj
 0001:00006aa0       _timer_callback@20         10007aa0 f   keyd.obj
 0001:00006ab0       _sound_thread_keyd         10007ab0 f   keyd.obj
 0001:00006c70       _read_key                  10007c70 f   keyd.obj
 0001:00006d20       _SetWhichKey               10007d20 f   keyd.obj
 0001:00006d30       _key_thread_process        10007d30 f   keyd.obj
 0001:00006eb0       _KeyerPlaying              10007eb0 f   keyd.obj
 0001:00006f00       _SetKeyerBug               10007f00 f   keyd.obj
 0001:00006f70       _SetKeyerSpeed             10007f70 f   keyd.obj
 0001:00006fb0       _SetKeyerWeight            10007fb0 f   keyd.obj
 0001:00006fe0       _SetKeyerIambic            10007fe0 f   keyd.obj
 0001:00007050       _SetKeyerAutoSpace         10008050 f   keyd.obj
 0001:00007080       _SetKeyerModeBStrict       10008080 f   keyd.obj
 0001:000070b0       _SetKeyerFreq              100080b0 f   keyd.obj
 0001:00007120       _SetKeyerHarmonicRemove    10008120 f   keyd.obj
 0001:00007170       _SetKeyerGain              10008170 f   keyd.obj
 0001:00007210       _SetKeyerRamp              10008210 f   keyd.obj
 0001:00007280       _SetKeyerMode              10008280 f   keyd.obj
 0001:000072f0       _SetKeyerDeBounce          100082f0 f   keyd.obj
 0001:00007320       _SetKeyerRevPdl            10008320 f   keyd.obj
 0001:00007350       _NewKeyer                  10008350 f   keyd.obj
 0001:00007510       _NewCriticalSection        10008510 f   keyd.obj
 0001:00007530       _DestroyCriticalSection    10008530 f   keyd.obj
 0001:00007540       _CWRingRestart             10008540 f   keyd.obj
 0001:00007550       _StartKeyer                10008550 f   keyd.obj
 0001:000075b0       _StopKeyer                 100085b0 f   keyd.obj
 0001:000075f0       _KeyerRunning              100085f0 f   keyd.obj
 0001:00007600       _DeleteKeyer               10008600 f   keyd.obj
 0001:000076f0       _KeyerClockFireWait        100086f0 f   keyd.obj
 0001:00007700       _KeyerClockFireRelease     10008700 f   keyd.obj
 0001:00007710       _KeyerStartedWait          10008710 f   keyd.obj
 0001:00007720       _KeyerStartedRelease       10008720 f   keyd.obj
 0001:00007730       _PollTimerWait             10008730 f   keyd.obj
 0001:00007740       _PollTimerRelease          10008740 f   keyd.obj
 0001:00007750       _SetKeyerResetSize         10008750 f   keyd.obj
 0001:00007770       _SetKeyerSampleRate        10008770 f   keyd.obj
 0001:00007800       _newKeyerState             10008800 f   keyer.obj
 0001:00007820       _delKeyerState             10008820 f   keyer.obj
 0001:00007830       _newKeyerLogic             10008830 f   keyer.obj
 0001:00007850       _delKeyerLogic             10008850 f   keyer.obj
 0001:00007860       _klogic                    10008860 f   keyer.obj
 0001:00008150       _read_straight_key         10009150 f   keyerio.obj
 0001:00008280       _read_iambic_key           10009280 f   keyerio.obj
 0001:000083d0       _new_lmsr                  100093d0 f   lmadf.obj
 0001:00008470       _del_lmsr                  10009470 f   lmadf.obj
 0001:000084a0       _lmsr_adapt                100094a0 f   lmadf.obj
 0001:000086a0       _new_blms                  100096a0 f   lmadf.obj
 0001:00008800       _blms_adapt                10009800 f   lmadf.obj
 0001:00008cc0       _del_blms                  10009cc0 f   lmadf.obj
 0001:00008d50       _dump_filter               10009d50 f   lmadf.obj
 0001:00008dc0       _dump_delay                10009dc0 f   lmadf.obj
 0001:00008e30       _malloc16Align             10009e30 f   malloc16.obj
 0001:00008e60       _calloc16Align             10009e60 f   malloc16.obj
 0001:00008ea0       _free16Align               10009ea0 f   malloc16.obj
 0001:00008ec0       _new_noiseblanker          10009ec0 f   noiseblanker.obj
 0001:00008f30       _del_nb                    10009f30 f   noiseblanker.obj
 0001:00008f50       _noiseblanker              10009f50 f   noiseblanker.obj
 0001:00009480       _SDROMnoiseblanker         1000a480 f   noiseblanker.obj
 0001:000095a0       _ComplexOSC                1000a5a0 f   oscillator.obj
 0001:00009630       _RealOSC                   1000a630 f   oscillator.obj
 0001:000096a0       _newOSC                    1000a6a0 f   oscillator.obj
 0001:00009720       _delOSC                    1000a720 f   oscillator.obj
 0001:00009760       _newFiltOvSv               1000a760 f   ovsv.obj
 0001:000098b0       _delFiltOvSv               1000a8b0 f   ovsv.obj
 0001:00009900       _FiltOvSv_initpoint        1000a900 f   ovsv.obj
 0001:00009910       _FiltOvSv_initsize         1000a910 f   ovsv.obj
 0001:00009920       _FiltOvSv_fetchpoint       1000a920 f   ovsv.obj
 0001:00009930       _FiltOvSv_fetchsize        1000a930 f   ovsv.obj
 0001:00009940       _FiltOvSv_storepoint       1000a940 f   ovsv.obj
 0001:00009950       _FiltOvSv_storesize        1000a950 f   ovsv.obj
 0001:00009960       _filter_OvSv               1000a960 f   ovsv.obj
 0001:00009b30       _reset_OvSv                1000ab30 f   ovsv.obj
 0001:00009b60       _newPolyPhaseFIR           1000ab60 f   resample.obj
 0001:00009c10       _PolyPhaseFIR              1000ac10 f   resample.obj
 0001:00009d50       _delPolyPhaseFIR           1000ad50 f   resample.obj
 0001:00009d80       _newPolyPhaseFIRF          1000ad80 f   resampleF.obj
 0001:00009e10       _PolyPhaseFIRF             1000ae10 f   resampleF.obj
 0001:00009f00       _delPolyPhaseFIRF          1000af00 f   resampleF.obj
 0001:00009f30       _ringb_create_usemem       1000af30 f   ringb.obj
 0001:00009f60       _ringb_create              1000af60 f   ringb.obj
 0001:00009fb0       _ringb_float_create        1000afb0 f   ringb.obj
 0001:0000a000       _ringb_free                1000b000 f   ringb.obj
 0001:0000a020       _ringb_float_free          1000b020 f   ringb.obj
 0001:0000a040       _ringb_get_read_vector     1000b040 f   ringb.obj
 0001:0000a0d0       _ringb_get_write_vector    1000b0d0 f   ringb.obj
 0001:0000a180       _ringb_read                1000b180 f   ringb.obj
 0001:0000a250       _ringb_float_read          1000b250 f   ringb.obj
 0001:0000a330       _ringb_peek                1000b330 f   ringb.obj
 0001:0000a400       _ringb_read_advance        1000b400 f   ringb.obj
 0001:0000a420       _ringb_float_read_advance  1000b420 f   ringb.obj
 0001:0000a440       _ringb_read_space          1000b440 f   ringb.obj
 0001:0000a470       _ringb_float_read_space    1000b470 f   ringb.obj
 0001:0000a4a0       _ringb_reset               1000b4a0 f   ringb.obj
 0001:0000a4c0       _ringb_float_reset         1000b4c0 f   ringb.obj
 0001:0000a4e0       _ringb_write               1000b4e0 f   ringb.obj
 0001:0000a5c0       _ringb_float_write         1000b5c0 f   ringb.obj
 0001:0000a6b0       _ringb_write_advance       1000b6b0 f   ringb.obj
 0001:0000a6d0       _ringb_float_write_advance 1000b6d0 f   ringb.obj
 0001:0000a6f0       _ringb_write_space         1000b6f0 f   ringb.obj
 0001:0000a720       _ringb_float_write_space   1000b720 f   ringb.obj
 0001:0000a750       _ringb_clear               1000b750 f   ringb.obj
 0001:0000a850       _ringb_float_clear         1000b850 f   ringb.obj
 0001:0000a960       _ringb_restart             1000b960 f   ringb.obj
 0001:0000aa60       _ringb_float_restart       1000ba60 f   ringb.obj
 0001:0000ab80       _reset_meters              1000bb80 f   sdr.obj
 0001:0000ac30       _reset_spectrum            1000bc30 f   sdr.obj
 0001:0000ac60       _reset_counters            1000bc60 f   sdr.obj
 0001:0000acb0       _setup_workspace           1000bcb0 f   sdr.obj
 0001:0000ad40       _destroy_workspace         1000bd40 f   sdr.obj
 0001:0000af80       _dump_buf                  1000bf80 f   sdr.obj
 0001:0000b0f0       _process_samples           1000c0f0 f   sdr.obj
 0001:0000ec90       _init_spectrum             1000fc90 f   spectrum.obj
 0001:0000ed80       _reinit_spectrum           1000fd80 f   spectrum.obj
 0001:0000ede0       _snap_spectrum             1000fde0 f   spectrum.obj
 0001:0000f140       _snap_scope                10010140 f   spectrum.obj
 0001:0000f1a0       _compute_spectrum          100101a0 f   spectrum.obj
 0001:0000f400       _compute_complex_spectrum  10010400 f   spectrum.obj
 0001:0000f480       _finish_spectrum           10010480 f   spectrum.obj
 0001:0000f4f0       _newSpeechProc             100104f0 f   speechproc.obj
 0001:0000f5b0       _delSpeechProc             100105b0 f   speechproc.obj
 0001:0000f5e0       _SpeechProcessor           100105e0 f   speechproc.obj
 0001:0000f860       _F                         10010860 f   splitfields.obj
 0001:0000f870       _Fptr                      10010870 f   splitfields.obj
 0001:0000f880       _NF                        10010880 f   splitfields.obj
 0001:0000f890       _splitonto                 10010890 f   splitfields.obj
 0001:0000f8e0       _spliton                   100108e0 f   splitfields.obj
 0001:0000f940       _split                     10010940 f   splitfields.obj
 0001:0000f9a0       _newSPLIT                  100109a0 f   splitfields.obj
 0001:0000f9c0       _delSPLIT                  100109c0 f   splitfields.obj
 0001:0000f9e0       _newSpotToneGen            100109e0 f   spottone.obj
 0001:0000fa80       _delSpotToneGen            10010a80 f   spottone.obj
 0001:0000fab0       _setSpotToneGenVals        10010ab0 f   spottone.obj
 0001:0000fae0       _SpotToneOn                10010ae0 f   spottone.obj
 0001:0000fc00       _SpotToneOff               10010c00 f   spottone.obj
 0001:0000fc10       _SpotTone                  10010c10 f   spottone.obj
 0001:0000fd60       _Setup_SDR                 10010d60 f   update.obj
 0001:0000fd70       _Destroy_SDR               10010d70 f   update.obj
 0001:0000fd80       _SetThreadNo               10010d80 f   update.obj
 0001:0000fde0       _SetThreadCom              10010de0 f   update.obj
 0001:0000fe30       _SetSwchFlag               10010e30 f   update.obj
 0001:0000fe60       _SetSwchRiseThresh         10010e60 f   update.obj
 0001:0000fea0       _SetThreadProcessingMode   10010ea0 f   update.obj
 0001:0000ff50       _SetMode                   10010f50 f   update.obj
 0001:00010020       _AudioReset                10011020 f   update.obj
 0001:00010030       _SetRXManualNotchEnable    10011030 f   update.obj
 0001:00010080       _SetRXManualNotchBW        10011080 f   update.obj
 0001:000100d0       _SetRXManualNotchFreq      100110d0 f   update.obj
 0001:00010220       _SetRXDCBlock              10011220 f   update.obj
 0001:00010270       _SetRXDCBlockGain          10011270 f   update.obj
 0001:000102c0       _SetTXDCBlock              100112c0 f   update.obj
 0001:00010300       _SetTXFMDeviation          10011300 f   update.obj
 0001:00010390       _SetTXFMDataMode           10011390 f   update.obj
 0001:000103d0       _SetHiResPan               100113d0 f   update.obj
 0001:00010410       _SetRXFMDeviation          10011410 f   update.obj
 0001:000104c0       _SetCTCSSFreq              100114c0 f   update.obj
 0001:00010530       _SetCTCSSFlag              10011530 f   update.obj
 0001:00010570       _SetFMSquelchThreshold     10011570 f   update.obj
 0001:000105e0       _SetTXFilter               100115e0 f   update.obj
 0001:000107b0       _SetRXFilter               100117b0 f   update.obj
 0001:00010980       _Release_Update            10011980 f   update.obj
 0001:000109b0       _SetRXOutputGain           100119b0 f   update.obj
 0001:00010a00       _SetOscPhase               10011a00 f   update.obj
 0001:00010a90       _SetRXOsc                  10011a90 f   update.obj
 0001:00010b30       _SetTXOsc                  10011b30 f   update.obj
 0001:00010bd0       _SetSampleRate             10011bd0 f   update.obj
 0001:00010c80       _SetNR                     10011c80 f   update.obj
 0001:00010ce0       _SetNRvals                 10011ce0 f   update.obj
 0001:00010d80       _SetTXCompandSt            10011d80 f   update.obj
 0001:00010dc0       _SetTXCompand              10011dc0 f   update.obj
 0001:00010e10       _SetTXSquelchSt            10011e10 f   update.obj
 0001:00010e50       _SetTXSquelchVal           10011e50 f   update.obj
 0001:00010e90       _SetTXSquelchAtt           10011e90 f   update.obj
 0001:00010ed0       _SetANF                    10011ed0 f   update.obj
 0001:00010f30       _SetANFvals                10011f30 f   update.obj
 0001:00010fd0       _SetNB                     10011fd0 f   update.obj
 0001:00011010       _SetNBvals                 10012010 f   update.obj
 0001:00011080       _SetSDROM                  10012080 f   update.obj
 0001:000110c0       _SetSDROMvals              100120c0 f   update.obj
 0001:00011110       _SetBIN                    10012110 f   update.obj
 0001:00011150       _SetRXAGC                  10012150 f   update.obj
 0001:00011440       _SetRXAGCAttack            10012440 f   update.obj
 0001:00011560       _SetRXAGCDecay             10012560 f   update.obj
 0001:00011610       _SetRXAGCHang              10012610 f   update.obj
 0001:00011670       _SetRXAGCSlope             10012670 f   update.obj
 0001:000116e0       _SetRXAGCHangThreshold     100126e0 f   update.obj
 0001:00011740       _SetTXALCAttack            10012740 f   update.obj
 0001:00011860       _SetTXAMCarrierLevel       10012860 f   update.obj
 0001:000118a0       _SetTXALCDecay             100128a0 f   update.obj
 0001:00011950       _SetTXALCBot               10012950 f   update.obj
 0001:000119b0       _SetTXALCHang              100129b0 f   update.obj
 0001:00011a10       _SetTXLevelerSt            10012a10 f   update.obj
 0001:00011a50       _SetTXLevelerAttack        10012a50 f   update.obj
 0001:00011b70       _SetTXLevelerDecay         10012b70 f   update.obj
 0001:00011c20       _SetTXLevelerHang          10012c20 f   update.obj
 0001:00011c70       _SetTXLevelerTop           10012c70 f   update.obj
 0001:00011ce0       _SetFixedAGC               10012ce0 f   update.obj
 0001:00011d50       _SetRXAGCTop               10012d50 f   update.obj
 0001:00011dd0       _GetSAMPLLvals             10012dd0 f   update.obj
 0001:00011e30       _SetSAMPLLvals             10012e30 f   update.obj
 0001:00011e90       _GetSAMFreq                10012e90 f   update.obj
 0001:00011ee0       _GetFMSquelchBreak         10012ee0 f   update.obj
 0001:00011f30       _SetCorrectIQ              10012f30 f   update.obj
 0001:00011fb0       _SetCorrectIQGain          10012fb0 f   update.obj
 0001:00012010       _SetCorrectIQPhase         10013010 f   update.obj
 0001:00012060       _SetCorrectIQEnable        10013060 f   update.obj
 0001:00012090       _SetCorrectRXIQMu          10013090 f   update.obj
 0001:000120e0       _SetCorrectWBIRState       100130e0 f   update.obj
 0001:00012120       _GetCorrectRXIQMu          10013120 f   update.obj
 0001:00012140       _SetCorrectRXIQw           10013140 f   update.obj
 0001:000121c0       _GetCorrectRXIQw           100131c0 f   update.obj
 0001:00012220       _SetCorrectRXIQwReal       10013220 f   update.obj
 0001:00012270       _SetCorrectRXIQwImag       10013270 f   update.obj
 0001:000122c0       _SetCorrectTXIQ            100132c0 f   update.obj
 0001:00012330       _SetCorrectTXIQGain        10013330 f   update.obj
 0001:00012390       _SetCorrectTXIQPhase       10013390 f   update.obj
 0001:000123e0       _SetCorrectTXIQMu          100133e0 f   update.obj
 0001:00012430       _SetCorrectTXIQW           10013430 f   update.obj
 0001:00012490       _SetPWSmode                10013490 f   update.obj
 0001:00012570       _SetWindow                 10013570 f   update.obj
 0001:000125d0       _SetSpectrumPolyphase      100135d0 f   update.obj
 0001:00012760       _SetGrphTXEQ               10013760 f   update.obj
 0001:00012e30       _SetGrphTXEQ10             10013e30 f   update.obj
 0001:00013210       _SetGrphTXEQ28             10014210 f   update.obj
 0001:000135b0       _SetGrphTXEQ37             100145b0 f   update.obj
 0001:00013b00       _SetGrphTXPEQ              10014b00 f   update.obj
 0001:00013eb0       _SetGrphTXEQcmd            10014eb0 f   update.obj
 0001:00013ef0       _SetNotch160               10014ef0 f   update.obj
 0001:00013f00       _SetGrphRXEQ               10014f00 f   update.obj
 0001:000145d0       _SetGrphRXEQ10             100155d0 f   update.obj
 0001:000149b0       _SetGrphRXEQcmd            100159b0 f   update.obj
 0001:000149f0       _SetTXAGCFF                100159f0 f   update.obj
 0001:00014a30       _SetTXAGCFFCompression     10015a30 f   update.obj
 0001:00014ad0       _SetSquelchVal             10015ad0 f   update.obj
 0001:00014b20       _SetSquelchState           10015b20 f   update.obj
 0001:00014b60       _SetTRX                    10015b60 f   update.obj
 0001:00014ba0       _FlushAllBufs              10015ba0 f   update.obj
 0001:00014cc0       _SetDSPBuflen              10015cc0 f   update.obj
 0001:00014d10       _SetAudioSize              10015d10 f   update.obj
 0001:00014dd0       _SetTXAGCCompression       10015dd0 f   update.obj
 0001:00014de0       _Process_ComplexSpectrum   10015de0 f   update.obj
 0001:00014e40       _Process_Spectrum          10015e40 f   update.obj
 0001:00014ea0       _Process_Panadapter        10015ea0 f   update.obj
 0001:00014f20       _Process_Phase             10015f20 f   update.obj
 0001:00014fc0       _Process_Scope             10015fc0 f   update.obj
 0001:000150a0       _SetRingBufferOffset       100160a0 f   update.obj
 0001:000150e0       _CalculateRXMeter          100160e0 f   update.obj
 0001:000151d0       _CalculateTXMeter          100161d0 f   update.obj
 0001:00015350       _NewResampler              10016350 f   update.obj
 0001:00015380       _DoResampler               10016380 f   update.obj
 0001:000153b0       _DelPolyPhaseFIR           100163b0 f   update.obj
 0001:000153c0       _NewResamplerF             100163c0 f   update.obj
 0001:000153f0       _DoResamplerF              100163f0 f   update.obj
 0001:00015420       _DelPolyPhaseFIRF          10016420 f   update.obj
 0001:00015430       _SetSubRXSt                10016430 f   update.obj
 0001:00015510       _SetRXPan                  10016510 f   update.obj
 0001:00015600       _SetDiversity              10016600 f   update.obj
 0001:00015650       _SetDiversityScalar        10016650 f   update.obj
 0001:00015690       _SetDiversityGain          10016690 f   update.obj
 0001:000156c0       _makewindow                100166c0 f   window.obj
 0001:00015e70       _Audio_Callback            10016e70 f   winmain.obj
 0001:00016040       _Audio_Callback2           10017040 f   winmain.obj
 0001:000163e0       _process_samples_thread    100173e0 f   winmain.obj
 0001:000165f0       _closeup                   100175f0 f   winmain.obj
 0001:00016690       _setup                     10017690 f   winmain.obj
 0001:00016a90       _reset_for_buflen          10017a90 f   winmain.obj
 0001:00016b60       _reset_for_samplerate      10017b60 f   winmain.obj
 0001:000171a0       _WSCompand                 100181a0 f   wscompand.obj
 0001:000172b0       _WSCReset                  100182b0 f   wscompand.obj
 0001:00017380       _newWSCompander            10018380 f   wscompand.obj
 0001:000174a0       _delWSCompander            100184a0 f   wscompand.obj
 0001:000174d0       _InitSPEEDTRIG             100184d0 f   fastrig1.obj
 0001:00017540       _fast_sin                  10018540 f   fastrig1.obj
 0001:000175c0       _fast_cos                  100185c0 f   fastrig1.obj
 0001:00017640       _fast_atan2                10018640 f   fastrig1.obj
 0001:000177a0       _phasemod                  100187a0 f   fastrig1.obj
 0001:000177f3       _timeSetEvent@20           100187f3 f   winMM:WINMM.dll
 0001:000177f9       _timeKillEvent@4           100187f9 f   winMM:WINMM.dll
 0001:000177ff       _fftwf_execute             100187ff f   libfftw3f-3:libfftw3f-3.dll
 0001:00017805       _fftwf_plan_dft_1d         10018805 f   libfftw3f-3:libfftw3f-3.dll
 0001:0001780b       _fftwf_destroy_plan        1001880b f   libfftw3f-3:libfftw3f-3.dll
 0001:00017811       _fftwf_import_wisdom_from_string 10018811 f   libfftw3f-3:libfftw3f-3.dll
 0001:00017817       _sem_init                  10018817 f   pthreadVC:pthreadVC.dll
 0001:0001781d       _sem_destroy               1001881d f   pthreadVC:pthreadVC.dll
 0001:00017823       _sem_wait                  10018823 f   pthreadVC:pthreadVC.dll
 0001:00017829       _sem_post                  10018829 f   pthreadVC:pthreadVC.dll
 0001:0001782f       @__security_check_cookie@4 1001882f f   LIBCMT:secchk.obj
 0001:00017840       __alldiv                   10018840 f   LIBCMT:lldiv.obj
 0001:000178f0       __ftol2_sse_excpt          100188f0 f   LIBCMT:ftol2.obj
 0001:00017900       __ftol2_sse                10018900 f   LIBCMT:ftol2.obj
 0001:00017910       __ftoi2                    10018910 f   LIBCMT:ftol2.obj
 0001:00017990       __ftoui2                   10018990 f   LIBCMT:ftol2.obj
 0001:00017a40       __ftol2                    10018a40 f   LIBCMT:ftol2.obj
 0001:00017af0       __ftoul2                   10018af0 f   LIBCMT:ftol2.obj
 0001:00017bb0       __alloca_probe             10018bb0 f   LIBCMT:chkstk.obj
 0001:00017bb0       __chkstk                   10018bb0 f   LIBCMT:chkstk.obj
 0001:00017be0       __ftoui3                   10018be0 f   LIBCMT:ftol3.obj
 0001:00017c30       __ftoul3                   10018c30 f   LIBCMT:ftol3.obj
 0001:00017cb0       __ftol3                    10018cb0 f   LIBCMT:ftol3.obj
 0001:00017d20       __dtoui3                   10018d20 f   LIBCMT:ftol3.obj
 0001:00017da0       __dtoul3                   10018da0 f   LIBCMT:ftol3.obj
 0001:00017e50       __dtol3                    10018e50 f   LIBCMT:ftol3.obj
 0001:00017f00       __ultod3                   10018f00 f   LIBCMT:ftol3.obj
 0001:00017f60       __ltod3                    10018f60 f   LIBCMT:ftol3.obj
 0001:000182e1       __CRT_INIT@12              100192e1 f   LIBCMT:dll_dllmain.obj
 0001:000182ea       __DllMainCRTStartup@12     100192ea f   LIBCMT:dll_dllmain.obj
 0001:0001830d       ___raise_securityfailure   1001930d f   LIBCMT:gs_report.obj
 0001:00018335       ___report_gsfailure        10019335 f   LIBCMT:gs_report.obj
 0001:0001842f       ___report_rangecheckfailure 1001942f f   LIBCMT:gs_report.obj
 0001:0001843b       ___report_securityfailure  1001943b f   LIBCMT:gs_report.obj
 0001:0001850a       ___report_securityfailureEx 1001950a f   LIBCMT:gs_report.obj
 0001:0001861f       ___isa_available_init      1001961f f   LIBCMT:cpu_disp.obj
 0001:0001883d       ___security_init_cookie    1001983d f   LIBCMT:gs_support.obj
 0001:00018888       _DllMain@12                10019888 f   LIBCMT:dll_dllmain_stub.obj
 0001:0001888e       ?__scrt_initialize_type_info@@YAXXZ 1001988e f   LIBCMT:tncleanup.obj
 0001:0001889a       ?__scrt_uninitialize_type_info@@YAXXZ 1001989a f   LIBCMT:tncleanup.obj
 0001:000188a6       ___local_stdio_scanf_options 100198a6 f i LIBCMT:default_local_stdio_options.obj
 0001:000188ac       ___scrt_initialize_default_local_stdio_options 100198ac f   LIBCMT:default_local_stdio_options.obj
 0001:000188c9       ?configure_argv@__scrt_narrow_argv_policy@@SAHXZ 100198c9 f i LIBCMT:utility.obj
 0001:0001891a       ?initialize_environment@__scrt_narrow_environment_policy@@SAHXZ 1001991a f i LIBCMT:utility.obj
 0001:00018953       _NtCurrentTeb              10019953 f i LIBCMT:utility.obj
 0001:0001895a       ___scrt_acquire_startup_lock 1001995a f   LIBCMT:utility.obj
 0001:0001898c       ___scrt_dllmain_after_initialize_c 1001998c f   LIBCMT:utility.obj
 0001:000189b7       ___scrt_dllmain_before_initialize_c 100199b7 f   LIBCMT:utility.obj
 0001:000189c5       ___scrt_dllmain_crt_thread_attach 100199c5 f   LIBCMT:utility.obj
 0001:000189e4       ___scrt_dllmain_crt_thread_detach 100199e4 f   LIBCMT:utility.obj
 0001:000189f1       ___scrt_dllmain_exception_filter 100199f1 f   LIBCMT:utility.obj
 0001:00018a25       ___scrt_dllmain_uninitialize_c 10019a25 f   LIBCMT:utility.obj
 0001:00018a48       ___scrt_dllmain_uninitialize_critical 10019a48 f   LIBCMT:utility.obj
 0001:00018a55       ___scrt_initialize_crt     10019a55 f   LIBCMT:utility.obj
 0001:00018a8e       ___scrt_initialize_onexit_tables 10019a8e f   LIBCMT:utility.obj
 0001:00018b15       ___scrt_is_nonwritable_in_current_image 10019b15 f   LIBCMT:utility.obj
 0001:00018ba9       ___scrt_release_startup_lock 10019ba9 f   LIBCMT:utility.obj
 0001:00018bc6       ___scrt_uninitialize_crt   10019bc6 f   LIBCMT:utility.obj
 0001:00018bee       __onexit                   10019bee f   LIBCMT:utility.obj
 0001:00018c1b       _at_quick_exit             10019c1b f   LIBCMT:utility.obj
 0001:00018c3e       _atexit                    10019c3e f   LIBCMT:utility.obj
 0001:00018c53       ___scrt_get_dyn_tls_init_callback 10019c53 f   LIBCMT:dyn_tls_init.obj
 0001:00018c59       ___scrt_fastfail           10019c59 f   LIBCMT:utility_desktop.obj
 0001:00018d74       ___scrt_get_show_window_mode 10019d74 f   LIBCMT:utility_desktop.obj
 0001:00018da5       ___scrt_initialize_mta     10019da5 f   LIBCMT:utility_desktop.obj
 0001:00018daa       ___scrt_initialize_winrt   10019daa f   LIBCMT:utility_desktop.obj
 0001:00018dad       ___scrt_is_managed_app     10019dad f   LIBCMT:utility_desktop.obj
 0001:00018df0       ___scrt_set_unhandled_exception_filter 10019df0 f   LIBCMT:utility_desktop.obj
 0001:00018dfc       ___scrt_exe_initialize_mta 10019dfc f   LIBCMT:utility_desktop.obj
 0001:00018dfc       ___scrt_stub_for_initialize_mta 10019dfc f   LIBCMT:utility_desktop.obj
 0001:00018dff       ___scrt_unhandled_exception_filter@4 10019dff f   LIBCMT:utility_desktop.obj
 0001:00018e55       __crt_debugger_hook        10019e55 f   LIBCMT:utility_desktop.obj
 0001:00018e5d       __RTC_Initialize           10019e5d f   LIBCMT:initsect.obj
 0001:00018e89       __RTC_Terminate            10019e89 f   LIBCMT:initsect.obj
 0001:00018ec0       __SEH_prolog4              10019ec0 f   LIBCMT:sehprolg4.obj
 0001:00018f10       __SEH_epilog4              10019f10 f   LIBCMT:sehprolg4.obj
 0001:00018f24       @_guard_check_icall_nop@4  10019f24 f i LIBCMT:guard_support.obj
 0001:00018f27       _ReadNoFence               10019f27 f i LIBCMT:guard_support.obj
 0001:00018f31       _ReadPointerNoFence        10019f31 f i LIBCMT:guard_support.obj
 0001:00018f3b       ___castguard_check_failure_debugbreak 10019f3b f i LIBCMT:guard_support.obj
 0001:00018f56       ___castguard_check_failure_fastfail 10019f56 f i LIBCMT:guard_support.obj
 0001:00018f75       ___castguard_check_failure_nop 10019f75 f i LIBCMT:guard_support.obj
 0001:00018f78       ___castguard_check_failure_os_handled 10019f78 f i LIBCMT:guard_support.obj
 0001:00018fcc       ___castguard_slow_path_check_debugbreak 10019fcc f i LIBCMT:guard_support.obj
 0001:00018ff9       ___castguard_slow_path_check_fastfail 10019ff9 f i LIBCMT:guard_support.obj
 0001:0001902a       ___castguard_slow_path_check_nop 1001a02a f i LIBCMT:guard_support.obj
 0001:0001902d       ___castguard_slow_path_check_os_handled 1001a02d f i LIBCMT:guard_support.obj
 0001:00019093       __guard_icall_checks_enforced 1001a093 f i LIBCMT:guard_support.obj
 0001:000190a5       __get_startup_argv_mode    1001a0a5 f   LIBCMT:argv_mode.obj
 0001:000190a9       ___scrt_is_ucrt_dll_in_use 1001a0a9 f   LIBCMT:ucrt_detection.obj
 0001:000190b5       _GetSystemTimeAsFileTime@4 1001a0b5 f   kernel32:KERNEL32.dll
 0001:000190bb       _EnterCriticalSection@4    1001a0bb f   kernel32:KERNEL32.dll
 0001:000190c1       _LeaveCriticalSection@4    1001a0c1 f   kernel32:KERNEL32.dll
 0001:000190c7       _InitializeCriticalSectionAndSpinCount@8 1001a0c7 f   kernel32:KERNEL32.dll
 0001:000190cd       _DeleteCriticalSection@4   1001a0cd f   kernel32:KERNEL32.dll
 0001:000190d3       _Sleep@4                   1001a0d3 f   kernel32:KERNEL32.dll
 0001:000190d9       _GetCurrentThreadId@0      1001a0d9 f   kernel32:KERNEL32.dll
 0001:000190df       _UnhandledExceptionFilter@4 1001a0df f   kernel32:KERNEL32.dll
 0001:000190e5       _SetUnhandledExceptionFilter@4 1001a0e5 f   kernel32:KERNEL32.dll
 0001:000190eb       _GetCurrentProcess@0       1001a0eb f   kernel32:KERNEL32.dll
 0001:000190f1       _TerminateProcess@8        1001a0f1 f   kernel32:KERNEL32.dll
 0001:000190f7       _IsProcessorFeaturePresent@4 1001a0f7 f   kernel32:KERNEL32.dll
 0001:000190fd       _QueryPerformanceCounter@4 1001a0fd f   kernel32:KERNEL32.dll
 0001:00019103       _GetCurrentProcessId@0     1001a103 f   kernel32:KERNEL32.dll
 0001:00019109       _InitializeSListHead@4     1001a109 f   kernel32:KERNEL32.dll
 0001:0001910f       _IsDebuggerPresent@0       1001a10f f   kernel32:KERNEL32.dll
 0001:00019115       _GetStartupInfoW@4         1001a115 f   kernel32:KERNEL32.dll
 0001:0001911b       _GetModuleHandleW@4        1001a11b f   kernel32:KERNEL32.dll
 0001:00019130       _memset                    1001a130 f   libvcruntime:memset.obj
 0001:00019290       _memcpy                    1001a290 f   libvcruntime:memcpy.obj
 0001:00019850       __except_handler4          1001a850 f   libvcruntime:chandler4.obj
 0001:000199bc       ??$?RD@__crt_internal_free_policy@@QBEXQBD@Z 1001a9bc f i libvcruntime:std_type_info.obj
 0001:000199cc       ??$?RX@__crt_internal_free_policy@@QBEXQBX@Z 1001a9cc f i libvcruntime:std_type_info.obj
 0001:000199dc       ??$__crt_interlocked_compare_exchange_pointer@$$CBDPAD$$T@@YAPBDPDSBDQAD$$T@Z 1001a9dc f i libvcruntime:std_type_info.obj
 0001:000199ee       ??$__crt_interlocked_read_pointer@$$CBD@@YAPBDPDSBD@Z 1001a9ee f i libvcruntime:std_type_info.obj
 0001:000199f8       ??0?$__crt_unique_heap_ptr@DU__crt_internal_free_policy@@@@QAE@QAD@Z 1001a9f8 f i libvcruntime:std_type_info.obj
 0001:00019a06       ??0?$__crt_unique_heap_ptr@XU__crt_internal_free_policy@@@@QAE@QAX@Z 1001aa06 f i libvcruntime:std_type_info.obj
 0001:00019a14       ??1?$__crt_unique_heap_ptr@DU__crt_internal_free_policy@@@@QAE@XZ 1001aa14 f i libvcruntime:std_type_info.obj
 0001:00019a24       ??1?$__crt_unique_heap_ptr@XU__crt_internal_free_policy@@@@QAE@XZ 1001aa24 f i libvcruntime:std_type_info.obj
 0001:00019a34       ??B?$__crt_unique_heap_ptr@DU__crt_internal_free_policy@@@@QBE_NXZ 1001aa34 f i libvcruntime:std_type_info.obj
 0001:00019a3b       ??B?$__crt_unique_heap_ptr@XU__crt_internal_free_policy@@@@QBE_NXZ 1001aa3b f i libvcruntime:std_type_info.obj
 0001:00019a6e       ?__crt_interlocked_read_32@@YAHPDH@Z 1001aa6e f i libvcruntime:std_type_info.obj
 0001:00019a78       ?detach@?$__crt_unique_heap_ptr@XU__crt_internal_free_policy@@@@QAEPAXXZ 1001aa78 f i libvcruntime:std_type_info.obj
 0001:00019a7e       ?get@?$__crt_unique_heap_ptr@DU__crt_internal_free_policy@@@@QBEPADXZ 1001aa7e f i libvcruntime:std_type_info.obj
 0001:00019a81       ?get@?$__crt_unique_heap_ptr@XU__crt_internal_free_policy@@@@QBEPAXXZ 1001aa81 f i libvcruntime:std_type_info.obj
 0001:00019a84       ?is_valid@?$__crt_unique_heap_ptr@DU__crt_internal_free_policy@@@@QBE_NXZ 1001aa84 f i libvcruntime:std_type_info.obj
 0001:00019a8b       ?is_valid@?$__crt_unique_heap_ptr@XU__crt_internal_free_policy@@@@QBE_NXZ 1001aa8b f i libvcruntime:std_type_info.obj
 0001:00019a92       ?release@?$__crt_unique_heap_ptr@DU__crt_internal_free_policy@@@@QAEXXZ 1001aa92 f i libvcruntime:std_type_info.obj
 0001:00019aa2       ?release@?$__crt_unique_heap_ptr@XU__crt_internal_free_policy@@@@QAEXXZ 1001aaa2 f i libvcruntime:std_type_info.obj
 0001:00019ab2       ___std_type_info_compare   1001aab2 f   libvcruntime:std_type_info.obj
 0001:00019aee       ___std_type_info_destroy_list 1001aaee f   libvcruntime:std_type_info.obj
 0001:00019b11       ___std_type_info_hash      1001ab11 f   libvcruntime:std_type_info.obj
 0001:00019b37       ___std_type_info_name      1001ab37 f   libvcruntime:std_type_info.obj
 0001:00019bfc       ___vcrt_initialize         1001abfc f   libvcruntime:initialization.obj
 0001:00019c1b       ___vcrt_thread_attach      1001ac1b f   libvcruntime:initialization.obj
 0001:00019c26       ___vcrt_thread_detach      1001ac26 f   libvcruntime:initialization.obj
 0001:00019c31       ___vcrt_uninitialize       1001ac31 f   libvcruntime:initialization.obj
 0001:00019c48       ___vcrt_uninitialize_critical 1001ac48 f   libvcruntime:initialization.obj
 0001:00019c53       ___DestructExceptionObject 1001ac53 f   libvcruntime:ehhelpers.obj
 0001:00019cf4       ?_CallMemberFunction0@@YGXQAX0@Z 1001acf4 f i libvcruntime:ehhelpers.obj
 0001:00019d59       ?raw_name@type_info@@QBEPBDXZ 1001ad59 f i libvcruntime:ehhelpers.obj
 0001:00019d5d       __IsExceptionObjectToBeDestroyed 1001ad5d f   libvcruntime:ehhelpers.obj
 0001:00019d83       __SetWinRTOutOfMemoryExceptionCallback 1001ad83 f   libvcruntime:ehhelpers.obj
 0001:00019d90       ___AdjustPointer           1001ad90 f   libvcruntime:ehhelpers.obj
 0001:00019db5       ___FrameUnwindFilter       1001adb5 f   libvcruntime:ehhelpers.obj
 0001:00019e0b       ___GetPlatformExceptionInfo 1001ae0b f   libvcruntime:ehhelpers.obj
 0001:00019e57       ___current_exception       1001ae57 f   libvcruntime:ehhelpers.obj
 0001:00019e60       ___current_exception_context 1001ae60 f   libvcruntime:ehhelpers.obj
 0001:00019e69       ___processing_throw        1001ae69 f   libvcruntime:ehhelpers.obj
 0001:00019e72       ___std_terminate           1001ae72 f   libvcruntime:ehhelpers.obj
 0001:00019e77       __is_exception_typeof      1001ae77 f   libvcruntime:ehhelpers.obj
 0001:00019f20       __local_unwind4            1001af20 f   libvcruntime:exsup4.obj
 0001:0001a010       __seh_longjmp_unwind4@4    1001b010 f   libvcruntime:exsup4.obj
 0001:0001a040       @_EH4_CallFilterFunc@8     1001b040 f   libvcruntime:exsup4.obj
 0001:0001a060       @_EH4_TransferToHandler@8  1001b060 f   libvcruntime:exsup4.obj
 0001:0001a080       @_EH4_GlobalUnwind2@8      1001b080 f   libvcruntime:exsup4.obj
 0001:0001a0a0       @_EH4_LocalUnwind@16       1001b0a0 f   libvcruntime:exsup4.obj
 0001:0001a0c2       ___except_validate_context_record 1001b0c2 f   libvcruntime:jbcxrval.obj
 0001:0001a0f2       ___except_validate_jump_buffer 1001b0f2 f   libvcruntime:jbcxrval.obj
 0001:0001a11f       ___except_validate_jump_buffer_common 1001b11f f i libvcruntime:jbcxrval.obj
 0001:0001a158       ??$?0$00@DName@@QAE@PBDU?$StringLifeSelector@$00@@@Z 1001b158 f i libvcruntime:undname.obj
 0001:0001a18b       ??$?0$00@pcharNode@@QAE@PBDHU?$StringLifeSelector@$00@@@Z 1001b18b f i libvcruntime:undname.obj
 0001:0001a1a6       ??$?0$01@DName@@QAE@PBDU?$StringLifeSelector@$01@@@Z 1001b1a6 f i libvcruntime:undname.obj
 0001:0001a1d9       ??$?0$01@pcharNode@@QAE@PBDHU?$StringLifeSelector@$01@@@Z 1001b1d9 f i libvcruntime:undname.obj
 0001:0001a219       ??$?0$0A@@DName@@QAE@PBDU?$StringLifeSelector@$0A@@@@Z 1001b219 f i libvcruntime:undname.obj
 0001:0001a24c       ??$?0$0A@@pcharNode@@QAE@PBDHU?$StringLifeSelector@$0A@@@@Z 1001b24c f i libvcruntime:undname.obj
 0001:0001a28c       ??$?0_K$0A@@?$optional@_K@std@@QAE@$$QA_K@Z 1001b28c f i libvcruntime:undname.obj
 0001:0001a2a6       ??$?0_K@?$_Optional_construct_base@_K@std@@QAE@Uin_place_t@1@$$QA_K@Z 1001b2a6 f i libvcruntime:undname.obj
 0001:0001a2c0       ??$?0_K@?$_Optional_destruct_base@_K$00@std@@QAE@Uin_place_t@1@$$QA_K@Z 1001b2c0 f i libvcruntime:undname.obj
 0001:0001a2da       ??$append@VDNameNode@@@DName@@AAEXPBVDNameNode@@@Z 1001b2da f i libvcruntime:undname.obj
 0001:0001a31b       ??$append@VDNameStatusNode@@@DName@@AAEXPBVDNameStatusNode@@@Z 1001b31b f i libvcruntime:undname.obj
 0001:0001a35c       ??$append@VcharNode@@@DName@@AAEXPBVcharNode@@@Z 1001b35c f i libvcruntime:undname.obj
 0001:0001a39d       ??$append@VpDNameNode@@@DName@@AAEXPBVpDNameNode@@@Z 1001b39d f i libvcruntime:undname.obj
 0001:0001a3de       ??$append@VpcharNode@@@DName@@AAEXPBVpcharNode@@@Z 1001b3de f i libvcruntime:undname.obj
 0001:0001a41f       ??$doPchar@$00@DName@@AAEXPBDH@Z 1001b41f f i libvcruntime:undname.obj
 0001:0001a48a       ??$doPchar@$01@DName@@AAEXPBDH@Z 1001b48a f i libvcruntime:undname.obj
 0001:0001a4fb       ??$doPchar@$0A@@DName@@AAEXPBDH@Z 1001b4fb f i libvcruntime:undname.obj
 0001:0001a56c       ??$forward@_K@std@@YA$$QA_KAA_K@Z 1001b56c f i libvcruntime:undname.obj
 0001:0001a574       ??$size@D$04@std@@YAIAAY04$$CBD@Z 1001b574 f i libvcruntime:undname.obj
 0001:0001a578       ??$size@D$0EB@@std@@YAIAAY0EB@$$CBD@Z 1001b578 f i libvcruntime:undname.obj
 0001:0001a57c       ??0?$_Optional_construct_base@_K@std@@QAE@XZ 1001b57c f i libvcruntime:undname.obj
 0001:0001a583       ??0?$_Optional_destruct_base@_K$00@std@@QAE@XZ 1001b583 f i libvcruntime:undname.obj
 0001:0001a58a       ??0?$optional@_K@std@@QAE@XZ 1001b58a f i libvcruntime:undname.obj
 0001:0001a591       ??0Block@_HeapManager@@QAE@XZ 1001b591 f i libvcruntime:undname.obj
 0001:0001a597       ??0DName@@QAE@AAPBDD@Z     1001b597 f   libvcruntime:undname.obj
 0001:0001a617       ??0DName@@QAE@ABUStringLiteral@@@Z 1001b617 f   libvcruntime:undname.obj
 0001:0001a63e       ??0DName@@QAE@ABV0@@Z      1001b63e f i libvcruntime:undname.obj
 0001:0001a654       ??0DName@@QAE@D@Z          1001b654 f   libvcruntime:undname.obj
 0001:0001a670       ??0DName@@QAE@PAV0@@Z      1001b670 f   libvcruntime:undname.obj
 0001:0001a6b7       ??0DName@@QAE@W4DNameStatus@@@Z 1001b6b7 f   libvcruntime:undname.obj
 0001:0001a6f7       ??0DName@@QAE@XZ           1001b6f7 f i libvcruntime:undname.obj
 0001:0001a701       ??0DName@@QAE@_J@Z         1001b701 f   libvcruntime:undname.obj
 0001:0001a78d       ??0DName@@QAE@_K@Z         1001b78d f   libvcruntime:undname.obj
 0001:0001a7f3       ??0DNameNode@@IAE@XZ       1001b7f3 f i libvcruntime:undname.obj
 0001:0001a7fc       ??0Replicator@@QAE@XZ      1001b7fc f i libvcruntime:undname.obj
 0001:0001a80b       ??0UnDecorator@@QAE@PBDP6APADJ@ZK@Z 1001b80b f i libvcruntime:undname.obj
 0001:0001a857       ??0_Nontrivial_dummy_type@std@@QAE@XZ 1001b857 f i libvcruntime:undname.obj
 0001:0001a85a       ??0charNode@@QAE@D@Z       1001b85a f i libvcruntime:undname.obj
 0001:0001a86f       ??0pDNameNode@@QAE@PAVDName@@@Z 1001b86f f   libvcruntime:undname.obj
 0001:0001a897       ??0pairNode@@QAE@PBVDNameNode@@0@Z 1001b897 f i libvcruntime:undname.obj
 0001:0001a8bd       ??2@YAPAXIAAV_HeapManager@@H@Z 1001b8bd f   libvcruntime:undname.obj
 0001:0001a8dc       ??4DName@@QAEAAV0@ABUStringLiteral@@@Z 1001b8dc f   libvcruntime:undname.obj
 0001:0001a8fd       ??4DName@@QAEAAV0@ABV0@@Z  1001b8fd f   libvcruntime:undname.obj
 0001:0001a913       ??4DName@@QAEAAV0@D@Z      1001b913 f i libvcruntime:undname.obj
 0001:0001a92f       ??4DName@@QAEAAV0@PAV0@@Z  1001b92f f   libvcruntime:undname.obj
 0001:0001a972       ??4DName@@QAEAAV0@W4DNameStatus@@@Z 1001b972 f   libvcruntime:undname.obj
 0001:0001a9a4       ??AReplicator@@QBE?AVDName@@H@Z 1001b9a4 f   libvcruntime:undname.obj
 0001:0001a9ea       ??B?$optional@_K@std@@QBE_NXZ 1001b9ea f i libvcruntime:undname.obj
 0001:0001a9ee       ??D?$optional@_K@std@@QGAEAA_KXZ 1001b9ee f i libvcruntime:undname.obj
 0001:0001a9f1       ??H@YA?AVDName@@ABUStringLiteral@@ABV0@@Z 1001b9f1 f i libvcruntime:undname.obj
 0001:0001aa13       ??H@YA?AVDName@@DABV0@@Z   1001ba13 f i libvcruntime:undname.obj
 0001:0001aa3e       ??H@YA?AVDName@@W4DNameStatus@@ABV0@@Z 1001ba3e f i libvcruntime:undname.obj
 0001:0001aa60       ??HDName@@QBE?AV0@ABUStringLiteral@@@Z 1001ba60 f   libvcruntime:undname.obj
 0001:0001aa82       ??HDName@@QBE?AV0@ABV0@@Z  1001ba82 f   libvcruntime:undname.obj
 0001:0001aaa4       ??HDName@@QBE?AV0@D@Z      1001baa4 f   libvcruntime:undname.obj
 0001:0001aac6       ??HDName@@QBE?AV0@PAV0@@Z  1001bac6 f   libvcruntime:undname.obj
 0001:0001aae8       ??HDName@@QBE?AV0@W4DNameStatus@@@Z 1001bae8 f   libvcruntime:undname.obj
 0001:0001ab0a       ??HStringLiteral@@QBE?AU0@H@Z 1001bb0a f i libvcruntime:undname.obj
 0001:0001ab24       ??YDName@@QAEAAV0@ABUStringLiteral@@@Z 1001bb24 f   libvcruntime:undname.obj
 0001:0001ab7c       ??YDName@@QAEAAV0@ABV0@@Z  1001bb7c f   libvcruntime:undname.obj
 0001:0001abd3       ??YDName@@QAEAAV0@D@Z      1001bbd3 f   libvcruntime:undname.obj
 0001:0001ac28       ??YDName@@QAEAAV0@PAV0@@Z  1001bc28 f   libvcruntime:undname.obj
 0001:0001ac8c       ??YDName@@QAEAAV0@W4DNameStatus@@@Z 1001bc8c f   libvcruntime:undname.obj
 0001:0001accc       ??YReplicator@@QAEAAV0@ABVDName@@@Z 1001bccc f   libvcruntime:undname.obj
 0001:0001ad0a       ??_5DName@@QAEAAV0@ABV0@@Z 1001bd0a f   libvcruntime:undname.obj
 0001:0001ad26       ??__K_l@@YA?AUStringLiteral@@PBDI@Z 1001bd26 f i libvcruntime:undname.obj
 0001:0001ad31       ?Constructor@_HeapManager@@QAEXP6APAXI@ZP6AXPAX@Z@Z 1001bd31 f i libvcruntime:undname.obj
 0001:0001ad4e       ?Destructor@_HeapManager@@QAEXXZ 1001bd4e f i libvcruntime:undname.obj
 0001:0001ad95       ?UScore@UnDecorator@@SA?AUStringLiteral@@W4Tokens@@@Z 1001bd95 f   libvcruntime:undname.obj
 0001:0001adbc       ?composeDeclaration@UnDecorator@@CA?AVDName@@ABV2@@Z 1001bdbc f i libvcruntime:undname.obj
 0001:0001baef       ?doAccessSpecifiers@UnDecorator@@SAHXZ 1001caef f i libvcruntime:undname.obj
 0001:0001bafd       ?doAllocationLanguage@UnDecorator@@SAHXZ 1001cafd f i libvcruntime:undname.obj
 0001:0001bb0b       ?doAllocationModel@UnDecorator@@SAHXZ 1001cb0b f i libvcruntime:undname.obj
 0001:0001bb19       ?doEcsu@UnDecorator@@SAHXZ 1001cb19 f i libvcruntime:undname.obj
 0001:0001bb27       ?doEllipsis@UnDecorator@@SAHXZ 1001cb27 f i libvcruntime:undname.obj
 0001:0001bb35       ?doFunctionReturns@UnDecorator@@SAHXZ 1001cb35 f i libvcruntime:undname.obj
 0001:0001bb43       ?doMSKeywords@UnDecorator@@SAHXZ 1001cb43 f i libvcruntime:undname.obj
 0001:0001bb50       ?doMemberTypes@UnDecorator@@SAHXZ 1001cb50 f i libvcruntime:undname.obj
 0001:0001bb5e       ?doNameOnly@UnDecorator@@SAHXZ 1001cb5e f i libvcruntime:undname.obj
 0001:0001bb69       ?doNoIdentCharCheck@UnDecorator@@SAHXZ 1001cb69 f i libvcruntime:undname.obj
 0001:0001bb74       ?doPchar@DName@@AAEXD@Z    1001cb74 f   libvcruntime:undname.obj
 0001:0001bbac       ?doPtr64@UnDecorator@@SAHXZ 1001cbac f i libvcruntime:undname.obj
 0001:0001bbba       ?doRestrictionSpec@UnDecorator@@SAHXZ 1001cbba f i libvcruntime:undname.obj
 0001:0001bbc8       ?doThisTypes@UnDecorator@@SAHXZ 1001cbc8 f i libvcruntime:undname.obj
 0001:0001bbda       ?doThrowTypes@UnDecorator@@SAHXZ 1001cbda f i libvcruntime:undname.obj
 0001:0001bbe8       ?doTypeOnly@UnDecorator@@SAHXZ 1001cbe8 f i libvcruntime:undname.obj
 0001:0001bbf3       ?doUnderScore@UnDecorator@@SAHXZ 1001cbf3 f i libvcruntime:undname.obj
 0001:0001bbfe       ?getAddressOf@UnDecorator@@CA?AVDName@@XZ 1001cbfe f   libvcruntime:undname.obj
 0001:0001bc71       ?getArgumentList@UnDecorator@@CA?AVDName@@XZ 1001cc71 f   libvcruntime:undname.obj
 0001:0001bd7e       ?getArgumentTypes@UnDecorator@@CA?AVDName@@XZ 1001cd7e f   libvcruntime:undname.obj
 0001:0001be97       ?getArrayAccess@UnDecorator@@CA?AVDName@@XZ 1001ce97 f   libvcruntime:undname.obj
 0001:0001bf16       ?getArrayObject@UnDecorator@@CA?AVDName@@XZ 1001cf16 f   libvcruntime:undname.obj
 0001:0001bfb8       ?getArrayType@UnDecorator@@CA?AVDName@@ABV2@@Z 1001cfb8 f i libvcruntime:undname.obj
 0001:0001c155       ?getBasedType@UnDecorator@@CA?AVDName@@XZ 1001d155 f   libvcruntime:undname.obj
 0001:0001c210       ?getBasicDataType@UnDecorator@@CA?AVDName@@ABV2@@Z 1001d210 f   libvcruntime:undname.obj
 0001:0001c744       ?getCHPEName@UnDecorator@@QAEPADPADH@Z 1001d744 f i libvcruntime:undname.obj
 0001:0001c821       ?getCallIndex@UnDecorator@@CA?AVDName@@XZ 1001d821 f i libvcruntime:undname.obj
 0001:0001c835       ?getCallingConvention@UnDecorator@@CA?AVDName@@XZ 1001d835 f   libvcruntime:undname.obj
 0001:0001c912       ?getDataIndirectType@UnDecorator@@CA?AVDName@@ABV2@W4IndirectionKind@@0H@Z 1001d912 f   libvcruntime:undname.obj
 0001:0001cfa8       ?getDataIndirectType@UnDecorator@@CA?AVDName@@XZ 1001dfa8 f i libvcruntime:undname.obj
 0001:0001cfd6       ?getDataType@UnDecorator@@CA?AVDName@@PAV2@@Z 1001dfd6 f   libvcruntime:undname.obj
 0001:0001d0ad       ?getDecoratedName@UnDecorator@@CA?AVDName@@XZ 1001e0ad f   libvcruntime:undname.obj
 0001:0001d317       ?getDimension@UnDecorator@@CA?AVDName@@_N@Z 1001e317 f   libvcruntime:undname.obj
 0001:0001d42e       ?getDispatchTarget@UnDecorator@@CA?AVDName@@XZ 1001e42e f   libvcruntime:undname.obj
 0001:0001d482       ?getDisplacement@UnDecorator@@CA?AVDName@@XZ 1001e482 f i libvcruntime:undname.obj
 0001:0001d496       ?getECSUDataType@UnDecorator@@CA?AVDName@@XZ 1001e496 f   libvcruntime:undname.obj
 0001:0001d626       ?getECSUName@UnDecorator@@CA?AVDName@@XZ 1001e626 f i libvcruntime:undname.obj
 0001:0001d637       ?getEnumType@UnDecorator@@CA?AVDName@@XZ 1001e637 f i libvcruntime:undname.obj
 0001:0001d757       ?getExtendedDataIndirectType@UnDecorator@@CA?AVDName@@AAW4IndirectionKind@@AA_NH@Z 1001e757 f   libvcruntime:undname.obj
 0001:0001d90a       ?getExternalDataType@UnDecorator@@CA?AVDName@@ABV2@@Z 1001e90a f i libvcruntime:undname.obj
 0001:0001d96f       ?getFloatingPoint@UnDecorator@@CA?AVDName@@H@Z 1001e96f f   libvcruntime:undname.obj
 0001:0001da63       ?getFunctionIndirectType@UnDecorator@@CA?AVDName@@ABV2@@Z 1001ea63 f   libvcruntime:undname.obj
 0001:0001de1c       ?getGuardNumber@UnDecorator@@CA?AVDName@@XZ 1001ee1c f i libvcruntime:undname.obj
 0001:0001de30       ?getLastChar@DName@@QBEDXZ 1001ee30 f i libvcruntime:undname.obj
 0001:0001de50       ?getLastChar@DNameStatusNode@@UBEDXZ 1001ee50 f i libvcruntime:undname.obj
 0001:0001de5c       ?getLastChar@charNode@@UBEDXZ 1001ee5c f i libvcruntime:undname.obj
 0001:0001de60       ?getLastChar@pDNameNode@@UBEDXZ 1001ee60 f i libvcruntime:undname.obj
 0001:0001de6e       ?getLastChar@pairNode@@UBEDXZ 1001ee6e f i libvcruntime:undname.obj
 0001:0001dea3       ?getLastChar@pcharNode@@UBEDXZ 1001eea3 f i libvcruntime:undname.obj
 0001:0001deb5       ?getLexicalFrame@UnDecorator@@CA?AVDName@@XZ 1001eeb5 f i libvcruntime:undname.obj
 0001:0001dee6       ?getMemberAccess@UnDecorator@@CA?AVDName@@XZ 1001eee6 f   libvcruntime:undname.obj
 0001:0001df61       ?getMemoryWithBuffer@_HeapManager@@QAEPAXI@Z 1001ef61 f   libvcruntime:undname.obj
 0001:0001dfcb       ?getMemoryWithoutBuffer@_HeapManager@@QAEPAXI@Z 1001efcb f   libvcruntime:undname.obj
 0001:0001dfeb       ?getNoexcept@UnDecorator@@CA?AVDName@@XZ 1001efeb f   libvcruntime:undname.obj
 0001:0001e03f       ?getNumberOfDimensions@UnDecorator@@CAHXZ 1001f03f f   libvcruntime:undname.obj
 0001:0001e0a0       ?getOperatorName@UnDecorator@@CA?AVDName@@_NPA_N@Z 1001f0a0 f i libvcruntime:undname.obj
 0001:0001e806       ?getPointerToMember@UnDecorator@@CA?AVDName@@XZ 1001f806 f   libvcruntime:undname.obj
 0001:0001e8c1       ?getPointerType@UnDecorator@@CA?AVDName@@ABV2@0@Z 1001f8c1 f i libvcruntime:undname.obj
 0001:0001e8dc       ?getPointerTypeArray@UnDecorator@@CA?AVDName@@ABV2@0@Z 1001f8dc f i libvcruntime:undname.obj
 0001:0001e8f7       ?getPrimaryDataType@UnDecorator@@CA?AVDName@@ABV2@@Z 1001f8f7 f   libvcruntime:undname.obj
 0001:0001eb46       ?getPtrRefDataType@UnDecorator@@CA?AVDName@@ABV2@H@Z 1001fb46 f   libvcruntime:undname.obj
 0001:0001ecb3       ?getPtrRefType@UnDecorator@@CA?AVDName@@ABV2@0W4IndirectionKind@@@Z 1001fcb3 f   libvcruntime:undname.obj
 0001:0001edc4       ?getReferenceType@UnDecorator@@CA?AVDName@@ABV2@0W4IndirectionKind@@@Z 1001fdc4 f i libvcruntime:undname.obj
 0001:0001ede0       ?getRestrictionSpec@UnDecorator@@CA?AVDName@@XZ 1001fde0 f   libvcruntime:undname.obj
 0001:0001ef08       ?getReturnType@UnDecorator@@CA?AVDName@@PAV2@@Z 1001ff08 f   libvcruntime:undname.obj
 0001:0001ef37       ?getScope@UnDecorator@@CA?AVDName@@XZ 1001ff37 f   libvcruntime:undname.obj
 0001:0001f2e9       ?getScopedName@UnDecorator@@CA?AVDName@@XZ 100202e9 f   libvcruntime:undname.obj
 0001:0001f3d4       ?getSignedDimension@UnDecorator@@CA?AVDName@@XZ 100203d4 f   libvcruntime:undname.obj
 0001:0001f425       ?getStorageConvention@UnDecorator@@CA?AVDName@@XZ 10020425 f i libvcruntime:undname.obj
 0001:0001f436       ?getString@DName@@QBEPADPAD0@Z 10020436 f i libvcruntime:undname.obj
 0001:0001f463       ?getString@DName@@QBEPADPADH@Z 10020463 f i libvcruntime:undname.obj
 0001:0001f4b8       ?getString@DNameStatusNode@@UBEPADPAD0@Z 100204b8 f i libvcruntime:undname.obj
 0001:0001f4fe       ?getString@charNode@@UBEPADPAD0@Z 100204fe f i libvcruntime:undname.obj
 0001:0001f513       ?getString@pDNameNode@@UBEPADPAD0@Z 10020513 f i libvcruntime:undname.obj
 0001:0001f52a       ?getString@pairNode@@UBEPADPAD0@Z 1002052a f i libvcruntime:undname.obj
 0001:0001f570       ?getString@pcharNode@@UBEPADPAD0@Z 10020570 f i libvcruntime:undname.obj
 0001:0001f58b       ?getStringEncoding@UnDecorator@@CA?AVDName@@W4PrefixKind@@H@Z 1002058b f   libvcruntime:undname.obj
 0001:0001f643       ?getStringHelper@@YAPADPADPBD1H@Z 10020643 f i libvcruntime:undname.obj
 0001:0001f66d       ?getStringObject@UnDecorator@@CA?AVDName@@XZ 1002066d f   libvcruntime:undname.obj
 0001:0001f6c4       ?getSymbolName@UnDecorator@@CA?AVDName@@XZ 100206c4 f i libvcruntime:undname.obj
 0001:0001f70c       ?getTemplateArgumentList@UnDecorator@@CA?AVDName@@XZ 1002070c f   libvcruntime:undname.obj
 0001:0001f8c8       ?getTemplateName@UnDecorator@@CA?AVDName@@_N@Z 100208c8 f   libvcruntime:undname.obj
 0001:0001fa29       ?getTemplateNonTypeArgument@UnDecorator@@CA?AVDName@@XZ 10020a29 f   libvcruntime:undname.obj
 0001:0001fddd       ?getTemplateTypeArgument@UnDecorator@@CA?AVDName@@XZ 10020ddd f   libvcruntime:undname.obj
 0001:0001fee3       ?getThisType@UnDecorator@@CA?AVDName@@XZ 10020ee3 f i libvcruntime:undname.obj
 0001:0001ff12       ?getThrowTypes@UnDecorator@@CA?AVDName@@XZ 10020f12 f   libvcruntime:undname.obj
 0001:0001ff35       ?getTypeEncoding@UnDecorator@@CAHXZ 10020f35 f i libvcruntime:undname.obj
 0001:00020295       ?getUndecoratedName@UnDecorator@@QAEPADPADH@Z 10021295 f i libvcruntime:undname.obj
 0001:000203b4       ?getUnionObject@UnDecorator@@CA?AVDName@@XZ 100213b4 f   libvcruntime:undname.obj
 0001:00020463       ?getVCallThunkType@UnDecorator@@CA?AVDName@@XZ 10021463 f i libvcruntime:undname.obj
 0001:000204b9       ?getValue@UnDecorator@@CA?AV?$optional@_K@std@@XZ 100214b9 f   libvcruntime:undname.obj
 0001:00020527       ?getValueObject@UnDecorator@@CA?AVDName@@XZ 10021527 f   libvcruntime:undname.obj
 0001:0002063f       ?getVbTableType@UnDecorator@@CA?AVDName@@ABV2@@Z 1002163f f i libvcruntime:undname.obj
 0001:00020654       ?getVdispMapType@UnDecorator@@CA?AVDName@@ABV2@@Z 10021654 f i libvcruntime:undname.obj
 0001:000206b5       ?getVfTableType@UnDecorator@@CA?AVDName@@ABV2@@Z 100216b5 f i libvcruntime:undname.obj
 0001:0002080b       ?getZName@UnDecorator@@CA?AVDName@@_N0@Z 1002180b f   libvcruntime:undname.obj
 0001:00020a20       ?haveTemplateParameters@UnDecorator@@SAHXZ 10021a20 f i libvcruntime:undname.obj
 0001:00020a2b       ?isArray@DName@@QBEHXZ     10021a2b f i libvcruntime:undname.obj
 0001:00020a35       ?isComArray@DName@@QBEHXZ  10021a35 f i libvcruntime:undname.obj
 0001:00020a3f       ?isEmpty@DName@@QBEHXZ     10021a3f f i libvcruntime:undname.obj
 0001:00020a47       ?isFull@Replicator@@QBEHXZ 10021a47 f i libvcruntime:undname.obj
 0001:00020a50       ?isNoTE@DName@@QBEHXZ      10021a50 f i libvcruntime:undname.obj
 0001:00020a5a       ?isPinPtr@DName@@QBEHXZ    10021a5a f i libvcruntime:undname.obj
 0001:00020a64       ?isPtrRef@DName@@QBEHXZ    10021a64 f i libvcruntime:undname.obj
 0001:00020a6e       ?isUDC@DName@@QBEHXZ       10021a6e f i libvcruntime:undname.obj
 0001:00020a7f       ?isUDTThunk@DName@@QBEHXZ  10021a7f f i libvcruntime:undname.obj
 0001:00020a90       ?isVCallThunk@DName@@QBEHXZ 10021a90 f i libvcruntime:undname.obj
 0001:00020a9a       ?isValid@DName@@QBEHXZ     10021a9a f i libvcruntime:undname.obj
 0001:00020aa4       ?length@DName@@QBEHXZ      10021aa4 f i libvcruntime:undname.obj
 0001:00020ac3       ?length@DNameStatusNode@@UBEHXZ 10021ac3 f i libvcruntime:undname.obj
 0001:00020ac7       ?length@charNode@@UBEHXZ   10021ac7 f i libvcruntime:undname.obj
 0001:00020acb       ?length@pDNameNode@@UBEHXZ 10021acb f i libvcruntime:undname.obj
 0001:00020ad9       ?length@pairNode@@UBEHXZ   10021ad9 f i libvcruntime:undname.obj
 0001:00020b22       ?length@pcharNode@@UBEHXZ  10021b22 f i libvcruntime:undname.obj
 0001:00020b26       ?make@DNameStatusNode@@SAPBV1@W4DNameStatus@@@Z 10021b26 f i libvcruntime:undname.obj
 0001:00020b42       ?parseDecoratedName@UnDecorator@@CA?AVDName@@XZ 10021b42 f   libvcruntime:undname.obj
 0001:00020c3c       ?raw_length@DNameStatusNode@@UBEHXZ 10021c3c f i libvcruntime:undname.obj
 0001:00020c40       ?raw_length@charNode@@UBEHXZ 10021c40 f i libvcruntime:undname.obj
 0001:00020c44       ?raw_length@pDNameNode@@UBEHXZ 10021c44 f i libvcruntime:undname.obj
 0001:00020c48       ?raw_length@pairNode@@UBEHXZ 10021c48 f i libvcruntime:undname.obj
 0001:00020c4c       ?raw_length@pcharNode@@UBEHXZ 10021c4c f i libvcruntime:undname.obj
 0001:00020c50       ?setIsArray@DName@@QAEXXZ  10021c50 f i libvcruntime:undname.obj
 0001:00020c58       ?setIsComArray@DName@@QAEXXZ 10021c58 f i libvcruntime:undname.obj
 0001:00020c60       ?setIsNoTE@DName@@QAEXXZ   10021c60 f i libvcruntime:undname.obj
 0001:00020c68       ?setIsPinPtr@DName@@QAEXXZ 10021c68 f i libvcruntime:undname.obj
 0001:00020c70       ?setIsUDC@DName@@QAEXXZ    10021c70 f i libvcruntime:undname.obj
 0001:00020c7d       ?setIsVCallThunk@DName@@QAEXXZ 10021c7d f i libvcruntime:undname.obj
 0001:00020c85       ?setPtrRef@DName@@QAEAAV1@XZ 10021c85 f i libvcruntime:undname.obj
 0001:00020c8f       ?status@DName@@QBE?AW4DNameStatus@@XZ 10021c8f f i libvcruntime:undname.obj
 0001:00020cfb       ___unDName                 10021cfb f   libvcruntime:undname.obj
 0001:00020d1e       ___unDNameEx               10021d1e f   libvcruntime:undname.obj
 0001:00020dbd       __vsprintf_s_l             10021dbd f i libvcruntime:undname.obj
 0001:00020dea       _sprintf_s                 10021dea f i libvcruntime:undname.obj
 0001:00020e06       _unDNameGenerateCHPE       10021e06 f   libvcruntime:undname.obj
 0001:00020ea3       ??$?RU__vcrt_ptd@@@__crt_internal_free_policy@@QBEXQBU__vcrt_ptd@@@Z 10021ea3 f i libvcruntime:per_thread_data.obj
 0001:00020eb3       ??0?$__crt_unique_heap_ptr@U__vcrt_ptd@@U__crt_internal_free_policy@@@@QAE@QAU__vcrt_ptd@@@Z 10021eb3 f i libvcruntime:per_thread_data.obj
 0001:00020ed0       ??1?$__crt_unique_heap_ptr@U__vcrt_ptd@@U__crt_internal_free_policy@@@@QAE@XZ 10021ed0 f i libvcruntime:per_thread_data.obj
 0001:00020ee9       ??B?$__crt_unique_heap_ptr@U__vcrt_ptd@@U__crt_internal_free_policy@@@@QBE_NXZ 10021ee9 f i libvcruntime:per_thread_data.obj
 0001:00020ef0       ?detach@?$__crt_unique_heap_ptr@U__vcrt_ptd@@U__crt_internal_free_policy@@@@QAEPAU__vcrt_ptd@@XZ 10021ef0 f i libvcruntime:per_thread_data.obj
 0001:00020ef6       ?get@?$__crt_unique_heap_ptr@U__vcrt_ptd@@U__crt_internal_free_policy@@@@QBEPAU__vcrt_ptd@@XZ 10021ef6 f i libvcruntime:per_thread_data.obj
 0001:00020ef9       ?is_valid@?$__crt_unique_heap_ptr@U__vcrt_ptd@@U__crt_internal_free_policy@@@@QBE_NXZ 10021ef9 f i libvcruntime:per_thread_data.obj
 0001:00020f00       ?release@?$__crt_unique_heap_ptr@U__vcrt_ptd@@U__crt_internal_free_policy@@@@QAEXXZ 10021f00 f i libvcruntime:per_thread_data.obj
 0001:00020f2a       ___vcrt_freefls@4          10021f2a f   libvcruntime:per_thread_data.obj
 0001:00020f46       ___vcrt_freeptd            10021f46 f   libvcruntime:per_thread_data.obj
 0001:00020f7c       ___vcrt_getptd             10021f7c f   libvcruntime:per_thread_data.obj
 0001:00020f8a       ___vcrt_getptd_noexit      10021f8a f   libvcruntime:per_thread_data.obj
 0001:0002101c       ___vcrt_getptd_noinit      1002201c f   libvcruntime:per_thread_data.obj
 0001:00021053       ___vcrt_initialize_ptd     10022053 f   libvcruntime:per_thread_data.obj
 0001:00021086       ___vcrt_uninitialize_ptd   10022086 f   libvcruntime:per_thread_data.obj
 0001:000210a1       ___vcrt_initialize_locks   100220a1 f   libvcruntime:locks.obj
 0001:000210dd       ___vcrt_lock               100220dd f   libvcruntime:locks.obj
 0001:000210f2       ___vcrt_uninitialize_locks 100220f2 f   libvcruntime:locks.obj
 0001:00021121       ___vcrt_unlock             10022121 f   libvcruntime:locks.obj
 0001:00021140       __global_unwind2           10022140 f   libvcruntime:exsup.obj
 0001:000211c0       __local_unwind2            100221c0 f   libvcruntime:exsup.obj
 0001:00021260       __abnormal_termination     10022260 f   libvcruntime:exsup.obj
 0001:00021290       __NLG_Notify1              10022290 f   libvcruntime:exsup.obj
 0001:000212a0       __NLG_Notify               100222a0 f   libvcruntime:exsup.obj
 0001:000212b7       __NLG_Dispatch2            100222b7     libvcruntime:exsup.obj
 0001:000212b7       __NLG_Dispatch             100222b7     libvcruntime:exsup.obj
 0001:000212c0       __NLG_Call                 100222c0 f   libvcruntime:exsup.obj
 0001:000212c2       __NLG_Return2              100222c2     libvcruntime:exsup.obj
 0001:000212c3       ??$__crt_interlocked_exchange_pointer@$$A6AXXZP6AXXZ@@YAP6AXXZPDS6AXXZQ6AXXZ@Z 100222c3 f i libvcruntime:purevirt.obj
 0001:000212d0       ??$__crt_interlocked_read_pointer@$$A6AXXZ@@YAP6AXXZPDS6AXXZ@Z 100222d0 f i libvcruntime:purevirt.obj
 0001:000212da       __get_purecall_handler     100222da f   libvcruntime:purevirt.obj
 0001:000212e0       __purecall                 100222e0 f   libvcruntime:purevirt.obj
 0001:000212fc       __set_purecall_handler     100222fc f   libvcruntime:purevirt.obj
 0001:0002130b       ??$?0AAViterator@TryBlockMap@__FrameHandler3@@AAV012@$0A@@?$pair@Viterator@TryBlockMap@__FrameHandler3@@V123@@std@@QAE@AAViterator@TryBlockMap@__FrameHandler3@@0@Z 1002230b f i libvcruntime:trnsctrl.obj
 0001:0002132f       ??$forward@AAViterator@TryBlockMap@__FrameHandler3@@@std@@YAAAViterator@TryBlockMap@__FrameHandler3@@AAV123@@Z 1002232f f i libvcruntime:trnsctrl.obj
 0001:00021337       ??0iterator@TryBlockMap@__FrameHandler3@@QAE@AAV12@I@Z 10022337 f i libvcruntime:trnsctrl.obj
 0001:0002134b       ?GetRangeOfTrysToCheck@__FrameHandler3@@SA?AU?$pair@Viterator@TryBlockMap@__FrameHandler3@@V123@@std@@AAVTryBlockMap@1@HPAXPBU_s_FuncInfo@@H@Z 1002234b f   libvcruntime:trnsctrl.obj
 0001:000213bb       ?_CallCatchBlock2@@YAPAXPAUEHRegistrationNode@@PBU_s_FuncInfo@@PAXHK@Z 100223bb f   libvcruntime:trnsctrl.obj
 0001:00021418       ?_CallSETranslator@@YAHPAUEHExceptionRecord@@PAUEHRegistrationNode@@PAX2PBU_s_FuncInfo@@H1@Z 10022418 f   libvcruntime:trnsctrl.obj
 0001:0002150e       ?_JumpToContinuation@@YGXPAXPAUEHRegistrationNode@@@Z 1002250e f   libvcruntime:trnsctrl.obj
 0001:0002153e       ?_UnwindNestedFrames@@YGXPAUEHRegistrationNode@@PAUEHExceptionRecord@@@Z 1002253e f   libvcruntime:trnsctrl.obj
 0001:00021591       __CatchGuardHandler        10022591 f   libvcruntime:trnsctrl.obj
 0001:000215c2       __CreateFrameInfo          100225c2 f   libvcruntime:trnsctrl.obj
 0001:000215e6       __FindAndUnlinkFrame       100225e6 f   libvcruntime:trnsctrl.obj
 0001:0002162e       __TranslatorGuardHandler   1002262e f   libvcruntime:trnsctrl.obj
 0001:000216cb       ___CxxFrameHandler         100226cb f   libvcruntime:trnsctrl.obj
 0001:00021701       ___CxxFrameHandler2        10022701 f   libvcruntime:trnsctrl.obj
 0001:00021737       ___CxxFrameHandler3        10022737 f   libvcruntime:trnsctrl.obj
 0001:0002176d       ___CxxLongjmpUnwind@4      1002276d f   libvcruntime:trnsctrl.obj
 0001:00021792       ??$__crt_interlocked_exchange_pointer@UHINSTANCE__@@PAU1@@@YAPAUHINSTANCE__@@PDSAU0@QAU0@@Z 10022792 f i libvcruntime:winapi_downlevel.obj
 0001:0002179f       ??$__crt_interlocked_exchange_pointer@UHINSTANCE__@@PAX@@YAPAUHINSTANCE__@@PDSAU0@QAX@Z 1002279f f i libvcruntime:winapi_downlevel.obj
 0001:000217ac       ??$__crt_interlocked_exchange_pointer@XPAX@@YAPAXPDSAXQAX@Z 100227ac f i libvcruntime:winapi_downlevel.obj
 0001:000217b9       ??$__crt_interlocked_read_pointer@UHINSTANCE__@@@@YAPAUHINSTANCE__@@PDSAU0@@Z 100227b9 f i libvcruntime:winapi_downlevel.obj
 0001:000217c3       ??$__crt_interlocked_read_pointer@X@@YAPAXPDSAX@Z 100227c3 f i libvcruntime:winapi_downlevel.obj
 0001:000219f2       ___vcrt_FlsAlloc           100229f2 f   libvcruntime:winapi_downlevel.obj
 0001:00021a2d       ___vcrt_FlsFree            10022a2d f   libvcruntime:winapi_downlevel.obj
 0001:00021a68       ___vcrt_FlsGetValue        10022a68 f   libvcruntime:winapi_downlevel.obj
 0001:00021aa3       ___vcrt_FlsSetValue        10022aa3 f   libvcruntime:winapi_downlevel.obj
 0001:00021ae1       ___vcrt_InitializeCriticalSectionEx 10022ae1 f   libvcruntime:winapi_downlevel.obj
 0001:0002225f       ??$TypeMatchHelper@V__FrameHandler3@@@@YAHPBU_s_HandlerType@@PBU_s_CatchableType@@PBU_s_ThrowInfo@@@Z 1002325f f i libvcruntime:frame.obj
 0001:000222ed       ??$__InternalCxxFrameHandler@V__FrameHandler3@@@@YA?AW4_EXCEPTION_DISPOSITION@@PAUEHExceptionRecord@@PAUEHRegistrationNode@@PAU_CONTEXT@@PAXPBU_s_FuncInfo@@H1E@Z 100232ed f i libvcruntime:frame.obj
 0001:000223ef       ??0HandlerMap@__FrameHandler3@@QAE@PBU_s_TryBlockMapEntry@@II@Z 100233ef f i libvcruntime:frame.obj
 0001:00022406       ??0TryBlockMap@__FrameHandler3@@QAE@PBU_s_FuncInfo@@I@Z 10023406 f i libvcruntime:frame.obj
 0001:0002241a       ??0bad_exception@std@@QAE@ABV01@@Z 1002341a f i libvcruntime:frame.obj
 0001:00022435       ??0bad_exception@std@@QAE@XZ 10023435 f i libvcruntime:frame.obj
 0001:0002244d       ??0exception@std@@QAE@ABV01@@Z 1002344d f i libvcruntime:frame.obj
 0001:00022479       ??0exception@std@@QAE@QBDH@Z 10023479 f i libvcruntime:frame.obj
 0001:00022496       ??0iterator@HandlerMap@__FrameHandler3@@QAE@AAV12@I@Z 10023496 f i libvcruntime:frame.obj
 0001:000224aa       ??1bad_exception@std@@UAE@XZ 100234aa f i libvcruntime:frame.obj
 0001:000224bb       ??1exception@std@@UAE@XZ   100234bb f i libvcruntime:frame.obj
 0001:000224cc       ??8iterator@HandlerMap@__FrameHandler3@@QBE_NABV012@@Z 100234cc f i libvcruntime:frame.obj
 0001:000224df       ??8type_info@@QBE_NABV0@@Z 100234df f i libvcruntime:frame.obj
 0001:000224fe       ??9iterator@HandlerMap@__FrameHandler3@@QBE_NABV012@@Z 100234fe f i libvcruntime:frame.obj
 0001:00022511       ??Diterator@HandlerMap@__FrameHandler3@@QAE?BU_s_HandlerType@@XZ 10023511 f i libvcruntime:frame.obj
 0001:00022530       ??Diterator@TryBlockMap@__FrameHandler3@@QAE?BU_s_TryBlockMapEntry@@XZ 10023530 f i libvcruntime:frame.obj
 0001:00022552       ??Eiterator@HandlerMap@__FrameHandler3@@QAEAAV012@XZ 10023552 f i libvcruntime:frame.obj
 0001:00022558       ??Eiterator@TryBlockMap@__FrameHandler3@@QAEAAV012@XZ 10023558 f i libvcruntime:frame.obj
 0001:0002255e       ??Miterator@TryBlockMap@__FrameHandler3@@QBE_NABV012@@Z 1002355e f i libvcruntime:frame.obj
 0001:00022571       ??_Gbad_exception@std@@UAEPAXI@Z 10023571 f i libvcruntime:frame.obj
 0001:00022571       ??_Ebad_exception@std@@UAEPAXI@Z 10023571 f i libvcruntime:frame.obj
 0001:0002259e       ??_Gexception@std@@UAEPAXI@Z 1002359e f i libvcruntime:frame.obj
 0001:0002259e       ??_Eexception@std@@UAEPAXI@Z 1002359e f i libvcruntime:frame.obj
 0001:000225cb       ?BuildCatchObject@__FrameHandler3@@SAXPAUEHExceptionRecord@@PAXPBU_s_HandlerType@@PBU_s_CatchableType@@@Z 100235cb f   libvcruntime:frame.obj
 0001:000225d0       ?BuildCatchObjectHelper@__FrameHandler3@@SAHPAUEHExceptionRecord@@PAXPBU_s_HandlerType@@PBU_s_CatchableType@@@Z 100235d0 f   libvcruntime:frame.obj
 0001:00022826       ?FrameUnwindToEmptyState@__FrameHandler3@@SAXPAUEHRegistrationNode@@PAXPBU_s_FuncInfo@@@Z 10023826 f   libvcruntime:frame.obj
 0001:0002283e       ?FrameUnwindToState@__FrameHandler3@@SAXPAUEHRegistrationNode@@PAXPBU_s_FuncInfo@@H@Z 1002383e f   libvcruntime:frame.obj
 0001:00022926       ?GetMaxState@__FrameHandler3@@SAHPAXPBU_s_FuncInfo@@@Z 10023926 f i libvcruntime:frame.obj
 0001:00022a04       ?TypeMatch@__FrameHandler3@@SAHPBU_s_HandlerType@@PBU_s_CatchableType@@PBU_s_ThrowInfo@@@Z 10023a04 f   libvcruntime:frame.obj
 0001:00022a0d       ?_CallMemberFunction1@@YGXQAX00@Z 10023a0d f i libvcruntime:frame.obj
 0001:00022a1d       ?_CallMemberFunction2@@YGXQAX00H@Z 10023a1d f i libvcruntime:frame.obj
 0001:00022a30       ?begin@HandlerMap@__FrameHandler3@@QAE?AViterator@12@XZ 10023a30 f i libvcruntime:frame.obj
 0001:00022a40       ?end@HandlerMap@__FrameHandler3@@QAE?AViterator@12@XZ 10023a40 f i libvcruntime:frame.obj
 0001:00022a51       ?getESTypes@__FrameHandler3@@SAPBU_s_ESTypeList@@PBU_s_FuncInfo@@@Z 10023a51 f i libvcruntime:frame.obj
 0001:00022a5c       ?getLastEntry@HandlerMap@__FrameHandler3@@QAEPBU_s_HandlerType@@XZ 10023a5c f i libvcruntime:frame.obj
 0001:00022a6a       ?getMagicNum@__FrameHandler3@@SAIPBU_s_FuncInfo@@@Z 10023a6a f i libvcruntime:frame.obj
 0001:00022a79       ?getNumTryBlocks@TryBlockMap@__FrameHandler3@@QAEIXZ 10023a79 f i libvcruntime:frame.obj
 0001:00022a7f       ?isEHs@__FrameHandler3@@SA_NPBU_s_FuncInfo@@@Z 10023a7f f i libvcruntime:frame.obj
 0001:00022a8c       ?isNoExcept@__FrameHandler3@@SA_NPBU_s_FuncInfo@@@Z 10023a8c f i libvcruntime:frame.obj
 0001:00022a9c       ?what@exception@std@@UBEPBDXZ 10023a9c f i libvcruntime:frame.obj
 0001:00022aa9       ___BuildCatchObject        10023aa9 f   libvcruntime:frame.obj
 0001:00022aae       ___BuildCatchObjectHelper  10023aae f   libvcruntime:frame.obj
 0001:00022ab7       ___TypeMatch               10023ab7 f   libvcruntime:frame.obj
 0001:00022ac0       ___vcrt_EncodePointer      10023ac0 f i libvcruntime:frame.obj
 0001:00022ad0       __CallSettingFrame@12      10023ad0 f   libvcruntime:lowhelpr.obj
 0001:00022af7       __NLG_Return               10023af7     libvcruntime:lowhelpr.obj
 0001:00022b30       __get_unexpected           10023b30 f   libvcruntime:unexpected.obj
 0001:00022b42       _set_unexpected            10023b42 f   libvcruntime:unexpected.obj
 0001:00022b60       _unexpected                10023b60 f   libvcruntime:unexpected.obj
 0001:00022b7d       ?GetCurrentState@__FrameHandler3@@SAHPAUEHRegistrationNode@@PAXPBU_s_FuncInfo@@@Z 10023b7d f   libvcruntime:ehstate.obj
 0001:00022b9a       ?SetState@__FrameHandler3@@SAXPAUEHRegistrationNode@@PBU_s_FuncInfo@@H@Z 10023b9a f   libvcruntime:ehstate.obj
 0001:00022ba8       ??$?RD@__crt_public_free_policy@@QBEXQBD@Z 10023ba8 f i libvcruntime:std_exception.obj
 0001:00022bb8       ??0?$__crt_unique_heap_ptr@DU__crt_public_free_policy@@@@QAE@QAD@Z 10023bb8 f i libvcruntime:std_exception.obj
 0001:00022bc6       ??1?$__crt_unique_heap_ptr@DU__crt_public_free_policy@@@@QAE@XZ 10023bc6 f i libvcruntime:std_exception.obj
 0001:00022bd6       ??B?$__crt_unique_heap_ptr@DU__crt_public_free_policy@@@@QBE_NXZ 10023bd6 f i libvcruntime:std_exception.obj
 0001:00022bdd       ?detach@?$__crt_unique_heap_ptr@DU__crt_public_free_policy@@@@QAEPADXZ 10023bdd f i libvcruntime:std_exception.obj
 0001:00022be3       ?get@?$__crt_unique_heap_ptr@DU__crt_public_free_policy@@@@QBEPADXZ 10023be3 f i libvcruntime:std_exception.obj
 0001:00022be6       ?is_valid@?$__crt_unique_heap_ptr@DU__crt_public_free_policy@@@@QBE_NXZ 10023be6 f i libvcruntime:std_exception.obj
 0001:00022bed       ?release@?$__crt_unique_heap_ptr@DU__crt_public_free_policy@@@@QAEXXZ 10023bed f i libvcruntime:std_exception.obj
 0001:00022bfd       ___std_exception_copy      10023bfd f   libvcruntime:std_exception.obj
 0001:00022c60       ___std_exception_destroy   10023c60 f   libvcruntime:std_exception.obj
 0001:00022c7f       __CxxThrowException@8      10023c7f f   libvcruntime:throw.obj
 0001:00022cf0       _memmove                   10023cf0 f   libvcruntime:memmove.obj
 0001:00023270       __libm_sse2_cos_precise    10024270 f   libucrt:cos_sse2_precise.obj
 0001:00023430       __libm_sse2_sin_precise    10024430 f   libucrt:sin_sse2_precise.obj
 0001:00023600       __libm_sse2_sqrt_precise   10024600 f   libucrt:sqrt_sse2_precise.obj
 0001:000238c2       ??$?R_W@__crt_public_free_policy@@QBEXQB_W@Z 100248c2 f i libucrt:stat.obj
 0001:000238d4       ??$__acrt_convert_wcs_mbs_cp@D_WV<lambda_62f6974d9771e494a5ea317cc32e971c>@@U__crt_win32_buffer_internal_dynamic_resizing@@@@YAHQBDAAV?$__crt_win32_buffer@_WU__crt_win32_buffer_internal_dynamic_resizing@@@@ABV<lambda_62f6974d9771e494a5ea317cc32e971c>@@I@Z 100248d4 f i libucrt:stat.obj
 0001:00023a1e       ??$__acrt_mbs_to_wcs_cp@U__crt_win32_buffer_internal_dynamic_resizing@@@@YAHQBDAAV?$__crt_win32_buffer@_WU__crt_win32_buffer_internal_dynamic_resizing@@@@I@Z 10024a1e f i libucrt:stat.obj
 0001:00024c30       ??$loctotime@AAGAAGAAGAAGAAGAAGH@?$__crt_integer_traits@J@@SAJAAG00000$$QAH@Z 10025c30 f i libucrt:stat.obj
 0001:00024c6e       ??$loctotime@AAGAAGAAGAAGAAGAAGH@?$__crt_integer_traits@_J@@SA_JAAG00000$$QAH@Z 10025c6e f i libucrt:stat.obj
 0001:00024cac       ??$loctotime@HHHHHHH@?$__crt_integer_traits@J@@SAJ$$QAH000000@Z 10025cac f i libucrt:stat.obj
 0001:00024cde       ??$loctotime@HHHHHHH@?$__crt_integer_traits@_J@@SA_J$$QAH000000@Z 10025cde f i libucrt:stat.obj
 0001:00024df8       ??0?$__crt_unique_handle_t@U__crt_handle_traits@@@@QAE@QAX@Z 10025df8 f i libucrt:stat.obj
 0001:00024e08       ??0?$__crt_unique_heap_ptr@_WU__crt_public_free_policy@@@@QAE@QA_W@Z 10025e08 f i libucrt:stat.obj
 0001:00024e18       ??0?$__crt_win32_buffer@_WU__crt_win32_buffer_internal_dynamic_resizing@@@@QAE@XZ 10025e18 f i libucrt:stat.obj
 0001:00024e2e       ??0_LocaleUpdate@@QAE@QAU__crt_locale_pointers@@@Z 10025e2e f i libucrt:stat.obj
 0001:00024eb1       ??1?$__crt_unique_handle_t@U__crt_handle_traits@@@@QAE@XZ 10025eb1 f i libucrt:stat.obj
 0001:00024ec8       ??1?$__crt_unique_heap_ptr@_WU__crt_public_free_policy@@@@QAE@XZ 10025ec8 f i libucrt:stat.obj
 0001:00024eda       ??1?$__crt_win32_buffer@_WU__crt_win32_buffer_internal_dynamic_resizing@@@@QAE@XZ 10025eda f i libucrt:stat.obj
 0001:00024edf       ??1_LocaleUpdate@@QAE@XZ   10025edf f i libucrt:stat.obj
 0001:00024eef       ??B?$__crt_unique_handle_t@U__crt_handle_traits@@@@QBE_NXZ 10025eef f i libucrt:stat.obj
 0001:00025085       ??R<lambda_62f6974d9771e494a5ea317cc32e971c>@@QBEHIQBDQA_WI@Z 10026085 f i libucrt:stat.obj
 0001:00025139       ?GetLocaleT@_LocaleUpdate@@QAEPAU__crt_locale_pointers@@XZ 10026139 f i libucrt:stat.obj
 0001:0002513d       ?__acrt_get_utf8_acp_compatibility_codepage@@YAIXZ 1002613d f i libucrt:stat.obj
 0001:0002517c       ?_deallocate@?$__crt_win32_buffer@_WU__crt_win32_buffer_internal_dynamic_resizing@@@@AAEXXZ 1002617c f i libucrt:stat.obj
 0001:00025196       ?allocate@?$__crt_win32_buffer@_WU__crt_win32_buffer_internal_dynamic_resizing@@@@QAEHI@Z 10026196 f i libucrt:stat.obj
 0001:000251d5       ?allocate@__crt_win32_buffer_internal_dynamic_resizing@@SAHQAPAXIABV__crt_win32_buffer_empty_debug_info@@@Z 100261d5 f i libucrt:stat.obj
 0001:00025254       ?capacity@?$__crt_win32_buffer@_WU__crt_win32_buffer_internal_dynamic_resizing@@@@QBEIXZ 10026254 f i libucrt:stat.obj
 0001:00025258       ?close@?$__crt_unique_handle_t@U__crt_handle_traits@@@@QAEXXZ 10026258 f i libucrt:stat.obj
 0001:0002526f       ?close@__crt_handle_traits@@SA_NPAX@Z 1002626f f i libucrt:stat.obj
 0001:000253a4       ?data@?$__crt_win32_buffer@_WU__crt_win32_buffer_internal_dynamic_resizing@@@@QAEPA_WXZ 100263a4 f i libucrt:stat.obj
 0001:000253a8       ?deallocate@__crt_win32_buffer_internal_dynamic_resizing@@SAXQAXABV__crt_win32_buffer_empty_debug_info@@@Z 100263a8 f i libucrt:stat.obj
 0001:000253b8       ?debug_info@?$__crt_win32_buffer@_WU__crt_win32_buffer_internal_dynamic_resizing@@@@QBEABV__crt_win32_buffer_empty_debug_info@@XZ 100263b8 f i libucrt:stat.obj
 0001:000253bb       ?get@?$__crt_unique_handle_t@U__crt_handle_traits@@@@QBEPAXXZ 100263bb f i libucrt:stat.obj
 0001:000253be       ?get_address_of@?$__crt_unique_heap_ptr@_WU__crt_public_free_policy@@@@QAEPAPA_WXZ 100263be f i libucrt:stat.obj
 0001:0002541d       ?get_invalid_value@__crt_handle_traits@@SAPAXXZ 1002641d f i libucrt:stat.obj
 0001:00025664       ?is_valid@?$__crt_unique_handle_t@U__crt_handle_traits@@@@QBE_NXZ 10026664 f i libucrt:stat.obj
 0001:0002566b       ?release@?$__crt_unique_heap_ptr@_WU__crt_public_free_policy@@@@QAEXXZ 1002666b f i libucrt:stat.obj
 0001:0002567d       ?set_to_nullptr@?$__crt_win32_buffer@_WU__crt_win32_buffer_internal_dynamic_resizing@@@@QAEXXZ 1002667d f i libucrt:stat.obj
 0001:00025694       ?size@?$__crt_win32_buffer@_WU__crt_win32_buffer_internal_dynamic_resizing@@@@QAEXI@Z 10026694 f i libucrt:stat.obj
 0001:000256a3       ___acrt_disable_global_locale_sync 100266a3 f i libucrt:stat.obj
 0001:000256b6       ___acrt_enable_global_locale_sync 100266b6 f i libucrt:stat.obj
 0001:000256cb       ___acrt_locale_changed     100266cb f i libucrt:stat.obj
 0001:000256d6       ___ascii_iswalpha          100266d6 f i libucrt:stat.obj
 0001:000256f9       ___ascii_tolower           100266f9 f i libucrt:stat.obj
 0001:00025710       ___ascii_towlower          10026710 f i libucrt:stat.obj
 0001:00025727       __fstat32                  10026727 f   libucrt:stat.obj
 0001:00025732       __fstat32i64               10026732 f   libucrt:stat.obj
 0001:0002573d       __fstat64                  1002673d f   libucrt:stat.obj
 0001:00025748       __fstat64i32               10026748 f   libucrt:stat.obj
 0001:00025753       __stat32                   10026753 f   libucrt:stat.obj
 0001:0002575e       __stat32i64                1002675e f   libucrt:stat.obj
 0001:00025769       __stat64                   10026769 f   libucrt:stat.obj
 0001:00025774       __stat64i32                10026774 f   libucrt:stat.obj
 0001:0002577f       __wstat32                  1002677f f   libucrt:stat.obj
 0001:0002578a       __wstat32i64               1002678a f   libucrt:stat.obj
 0001:00025795       __wstat64                  10026795 f   libucrt:stat.obj
 0001:000257a0       __wstat64i32               100267a0 f   libucrt:stat.obj
 0001:000257ab       ?dangerous_get_state_array@?$dual_state_global@PAPAD@__crt_state_management@@QAEPAPAPADXZ 100267ab f i libucrt:timeset.obj
 0001:000257ae       ?dangerous_get_state_array@?$dual_state_global@PAPA_W@__crt_state_management@@QAEPAPAPA_WXZ 100267ae f i libucrt:timeset.obj
 0001:000257b1       ?get_current_state_index@__crt_state_management@@YAIXZ 100267b1 f i libucrt:timeset.obj
 0001:000257b4       ?initialize@?$dual_state_global@H@__crt_state_management@@QAEXH@Z 100267b4 f i libucrt:timeset.obj
 0001:000257d0       ?initialize@?$dual_state_global@J@__crt_state_management@@QAEXJ@Z 100267d0 f i libucrt:timeset.obj
 0001:000257ec       ?value@?$dual_state_global@H@__crt_state_management@@QAEAAHXZ 100267ec f i libucrt:timeset.obj
 0001:000257ef       ?value@?$dual_state_global@J@__crt_state_management@@QAEAAJXZ 100267ef f i libucrt:timeset.obj
 0001:000257f2       ?value@?$dual_state_global@PAPAD@__crt_state_management@@QAEAAPAPADXZ 100267f2 f i libucrt:timeset.obj
 0001:000257f5       ?value@?$dual_state_global@PAPA_W@__crt_state_management@@QAEAAPAPA_WXZ 100267f5 f i libucrt:timeset.obj
 0001:000257f8       ___acrt_initialize_timeset 100267f8 f   libucrt:timeset.obj
 0001:0002582d       ___daylight                1002682d f   libucrt:timeset.obj
 0001:00025833       ___dstbias                 10026833 f   libucrt:timeset.obj
 0001:00025839       ___timezone                10026839 f   libucrt:timeset.obj
 0001:0002583f       ___tzname                  1002683f f   libucrt:timeset.obj
 0001:00025845       ___wide_tzname             10026845 f   libucrt:timeset.obj
 0001:0002584b       __get_daylight             1002684b f   libucrt:timeset.obj
 0001:00025877       __get_dstbias              10026877 f   libucrt:timeset.obj
 0001:000258a3       __get_timezone             100268a3 f   libucrt:timeset.obj
 0001:000258cf       __get_tzname               100268cf f   libucrt:timeset.obj
 0001:00025985       ??$?R_W@__crt_internal_free_policy@@QBEXQB_W@Z 10026985 f i libucrt:tzset.obj
 0001:00025997       ??$__crt_interlocked_read@J@@YAJPDJ@Z 10026997 f i libucrt:tzset.obj
 0001:000259a4       ??$__crt_time_elapsed_leap_years@H@@YAHH@Z 100269a4 f i libucrt:tzset.obj
 0001:000259de       ??$__crt_time_is_leap_year@H@@YA_NH@Z 100269de f i libucrt:tzset.obj
 0001:00025a20       ??0?$__crt_unique_heap_ptr@_WU__crt_internal_free_policy@@@@QAE@QA_W@Z 10026a20 f i libucrt:tzset.obj
 0001:00025a30       ??1?$__crt_unique_heap_ptr@_WU__crt_internal_free_policy@@@@QAE@XZ 10026a30 f i libucrt:tzset.obj
 0001:00025a42       ??B?$__crt_unique_heap_ptr@_WU__crt_internal_free_policy@@@@QBE_NXZ 10026a42 f i libucrt:tzset.obj
 0001:00025c63       ?_set_daylight@@YAXH@Z     10026c63 f i libucrt:tzset.obj
 0001:00025c74       ?_set_dstbias@@YAXJ@Z      10026c74 f i libucrt:tzset.obj
 0001:00025c85       ?_set_timezone@@YAXJ@Z     10026c85 f i libucrt:tzset.obj
 0001:00025dd6       ?dangerous_get_state_array@?$dual_state_global@J@__crt_state_management@@QAEPAJXZ 10026dd6 f i libucrt:tzset.obj
 0001:00025dd9       ?detach@?$__crt_unique_heap_ptr@_WU__crt_internal_free_policy@@@@QAEPA_WXZ 10026dd9 f i libucrt:tzset.obj
 0001:00025ddf       ?get@?$__crt_unique_heap_ptr@_WU__crt_internal_free_policy@@@@QBEPA_WXZ 10026ddf f i libucrt:tzset.obj
 0001:00025e59       ?is_valid@?$__crt_unique_heap_ptr@_WU__crt_internal_free_policy@@@@QBE_NXZ 10026e59 f i libucrt:tzset.obj
 0001:00025e60       ?release@?$__crt_unique_heap_ptr@_WU__crt_internal_free_policy@@@@QAEXXZ 10026e60 f i libucrt:tzset.obj
 0001:0002635d       ___tzset                   1002735d f   libucrt:tzset.obj
 0001:000263ba       __invoke_watson_if_error   100273ba f i libucrt:tzset.obj
 0001:000263dc       __isindst                  100273dc f   libucrt:tzset.obj
 0001:00026430       __tzset                    10027430 f   libucrt:tzset.obj
 0001:00026472       ??$?B$$A6GXPAXK0@Z@__crt_fast_encoded_nullptr_t@@QBEP6GXPAXK0@ZXZ 10027472 f i libucrt:exit.obj
 0001:0002651a       ??$__crt_fast_decode_pointer@P6GXPAXK0@Z@@YAP6GXPAXK0@ZQ6GX0K0@Z@Z 1002751a f i libucrt:exit.obj
 0001:00026530       ??$__crt_fast_encode_pointer@P6GXPAXK0@Z@@YAP6GXPAXK0@ZQ6GX0K0@Z@Z 10027530 f i libucrt:exit.obj
 0001:0002654f       ??$__crt_get_proc_address@P6GXI@Z@@YAP6GXI@ZQAUHINSTANCE__@@QBD@Z 1002754f f i libucrt:exit.obj
 0001:000265a2       ??0?$__crt_unique_handle_t@U__crt_hmodule_traits@@@@QAE@QAUHINSTANCE__@@@Z 100275a2 f i libucrt:exit.obj
 0001:000265b2       ??1?$__crt_unique_handle_t@U__crt_hmodule_traits@@@@QAE@XZ 100275b2 f i libucrt:exit.obj
 0001:000266c6       ?__acrt_select_exit_lock@@YA?AW4__acrt_lock_id@@XZ 100276c6 f i libucrt:exit.obj
 0001:000266ca       ?__crt_fast_encode_pointer@@YA?AU__crt_fast_encoded_nullptr_t@@$$T@Z 100276ca f i libucrt:exit.obj
 0001:000266d5       ?__crt_rotate_pointer_value@@YAIIH@Z 100276d5 f i libucrt:exit.obj
 0001:000266f7       ?close@?$__crt_unique_handle_t@U__crt_hmodule_traits@@@@QAEXXZ 100276f7 f i libucrt:exit.obj
 0001:0002670e       ?close@__crt_hmodule_traits@@SA_NPAUHINSTANCE__@@@Z 1002770e f i libucrt:exit.obj
 0001:000267eb       ?get@?$__crt_unique_handle_t@U__crt_hmodule_traits@@@@QBEPAUHINSTANCE__@@XZ 100277eb f i libucrt:exit.obj
 0001:000267ee       ?get_address_of@?$__crt_unique_handle_t@U__crt_hmodule_traits@@@@QAEPAPAUHINSTANCE__@@XZ 100277ee f i libucrt:exit.obj
 0001:000267f1       ?get_invalid_value@__crt_hmodule_traits@@SAPAUHINSTANCE__@@XZ 100277f1 f i libucrt:exit.obj
 0001:000268db       __Exit                     100278db f   libucrt:exit.obj
 0001:000268f1       ___acrt_initialize_thread_local_exit_callback 100278f1 f   libucrt:exit.obj
 0001:00026900       __c_exit                   10027900 f   libucrt:exit.obj
 0001:0002690f       __cexit                    1002790f f   libucrt:exit.obj
 0001:0002691e       __exit                     1002791e f   libucrt:exit.obj
 0001:00026934       __is_c_termination_complete 10027934 f   libucrt:exit.obj
 0001:0002693b       __register_thread_local_exe_atexit_callback 1002793b f   libucrt:exit.obj
 0001:00026961       _exit                      10027961 f   libucrt:exit.obj
 0001:00026977       _quick_exit                10027977 f   libucrt:exit.obj
 0001:00026fb4       ??$get_or_create_environment_nolock@$$V@?$__crt_char_traits@D@@SAPAPADXZ 10027fb4 f i libucrt:getenv.obj
 0001:00026fb9       ??$get_or_create_environment_nolock@$$V@?$__crt_char_traits@_W@@SAPAPA_WXZ 10027fb9 f i libucrt:getenv.obj
 0001:00026fbe       ??$tcscpy_s@AAPADABIABQBD@?$__crt_char_traits@D@@SAHAAPADABIABQBD@Z 10027fbe f i libucrt:getenv.obj
 0001:00026fdc       ??$tcscpy_s@AAPA_WABIABQB_W@?$__crt_char_traits@_W@@SAHAAPA_WABIABQB_W@Z 10027fdc f i libucrt:getenv.obj
 0001:00026ffa       ??$tcscpy_s@ABQADABIABQBD@?$__crt_char_traits@D@@SAHABQADABIABQBD@Z 10027ffa f i libucrt:getenv.obj
 0001:00027018       ??$tcscpy_s@ABQA_WABIABQB_W@?$__crt_char_traits@_W@@SAHABQA_WABIABQB_W@Z 10028018 f i libucrt:getenv.obj
 0001:00027036       ??$tcslen@AAPAD@?$__crt_char_traits@D@@SAIAAPAD@Z 10028036 f i libucrt:getenv.obj
 0001:0002704e       ??$tcslen@AAPA_W@?$__crt_char_traits@_W@@SAIAAPA_W@Z 1002804e f i libucrt:getenv.obj
 0001:0002706c       ??$tcslen@ABQBD@?$__crt_char_traits@D@@SAIABQBD@Z 1002806c f i libucrt:getenv.obj
 0001:00027084       ??$tcslen@ABQB_W@?$__crt_char_traits@_W@@SAIABQB_W@Z 10028084 f i libucrt:getenv.obj
 0001:000270a2       ??$tcsnicoll@AAPADABQBDABI@?$__crt_char_traits@D@@SAHAAPADABQBDABI@Z 100280a2 f i libucrt:getenv.obj
 0001:000270c0       ??$tcsnicoll@AAPA_WABQB_WABI@?$__crt_char_traits@_W@@SAHAAPA_WABQB_WABI@Z 100280c0 f i libucrt:getenv.obj
 0001:000270de       ??$tcsnlen@ABQBDH@?$__crt_char_traits@D@@SAIABQBD$$QAH@Z 100280de f i libucrt:getenv.obj
 0001:000270f6       ??$tcsnlen@ABQB_WH@?$__crt_char_traits@_W@@SAIABQB_W$$QAH@Z 100280f6 f i libucrt:getenv.obj
 0001:0002710e       __dupenv_s                 1002810e f   libucrt:getenv.obj
 0001:0002712c       __wdupenv_s                1002812c f   libucrt:getenv.obj
 0001:0002714a       __wgetenv                  1002814a f   libucrt:getenv.obj
 0001:00027155       __wgetenv_s                10028155 f   libucrt:getenv.obj
 0001:00027160       _getenv                    10028160 f   libucrt:getenv.obj
 0001:0002716b       _getenv_s                  1002816b f   libucrt:getenv.obj
 0001:00027176       ??$?RPAU__crt_stdio_stream_data@@@__crt_internal_free_policy@@QBEXQBQAU__crt_stdio_stream_data@@@Z 10028176 f i libucrt:_file.obj
 0001:00027188       ??0?$__crt_unique_heap_ptr@PAU__crt_stdio_stream_data@@U__crt_internal_free_policy@@@@QAE@QAPAU__crt_stdio_stream_data@@@Z 10028188 f i libucrt:_file.obj
 0001:00027198       ??0__crt_stdio_stream@@QAE@QAU_iobuf@@@Z 10028198 f i libucrt:_file.obj
 0001:000271a8       ??1?$__crt_unique_heap_ptr@PAU__crt_stdio_stream_data@@U__crt_internal_free_policy@@@@QAE@XZ 100281a8 f i libucrt:_file.obj
 0001:000271ba       ??C__crt_stdio_stream@@QBEPAU__crt_stdio_stream_data@@XZ 100281ba f i libucrt:_file.obj
 0001:000271bd       ?detach@?$__crt_unique_heap_ptr@PAU__crt_stdio_stream_data@@U__crt_internal_free_policy@@@@QAEPAPAU__crt_stdio_stream_data@@XZ 100281bd f i libucrt:_file.obj
 0001:000271c3       ?release@?$__crt_unique_heap_ptr@PAU__crt_stdio_stream_data@@U__crt_internal_free_policy@@@@QAEXXZ 100281c3 f i libucrt:_file.obj
 0001:000271d5       ___acrt_initialize_stdio   100281d5 f   libucrt:_file.obj
 0001:0002729d       ___acrt_iob_func           1002829d f   libucrt:_file.obj
 0001:000272ad       ___acrt_uninitialize_stdio 100282ad f   libucrt:_file.obj
 0001:000272f9       __get_stream_buffer_pointers 100282f9 f   libucrt:_file.obj
 0001:0002733f       __lock_file                1002833f f   libucrt:_file.obj
 0001:00027353       __unlock_file              10028353 f   libucrt:_file.obj
 0001:00027562       ??$open_file@ABQBDABQBDABHPAU_iobuf@@@?$__crt_char_traits@D@@SAPAU_iobuf@@ABQBD0ABH$$QAPAU1@@Z 10028562 f i libucrt:fopen.obj
 0001:00027585       ??$open_file@ABQB_WABQB_WABHPAU_iobuf@@@?$__crt_char_traits@_W@@SAPAU_iobuf@@ABQB_W0ABH$$QAPAU1@@Z 10028585 f i libucrt:fopen.obj
 0001:000275a8       ?public_stream@__crt_stdio_stream@@QBEPAU_iobuf@@XZ 100285a8 f i libucrt:fopen.obj
 0001:000275ab       ?unlock@__crt_stdio_stream@@QBEXXZ 100285ab f i libucrt:fopen.obj
 0001:000275b4       ?valid@__crt_stdio_stream@@QBE_NXZ 100285b4 f i libucrt:fopen.obj
 0001:000275bb       __fsopen                   100285bb f   libucrt:fopen.obj
 0001:000275c6       __wfopen                   100285c6 f   libucrt:fopen.obj
 0001:000275dd       __wfopen_s                 100285dd f   libucrt:fopen.obj
 0001:00027624       __wfsopen                  10028624 f   libucrt:fopen.obj
 0001:0002762f       _fopen                     1002862f f   libucrt:fopen.obj
 0001:00027646       _fopen_s                   10028646 f   libucrt:fopen.obj
 0001:0002789e       ?get_flags@__crt_stdio_stream@@QBEJXZ 1002889e f i libucrt:freopen.obj
 0001:000278a5       ?is_in_use@__crt_stdio_stream@@QBE_NXZ 100288a5 f i libucrt:freopen.obj
 0001:000278b1       ?set_flags@__crt_stdio_stream@@QBE_NJ@Z 100288b1 f i libucrt:freopen.obj
 0001:000278d5       ?unset_flags@__crt_stdio_stream@@QBE_NJ@Z 100288d5 f i libucrt:freopen.obj
 0001:000278fe       __wfreopen                 100288fe f   libucrt:freopen.obj
 0001:00027924       __wfreopen_s               10028924 f   libucrt:freopen.obj
 0001:00027944       _freopen                   10028944 f   libucrt:freopen.obj
 0001:0002796a       _freopen_s                 1002896a f   libucrt:freopen.obj
 0001:0002798a       ??$?0ABV?$stream_output_adapter@D@__crt_stdio_output@@AB_KABQBDAAV__crt_cached_ptd_host@@ABQAD@?$format_validation_base@DV?$stream_output_adapter@D@__crt_stdio_output@@@__crt_stdio_output@@IAE@ABV?$stream_output_adapter@D@1@AB_KABQBDAAV__crt_cached_ptd_host@@ABQAD@Z 1002898a f i libucrt:output.obj
 0001:000279ad       ??$?0ABV?$stream_output_adapter@D@__crt_stdio_output@@AB_KABQBDAAV__crt_cached_ptd_host@@ABQAD@?$positional_parameter_base@DV?$stream_output_adapter@D@__crt_stdio_output@@@__crt_stdio_output@@IAE@ABV?$stream_output_adapter@D@1@AB_KABQBDAAV__crt_cached_ptd_host@@ABQAD@Z 100289ad f i libucrt:output.obj
 0001:000279f5       ??$?0ABV?$stream_output_adapter@D@__crt_stdio_output@@AB_KABQBDAAV__crt_cached_ptd_host@@ABQAD@?$standard_base@DV?$stream_output_adapter@D@__crt_stdio_output@@@__crt_stdio_output@@IAE@ABV?$stream_output_adapter@D@1@AB_KABQBDAAV__crt_cached_ptd_host@@ABQAD@Z 100289f5 f i libucrt:output.obj
 0001:00027a28       ??$?0ABV?$stream_output_adapter@_W@__crt_stdio_output@@AB_KABQB_WAAV__crt_cached_ptd_host@@ABQAD@?$format_validation_base@_WV?$stream_output_adapter@_W@__crt_stdio_output@@@__crt_stdio_output@@IAE@ABV?$stream_output_adapter@_W@1@AB_KABQB_WAAV__crt_cached_ptd_host@@ABQAD@Z 10028a28 f i libucrt:output.obj
 0001:00027a4b       ??$?0ABV?$stream_output_adapter@_W@__crt_stdio_output@@AB_KABQB_WAAV__crt_cached_ptd_host@@ABQAD@?$positional_parameter_base@_WV?$stream_output_adapter@_W@__crt_stdio_output@@@__crt_stdio_output@@IAE@ABV?$stream_output_adapter@_W@1@AB_KABQB_WAAV__crt_cached_ptd_host@@ABQAD@Z 10028a4b f i libucrt:output.obj
 0001:00027a93       ??$?0ABV?$stream_output_adapter@_W@__crt_stdio_output@@AB_KABQB_WAAV__crt_cached_ptd_host@@ABQAD@?$standard_base@_WV?$stream_output_adapter@_W@__crt_stdio_output@@@__crt_stdio_output@@IAE@ABV?$stream_output_adapter@_W@1@AB_KABQB_WAAV__crt_cached_ptd_host@@ABQAD@Z 10028a93 f i libucrt:output.obj
 0001:00027ac6       ??$?0ABV?$string_output_adapter@D@__crt_stdio_output@@AB_KABQBDAAV__crt_cached_ptd_host@@ABQAD@?$format_validation_base@DV?$string_output_adapter@D@__crt_stdio_output@@@__crt_stdio_output@@IAE@ABV?$string_output_adapter@D@1@AB_KABQBDAAV__crt_cached_ptd_host@@ABQAD@Z 10028ac6 f i libucrt:output.obj
 0001:00027ae9       ??$?0ABV?$string_output_adapter@D@__crt_stdio_output@@AB_KABQBDAAV__crt_cached_ptd_host@@ABQAD@?$positional_parameter_base@DV?$string_output_adapter@D@__crt_stdio_output@@@__crt_stdio_output@@IAE@ABV?$string_output_adapter@D@1@AB_KABQBDAAV__crt_cached_ptd_host@@ABQAD@Z 10028ae9 f i libucrt:output.obj
 0001:00027b31       ??$?0ABV?$string_output_adapter@D@__crt_stdio_output@@AB_KABQBDAAV__crt_cached_ptd_host@@ABQAD@?$standard_base@DV?$string_output_adapter@D@__crt_stdio_output@@@__crt_stdio_output@@IAE@ABV?$string_output_adapter@D@1@AB_KABQBDAAV__crt_cached_ptd_host@@ABQAD@Z 10028b31 f i libucrt:output.obj
 0001:00027b64       ??$?0ABV?$string_output_adapter@_W@__crt_stdio_output@@AB_KABQB_WAAV__crt_cached_ptd_host@@ABQAD@?$format_validation_base@_WV?$string_output_adapter@_W@__crt_stdio_output@@@__crt_stdio_output@@IAE@ABV?$string_output_adapter@_W@1@AB_KABQB_WAAV__crt_cached_ptd_host@@ABQAD@Z 10028b64 f i libucrt:output.obj
 0001:00027b87       ??$?0ABV?$string_output_adapter@_W@__crt_stdio_output@@AB_KABQB_WAAV__crt_cached_ptd_host@@ABQAD@?$positional_parameter_base@_WV?$string_output_adapter@_W@__crt_stdio_output@@@__crt_stdio_output@@IAE@ABV?$string_output_adapter@_W@1@AB_KABQB_WAAV__crt_cached_ptd_host@@ABQAD@Z 10028b87 f i libucrt:output.obj
 0001:00027bcf       ??$?0ABV?$string_output_adapter@_W@__crt_stdio_output@@AB_KABQB_WAAV__crt_cached_ptd_host@@ABQAD@?$standard_base@_WV?$string_output_adapter@_W@__crt_stdio_output@@@__crt_stdio_output@@IAE@ABV?$string_output_adapter@_W@1@AB_KABQB_WAAV__crt_cached_ptd_host@@ABQAD@Z 10028bcf f i libucrt:output.obj
 0001:00027f08       ??$_tcstol_internal@DPAPAD$0A@@@YAJAAV__crt_cached_ptd_host@@QBDQAPADH@Z 10028f08 f i libucrt:output.obj
 0001:00027f33       ??$_tcstol_internal@_WPAPA_W$0A@@@YAJAAV__crt_cached_ptd_host@@QB_WQAPA_WH@Z 10028f33 f i libucrt:output.obj
 0001:00028e8d       ??$count@D@formatting_buffer@__crt_stdio_output@@QBEIXZ 10029e8d f i libucrt:output.obj
 0001:00028ea5       ??$count@_W@formatting_buffer@__crt_stdio_output@@QBEIXZ 10029ea5 f i libucrt:output.obj
 0001:00028ebe       ??$data@D@formatting_buffer@__crt_stdio_output@@QAEPADXZ 10029ebe f i libucrt:output.obj
 0001:00028ecb       ??$data@_W@formatting_buffer@__crt_stdio_output@@QAEPA_WXZ 10029ecb f i libucrt:output.obj
 0001:00028ed8       ??$ensure_buffer_is_big_enough@D@formatting_buffer@__crt_stdio_output@@QAE_NIAAV__crt_cached_ptd_host@@@Z 10029ed8 f i libucrt:output.obj
 0001:00028f59       ??$ensure_buffer_is_big_enough@_W@formatting_buffer@__crt_stdio_output@@QAE_NIAAV__crt_cached_ptd_host@@@Z 10029f59 f i libucrt:output.obj
 0001:00028fdb       ??$extract_argument_from_va_list@C_J@?$positional_parameter_base@DV?$stream_output_adapter@D@__crt_stdio_output@@@__crt_stdio_output@@IAE_NAA_J@Z 10029fdb f i libucrt:output.obj
 0001:00029063       ??$extract_argument_from_va_list@C_J@?$positional_parameter_base@DV?$string_output_adapter@D@__crt_stdio_output@@@__crt_stdio_output@@IAE_NAA_J@Z 1002a063 f i libucrt:output.obj
 0001:000290eb       ??$extract_argument_from_va_list@C_J@?$positional_parameter_base@_WV?$stream_output_adapter@_W@__crt_stdio_output@@@__crt_stdio_output@@IAE_NAA_J@Z 1002a0eb f i libucrt:output.obj
 0001:00029174       ??$extract_argument_from_va_list@C_J@?$positional_parameter_base@_WV?$string_output_adapter@_W@__crt_stdio_output@@@__crt_stdio_output@@IAE_NAA_J@Z 1002a174 f i libucrt:output.obj
 0001:000291fd       ??$extract_argument_from_va_list@C_J@?$standard_base@DV?$stream_output_adapter@D@__crt_stdio_output@@@__crt_stdio_output@@IAE_NAA_J@Z 1002a1fd f i libucrt:output.obj
 0001:0002921c       ??$extract_argument_from_va_list@C_J@?$standard_base@DV?$string_output_adapter@D@__crt_stdio_output@@@__crt_stdio_output@@IAE_NAA_J@Z 1002a21c f i libucrt:output.obj
 0001:0002923b       ??$extract_argument_from_va_list@C_J@?$standard_base@_WV?$stream_output_adapter@_W@__crt_stdio_output@@@__crt_stdio_output@@IAE_NAA_J@Z 1002a23b f i libucrt:output.obj
 0001:0002925a       ??$extract_argument_from_va_list@C_J@?$standard_base@_WV?$string_output_adapter@_W@__crt_stdio_output@@@__crt_stdio_output@@IAE_NAA_J@Z 1002a25a f i libucrt:output.obj
 0001:00029279       ??$extract_argument_from_va_list@E_J@?$positional_parameter_base@DV?$stream_output_adapter@D@__crt_stdio_output@@@__crt_stdio_output@@IAE_NAA_J@Z 1002a279 f i libucrt:output.obj
 0001:00029301       ??$extract_argument_from_va_list@E_J@?$positional_parameter_base@DV?$string_output_adapter@D@__crt_stdio_output@@@__crt_stdio_output@@IAE_NAA_J@Z 1002a301 f i libucrt:output.obj
 0001:00029389       ??$extract_argument_from_va_list@E_J@?$positional_parameter_base@_WV?$stream_output_adapter@_W@__crt_stdio_output@@@__crt_stdio_output@@IAE_NAA_J@Z 1002a389 f i libucrt:output.obj
 0001:00029412       ??$extract_argument_from_va_list@E_J@?$positional_parameter_base@_WV?$string_output_adapter@_W@__crt_stdio_output@@@__crt_stdio_output@@IAE_NAA_J@Z 1002a412 f i libucrt:output.obj
 0001:0002949b       ??$extract_argument_from_va_list@E_J@?$standard_base@DV?$stream_output_adapter@D@__crt_stdio_output@@@__crt_stdio_output@@IAE_NAA_J@Z 1002a49b f i libucrt:output.obj
 0001:000294ba       ??$extract_argument_from_va_list@E_J@?$standard_base@DV?$string_output_adapter@D@__crt_stdio_output@@@__crt_stdio_output@@IAE_NAA_J@Z 1002a4ba f i libucrt:output.obj
 0001:000294d9       ??$extract_argument_from_va_list@E_J@?$standard_base@_WV?$stream_output_adapter@_W@__crt_stdio_output@@@__crt_stdio_output@@IAE_NAA_J@Z 1002a4d9 f i libucrt:output.obj
 0001:000294f8       ??$extract_argument_from_va_list@E_J@?$standard_base@_WV?$string_output_adapter@_W@__crt_stdio_output@@@__crt_stdio_output@@IAE_NAA_J@Z 1002a4f8 f i libucrt:output.obj
 0001:00029517       ??$extract_argument_from_va_list@F_J@?$positional_parameter_base@DV?$stream_output_adapter@D@__crt_stdio_output@@@__crt_stdio_output@@IAE_NAA_J@Z 1002a517 f i libucrt:output.obj
 0001:0002959f       ??$extract_argument_from_va_list@F_J@?$positional_parameter_base@DV?$string_output_adapter@D@__crt_stdio_output@@@__crt_stdio_output@@IAE_NAA_J@Z 1002a59f f i libucrt:output.obj
 0001:00029627       ??$extract_argument_from_va_list@F_J@?$positional_parameter_base@_WV?$stream_output_adapter@_W@__crt_stdio_output@@@__crt_stdio_output@@IAE_NAA_J@Z 1002a627 f i libucrt:output.obj
 0001:000296b0       ??$extract_argument_from_va_list@F_J@?$positional_parameter_base@_WV?$string_output_adapter@_W@__crt_stdio_output@@@__crt_stdio_output@@IAE_NAA_J@Z 1002a6b0 f i libucrt:output.obj
 0001:00029739       ??$extract_argument_from_va_list@F_J@?$standard_base@DV?$stream_output_adapter@D@__crt_stdio_output@@@__crt_stdio_output@@IAE_NAA_J@Z 1002a739 f i libucrt:output.obj
 0001:00029758       ??$extract_argument_from_va_list@F_J@?$standard_base@DV?$string_output_adapter@D@__crt_stdio_output@@@__crt_stdio_output@@IAE_NAA_J@Z 1002a758 f i libucrt:output.obj
 0001:00029777       ??$extract_argument_from_va_list@F_J@?$standard_base@_WV?$stream_output_adapter@_W@__crt_stdio_output@@@__crt_stdio_output@@IAE_NAA_J@Z 1002a777 f i libucrt:output.obj
 0001:00029796       ??$extract_argument_from_va_list@F_J@?$standard_base@_WV?$string_output_adapter@_W@__crt_stdio_output@@@__crt_stdio_output@@IAE_NAA_J@Z 1002a796 f i libucrt:output.obj
 0001:000297b5       ??$extract_argument_from_va_list@GD@?$positional_parameter_base@DV?$stream_output_adapter@D@__crt_stdio_output@@@__crt_stdio_output@@IAE_NAAD@Z 1002a7b5 f i libucrt:output.obj
 0001:0002983c       ??$extract_argument_from_va_list@GD@?$positional_parameter_base@DV?$string_output_adapter@D@__crt_stdio_output@@@__crt_stdio_output@@IAE_NAAD@Z 1002a83c f i libucrt:output.obj
 0001:000298c3       ??$extract_argument_from_va_list@GD@?$standard_base@DV?$stream_output_adapter@D@__crt_stdio_output@@@__crt_stdio_output@@IAE_NAAD@Z 1002a8c3 f i libucrt:output.obj
 0001:000298dd       ??$extract_argument_from_va_list@GD@?$standard_base@DV?$string_output_adapter@D@__crt_stdio_output@@@__crt_stdio_output@@IAE_NAAD@Z 1002a8dd f i libucrt:output.obj
 0001:000298f7       ??$extract_argument_from_va_list@G_J@?$positional_parameter_base@DV?$stream_output_adapter@D@__crt_stdio_output@@@__crt_stdio_output@@IAE_NAA_J@Z 1002a8f7 f i libucrt:output.obj
 0001:0002997f       ??$extract_argument_from_va_list@G_J@?$positional_parameter_base@DV?$string_output_adapter@D@__crt_stdio_output@@@__crt_stdio_output@@IAE_NAA_J@Z 1002a97f f i libucrt:output.obj
 0001:00029a07       ??$extract_argument_from_va_list@G_J@?$positional_parameter_base@_WV?$stream_output_adapter@_W@__crt_stdio_output@@@__crt_stdio_output@@IAE_NAA_J@Z 1002aa07 f i libucrt:output.obj
 0001:00029a90       ??$extract_argument_from_va_list@G_J@?$positional_parameter_base@_WV?$string_output_adapter@_W@__crt_stdio_output@@@__crt_stdio_output@@IAE_NAA_J@Z 1002aa90 f i libucrt:output.obj
 0001:00029b19       ??$extract_argument_from_va_list@G_J@?$standard_base@DV?$stream_output_adapter@D@__crt_stdio_output@@@__crt_stdio_output@@IAE_NAA_J@Z 1002ab19 f i libucrt:output.obj
 0001:00029b38       ??$extract_argument_from_va_list@G_J@?$standard_base@DV?$string_output_adapter@D@__crt_stdio_output@@@__crt_stdio_output@@IAE_NAA_J@Z 1002ab38 f i libucrt:output.obj
 0001:00029b57       ??$extract_argument_from_va_list@G_J@?$standard_base@_WV?$stream_output_adapter@_W@__crt_stdio_output@@@__crt_stdio_output@@IAE_NAA_J@Z 1002ab57 f i libucrt:output.obj
 0001:00029b76       ??$extract_argument_from_va_list@G_J@?$standard_base@_WV?$string_output_adapter@_W@__crt_stdio_output@@@__crt_stdio_output@@IAE_NAA_J@Z 1002ab76 f i libucrt:output.obj
 0001:00029b95       ??$extract_argument_from_va_list@H_J@?$positional_parameter_base@DV?$stream_output_adapter@D@__crt_stdio_output@@@__crt_stdio_output@@IAE_NAA_J@Z 1002ab95 f i libucrt:output.obj
 0001:00029c1b       ??$extract_argument_from_va_list@H_J@?$positional_parameter_base@DV?$string_output_adapter@D@__crt_stdio_output@@@__crt_stdio_output@@IAE_NAA_J@Z 1002ac1b f i libucrt:output.obj
 0001:00029ca1       ??$extract_argument_from_va_list@H_J@?$positional_parameter_base@_WV?$stream_output_adapter@_W@__crt_stdio_output@@@__crt_stdio_output@@IAE_NAA_J@Z 1002aca1 f i libucrt:output.obj
 0001:00029d28       ??$extract_argument_from_va_list@H_J@?$positional_parameter_base@_WV?$string_output_adapter@_W@__crt_stdio_output@@@__crt_stdio_output@@IAE_NAA_J@Z 1002ad28 f i libucrt:output.obj
 0001:00029daf       ??$extract_argument_from_va_list@H_J@?$standard_base@DV?$stream_output_adapter@D@__crt_stdio_output@@@__crt_stdio_output@@IAE_NAA_J@Z 1002adaf f i libucrt:output.obj
 0001:00029dcd       ??$extract_argument_from_va_list@H_J@?$standard_base@DV?$string_output_adapter@D@__crt_stdio_output@@@__crt_stdio_output@@IAE_NAA_J@Z 1002adcd f i libucrt:output.obj
 0001:00029deb       ??$extract_argument_from_va_list@H_J@?$standard_base@_WV?$stream_output_adapter@_W@__crt_stdio_output@@@__crt_stdio_output@@IAE_NAA_J@Z 1002adeb f i libucrt:output.obj
 0001:00029e09       ??$extract_argument_from_va_list@H_J@?$standard_base@_WV?$string_output_adapter@_W@__crt_stdio_output@@@__crt_stdio_output@@IAE_NAA_J@Z 1002ae09 f i libucrt:output.obj
 0001:00029e27       ??$extract_argument_from_va_list@I_J@?$positional_parameter_base@DV?$stream_output_adapter@D@__crt_stdio_output@@@__crt_stdio_output@@IAE_NAA_J@Z 1002ae27 f i libucrt:output.obj
 0001:00029eb6       ??$extract_argument_from_va_list@I_J@?$positional_parameter_base@DV?$string_output_adapter@D@__crt_stdio_output@@@__crt_stdio_output@@IAE_NAA_J@Z 1002aeb6 f i libucrt:output.obj
 0001:00029f45       ??$extract_argument_from_va_list@I_J@?$positional_parameter_base@_WV?$stream_output_adapter@_W@__crt_stdio_output@@@__crt_stdio_output@@IAE_NAA_J@Z 1002af45 f i libucrt:output.obj
 0001:00029fd5       ??$extract_argument_from_va_list@I_J@?$positional_parameter_base@_WV?$string_output_adapter@_W@__crt_stdio_output@@@__crt_stdio_output@@IAE_NAA_J@Z 1002afd5 f i libucrt:output.obj
 0001:0002a065       ??$extract_argument_from_va_list@I_J@?$standard_base@DV?$stream_output_adapter@D@__crt_stdio_output@@@__crt_stdio_output@@IAE_NAA_J@Z 1002b065 f i libucrt:output.obj
 0001:0002a083       ??$extract_argument_from_va_list@I_J@?$standard_base@DV?$string_output_adapter@D@__crt_stdio_output@@@__crt_stdio_output@@IAE_NAA_J@Z 1002b083 f i libucrt:output.obj
 0001:0002a0a1       ??$extract_argument_from_va_list@I_J@?$standard_base@_WV?$stream_output_adapter@_W@__crt_stdio_output@@@__crt_stdio_output@@IAE_NAA_J@Z 1002b0a1 f i libucrt:output.obj
 0001:0002a0bf       ??$extract_argument_from_va_list@I_J@?$standard_base@_WV?$string_output_adapter@_W@__crt_stdio_output@@@__crt_stdio_output@@IAE_NAA_J@Z 1002b0bf f i libucrt:output.obj
 0001:0002a0dd       ??$extract_argument_from_va_list@PADPAD@?$positional_parameter_base@DV?$stream_output_adapter@D@__crt_stdio_output@@@__crt_stdio_output@@IAE_NAAPAD@Z 1002b0dd f i libucrt:output.obj
 0001:0002a164       ??$extract_argument_from_va_list@PADPAD@?$positional_parameter_base@DV?$string_output_adapter@D@__crt_stdio_output@@@__crt_stdio_output@@IAE_NAAPAD@Z 1002b164 f i libucrt:output.obj
 0001:0002a1eb       ??$extract_argument_from_va_list@PADPAD@?$positional_parameter_base@_WV?$stream_output_adapter@_W@__crt_stdio_output@@@__crt_stdio_output@@IAE_NAAPAD@Z 1002b1eb f i libucrt:output.obj
 0001:0002a273       ??$extract_argument_from_va_list@PADPAD@?$positional_parameter_base@_WV?$string_output_adapter@_W@__crt_stdio_output@@@__crt_stdio_output@@IAE_NAAPAD@Z 1002b273 f i libucrt:output.obj
 0001:0002a2fb       ??$extract_argument_from_va_list@PADPAD@?$standard_base@DV?$stream_output_adapter@D@__crt_stdio_output@@@__crt_stdio_output@@IAE_NAAPAD@Z 1002b2fb f i libucrt:output.obj
 0001:0002a315       ??$extract_argument_from_va_list@PADPAD@?$standard_base@DV?$string_output_adapter@D@__crt_stdio_output@@@__crt_stdio_output@@IAE_NAAPAD@Z 1002b315 f i libucrt:output.obj
 0001:0002a32f       ??$extract_argument_from_va_list@PADPAD@?$standard_base@_WV?$stream_output_adapter@_W@__crt_stdio_output@@@__crt_stdio_output@@IAE_NAAPAD@Z 1002b32f f i libucrt:output.obj
 0001:0002a349       ??$extract_argument_from_va_list@PADPAD@?$standard_base@_WV?$string_output_adapter@_W@__crt_stdio_output@@@__crt_stdio_output@@IAE_NAAPAD@Z 1002b349 f i libucrt:output.obj
 0001:0002a363       ??$extract_argument_from_va_list@PAUansi_string@?1??type_case_Z@?$output_processor@DV?$stream_output_adapter@D@__crt_stdio_output@@V?$format_validation_base@DV?$stream_output_adapter@D@__crt_stdio_output@@@2@@__crt_stdio_output@@AAE_NXZ@PAU1?1??234@AAE_NXZ@@?$standard_base@DV?$stream_output_adapter@D@__crt_stdio_output@@@__crt_stdio_output@@IAE_NAAPAUansi_string@?1??type_case_Z@?$output_processor@DV?$stream_output_adapter@D@__crt_stdio_output@@V?$format_validation_base@DV?$stream_output_adapter@D@__crt_stdio_output@@@2@@1@AAE_NXZ@@Z 1002b363 f i libucrt:output.obj
 0001:0002a37d       ??$extract_argument_from_va_list@PAUansi_string@?1??type_case_Z@?$output_processor@DV?$stream_output_adapter@D@__crt_stdio_output@@V?$positional_parameter_base@DV?$stream_output_adapter@D@__crt_stdio_output@@@2@@__crt_stdio_output@@AAE_NXZ@PAU1?1??234@AAE_NXZ@@?$positional_parameter_base@DV?$stream_output_adapter@D@__crt_stdio_output@@@__crt_stdio_output@@IAE_NAAPAUansi_string@?1??type_case_Z@?$output_processor@DV?$stream_output_adapter@D@__crt_stdio_output@@V?$positional_parameter_base@DV?$stream_output_adapter@D@__crt_stdio_output@@@2@@1@AAE_NXZ@@Z 1002b37d f i libucrt:output.obj
 0001:0002a404       ??$extract_argument_from_va_list@PAUansi_string@?1??type_case_Z@?$output_processor@DV?$stream_output_adapter@D@__crt_stdio_output@@V?$positional_parameter_base@DV?$stream_output_adapter@D@__crt_stdio_output@@@2@@__crt_stdio_output@@AAE_NXZ@PAU1?1??234@AAE_NXZ@@?$standard_base@DV?$stream_output_adapter@D@__crt_stdio_output@@@__crt_stdio_output@@IAE_NAAPAUansi_string@?1??type_case_Z@?$output_processor@DV?$stream_output_adapter@D@__crt_stdio_output@@V?$positional_parameter_base@DV?$stream_output_adapter@D@__crt_stdio_output@@@2@@1@AAE_NXZ@@Z 1002b404 f i libucrt:output.obj
 0001:0002a41e       ??$extract_argument_from_va_list@PAUansi_string@?1??type_case_Z@?$output_processor@DV?$stream_output_adapter@D@__crt_stdio_output@@V?$standard_base@DV?$stream_output_adapter@D@__crt_stdio_output@@@2@@__crt_stdio_output@@AAE_NXZ@PAU1?1??234@AAE_NXZ@@?$standard_base@DV?$stream_output_adapter@D@__crt_stdio_output@@@__crt_stdio_output@@IAE_NAAPAUansi_string@?1??type_case_Z@?$output_processor@DV?$stream_output_adapter@D@__crt_stdio_output@@V?$standard_base@DV?$stream_output_adapter@D@__crt_stdio_output@@@2@@1@AAE_NXZ@@Z 1002b41e f i libucrt:output.obj
 0001:0002a438       ??$extract_argument_from_va_list@PAUansi_string@?1??type_case_Z@?$output_processor@DV?$string_output_adapter@D@__crt_stdio_output@@V?$format_validation_base@DV?$string_output_adapter@D@__crt_stdio_output@@@2@@__crt_stdio_output@@AAE_NXZ@PAU1?1??234@AAE_NXZ@@?$standard_base@DV?$string_output_adapter@D@__crt_stdio_output@@@__crt_stdio_output@@IAE_NAAPAUansi_string@?1??type_case_Z@?$output_processor@DV?$string_output_adapter@D@__crt_stdio_output@@V?$format_validation_base@DV?$string_output_adapter@D@__crt_stdio_output@@@2@@1@AAE_NXZ@@Z 1002b438 f i libucrt:output.obj
 0001:0002a452       ??$extract_argument_from_va_list@PAUansi_string@?1??type_case_Z@?$output_processor@DV?$string_output_adapter@D@__crt_stdio_output@@V?$positional_parameter_base@DV?$string_output_adapter@D@__crt_stdio_output@@@2@@__crt_stdio_output@@AAE_NXZ@PAU1?1??234@AAE_NXZ@@?$positional_parameter_base@DV?$string_output_adapter@D@__crt_stdio_output@@@__crt_stdio_output@@IAE_NAAPAUansi_string@?1??type_case_Z@?$output_processor@DV?$string_output_adapter@D@__crt_stdio_output@@V?$positional_parameter_base@DV?$string_output_adapter@D@__crt_stdio_output@@@2@@1@AAE_NXZ@@Z 1002b452 f i libucrt:output.obj
 0001:0002a4d9       ??$extract_argument_from_va_list@PAUansi_string@?1??type_case_Z@?$output_processor@DV?$string_output_adapter@D@__crt_stdio_output@@V?$positional_parameter_base@DV?$string_output_adapter@D@__crt_stdio_output@@@2@@__crt_stdio_output@@AAE_NXZ@PAU1?1??234@AAE_NXZ@@?$standard_base@DV?$string_output_adapter@D@__crt_stdio_output@@@__crt_stdio_output@@IAE_NAAPAUansi_string@?1??type_case_Z@?$output_processor@DV?$string_output_adapter@D@__crt_stdio_output@@V?$positional_parameter_base@DV?$string_output_adapter@D@__crt_stdio_output@@@2@@1@AAE_NXZ@@Z 1002b4d9 f i libucrt:output.obj
 0001:0002a4f3       ??$extract_argument_from_va_list@PAUansi_string@?1??type_case_Z@?$output_processor@DV?$string_output_adapter@D@__crt_stdio_output@@V?$standard_base@DV?$string_output_adapter@D@__crt_stdio_output@@@2@@__crt_stdio_output@@AAE_NXZ@PAU1?1??234@AAE_NXZ@@?$standard_base@DV?$string_output_adapter@D@__crt_stdio_output@@@__crt_stdio_output@@IAE_NAAPAUansi_string@?1??type_case_Z@?$output_processor@DV?$string_output_adapter@D@__crt_stdio_output@@V?$standard_base@DV?$string_output_adapter@D@__crt_stdio_output@@@2@@1@AAE_NXZ@@Z 1002b4f3 f i libucrt:output.obj
 0001:0002a50d       ??$extract_argument_from_va_list@PAUansi_string@?1??type_case_Z@?$output_processor@_WV?$stream_output_adapter@_W@__crt_stdio_output@@V?$format_validation_base@_WV?$stream_output_adapter@_W@__crt_stdio_output@@@2@@__crt_stdio_output@@AAE_NXZ@PAU1?1??234@AAE_NXZ@@?$standard_base@_WV?$stream_output_adapter@_W@__crt_stdio_output@@@__crt_stdio_output@@IAE_NAAPAUansi_string@?1??type_case_Z@?$output_processor@_WV?$stream_output_adapter@_W@__crt_stdio_output@@V?$format_validation_base@_WV?$stream_output_adapter@_W@__crt_stdio_output@@@2@@1@AAE_NXZ@@Z 1002b50d f i libucrt:output.obj
 0001:0002a527       ??$extract_argument_from_va_list@PAUansi_string@?1??type_case_Z@?$output_processor@_WV?$stream_output_adapter@_W@__crt_stdio_output@@V?$positional_parameter_base@_WV?$stream_output_adapter@_W@__crt_stdio_output@@@2@@__crt_stdio_output@@AAE_NXZ@PAU1?1??234@AAE_NXZ@@?$positional_parameter_base@_WV?$stream_output_adapter@_W@__crt_stdio_output@@@__crt_stdio_output@@IAE_NAAPAUansi_string@?1??type_case_Z@?$output_processor@_WV?$stream_output_adapter@_W@__crt_stdio_output@@V?$positional_parameter_base@_WV?$stream_output_adapter@_W@__crt_stdio_output@@@2@@1@AAE_NXZ@@Z 1002b527 f i libucrt:output.obj
 0001:0002a5af       ??$extract_argument_from_va_list@PAUansi_string@?1??type_case_Z@?$output_processor@_WV?$stream_output_adapter@_W@__crt_stdio_output@@V?$positional_parameter_base@_WV?$stream_output_adapter@_W@__crt_stdio_output@@@2@@__crt_stdio_output@@AAE_NXZ@PAU1?1??234@AAE_NXZ@@?$standard_base@_WV?$stream_output_adapter@_W@__crt_stdio_output@@@__crt_stdio_output@@IAE_NAAPAUansi_string@?1??type_case_Z@?$output_processor@_WV?$stream_output_adapter@_W@__crt_stdio_output@@V?$positional_parameter_base@_WV?$stream_output_adapter@_W@__crt_stdio_output@@@2@@1@AAE_NXZ@@Z 1002b5af f i libucrt:output.obj
 0001:0002a5c9       ??$extract_argument_from_va_list@PAUansi_string@?1??type_case_Z@?$output_processor@_WV?$stream_output_adapter@_W@__crt_stdio_output@@V?$standard_base@_WV?$stream_output_adapter@_W@__crt_stdio_output@@@2@@__crt_stdio_output@@AAE_NXZ@PAU1?1??234@AAE_NXZ@@?$standard_base@_WV?$stream_output_adapter@_W@__crt_stdio_output@@@__crt_stdio_output@@IAE_NAAPAUansi_string@?1??type_case_Z@?$output_processor@_WV?$stream_output_adapter@_W@__crt_stdio_output@@V?$standard_base@_WV?$stream_output_adapter@_W@__crt_stdio_output@@@2@@1@AAE_NXZ@@Z 1002b5c9 f i libucrt:output.obj
 0001:0002a5e3       ??$extract_argument_from_va_list@PAUansi_string@?1??type_case_Z@?$output_processor@_WV?$string_output_adapter@_W@__crt_stdio_output@@V?$format_validation_base@_WV?$string_output_adapter@_W@__crt_stdio_output@@@2@@__crt_stdio_output@@AAE_NXZ@PAU1?1??234@AAE_NXZ@@?$standard_base@_WV?$string_output_adapter@_W@__crt_stdio_output@@@__crt_stdio_output@@IAE_NAAPAUansi_string@?1??type_case_Z@?$output_processor@_WV?$string_output_adapter@_W@__crt_stdio_output@@V?$format_validation_base@_WV?$string_output_adapter@_W@__crt_stdio_output@@@2@@1@AAE_NXZ@@Z 1002b5e3 f i libucrt:output.obj
 0001:0002a5fd       ??$extract_argument_from_va_list@PAUansi_string@?1??type_case_Z@?$output_processor@_WV?$string_output_adapter@_W@__crt_stdio_output@@V?$positional_parameter_base@_WV?$string_output_adapter@_W@__crt_stdio_output@@@2@@__crt_stdio_output@@AAE_NXZ@PAU1?1??234@AAE_NXZ@@?$positional_parameter_base@_WV?$string_output_adapter@_W@__crt_stdio_output@@@__crt_stdio_output@@IAE_NAAPAUansi_string@?1??type_case_Z@?$output_processor@_WV?$string_output_adapter@_W@__crt_stdio_output@@V?$positional_parameter_base@_WV?$string_output_adapter@_W@__crt_stdio_output@@@2@@1@AAE_NXZ@@Z 1002b5fd f i libucrt:output.obj
 0001:0002a685       ??$extract_argument_from_va_list@PAUansi_string@?1??type_case_Z@?$output_processor@_WV?$string_output_adapter@_W@__crt_stdio_output@@V?$positional_parameter_base@_WV?$string_output_adapter@_W@__crt_stdio_output@@@2@@__crt_stdio_output@@AAE_NXZ@PAU1?1??234@AAE_NXZ@@?$standard_base@_WV?$string_output_adapter@_W@__crt_stdio_output@@@__crt_stdio_output@@IAE_NAAPAUansi_string@?1??type_case_Z@?$output_processor@_WV?$string_output_adapter@_W@__crt_stdio_output@@V?$positional_parameter_base@_WV?$string_output_adapter@_W@__crt_stdio_output@@@2@@1@AAE_NXZ@@Z 1002b685 f i libucrt:output.obj
 0001:0002a69f       ??$extract_argument_from_va_list@PAUansi_string@?1??type_case_Z@?$output_processor@_WV?$string_output_adapter@_W@__crt_stdio_output@@V?$standard_base@_WV?$string_output_adapter@_W@__crt_stdio_output@@@2@@__crt_stdio_output@@AAE_NXZ@PAU1?1??234@AAE_NXZ@@?$standard_base@_WV?$string_output_adapter@_W@__crt_stdio_output@@@__crt_stdio_output@@IAE_NAAPAUansi_string@?1??type_case_Z@?$output_processor@_WV?$string_output_adapter@_W@__crt_stdio_output@@V?$standard_base@_WV?$string_output_adapter@_W@__crt_stdio_output@@@2@@1@AAE_NXZ@@Z 1002b69f f i libucrt:output.obj
 0001:0002a6b9       ??$extract_argument_from_va_list@PAXPAX@?$positional_parameter_base@DV?$stream_output_adapter@D@__crt_stdio_output@@@__crt_stdio_output@@IAE_NAAPAX@Z 1002b6b9 f i libucrt:output.obj
 0001:0002a740       ??$extract_argument_from_va_list@PAXPAX@?$positional_parameter_base@DV?$string_output_adapter@D@__crt_stdio_output@@@__crt_stdio_output@@IAE_NAAPAX@Z 1002b740 f i libucrt:output.obj
 0001:0002a7c7       ??$extract_argument_from_va_list@PAXPAX@?$positional_parameter_base@_WV?$stream_output_adapter@_W@__crt_stdio_output@@@__crt_stdio_output@@IAE_NAAPAX@Z 1002b7c7 f i libucrt:output.obj
 0001:0002a84f       ??$extract_argument_from_va_list@PAXPAX@?$positional_parameter_base@_WV?$string_output_adapter@_W@__crt_stdio_output@@@__crt_stdio_output@@IAE_NAAPAX@Z 1002b84f f i libucrt:output.obj
 0001:0002a8d7       ??$extract_argument_from_va_list@PAXPAX@?$standard_base@DV?$stream_output_adapter@D@__crt_stdio_output@@@__crt_stdio_output@@IAE_NAAPAX@Z 1002b8d7 f i libucrt:output.obj
 0001:0002a8f1       ??$extract_argument_from_va_list@PAXPAX@?$standard_base@DV?$string_output_adapter@D@__crt_stdio_output@@@__crt_stdio_output@@IAE_NAAPAX@Z 1002b8f1 f i libucrt:output.obj
 0001:0002a90b       ??$extract_argument_from_va_list@PAXPAX@?$standard_base@_WV?$stream_output_adapter@_W@__crt_stdio_output@@@__crt_stdio_output@@IAE_NAAPAX@Z 1002b90b f i libucrt:output.obj
 0001:0002a925       ??$extract_argument_from_va_list@PAXPAX@?$standard_base@_WV?$string_output_adapter@_W@__crt_stdio_output@@@__crt_stdio_output@@IAE_NAAPAX@Z 1002b925 f i libucrt:output.obj
 0001:0002a93f       ??$extract_argument_from_va_list@U_CRT_DOUBLE@@U1@@?$positional_parameter_base@DV?$stream_output_adapter@D@__crt_stdio_output@@@__crt_stdio_output@@IAE_NAAU_CRT_DOUBLE@@@Z 1002b93f f i libucrt:output.obj
 0001:0002a9d4       ??$extract_argument_from_va_list@U_CRT_DOUBLE@@U1@@?$positional_parameter_base@DV?$string_output_adapter@D@__crt_stdio_output@@@__crt_stdio_output@@IAE_NAAU_CRT_DOUBLE@@@Z 1002b9d4 f i libucrt:output.obj
 0001:0002aa69       ??$extract_argument_from_va_list@U_CRT_DOUBLE@@U1@@?$positional_parameter_base@_WV?$stream_output_adapter@_W@__crt_stdio_output@@@__crt_stdio_output@@IAE_NAAU_CRT_DOUBLE@@@Z 1002ba69 f i libucrt:output.obj
 0001:0002aaff       ??$extract_argument_from_va_list@U_CRT_DOUBLE@@U1@@?$positional_parameter_base@_WV?$string_output_adapter@_W@__crt_stdio_output@@@__crt_stdio_output@@IAE_NAAU_CRT_DOUBLE@@@Z 1002baff f i libucrt:output.obj
 0001:0002ab95       ??$extract_argument_from_va_list@U_CRT_DOUBLE@@U1@@?$standard_base@DV?$stream_output_adapter@D@__crt_stdio_output@@@__crt_stdio_output@@IAE_NAAU_CRT_DOUBLE@@@Z 1002bb95 f i libucrt:output.obj
 0001:0002abb5       ??$extract_argument_from_va_list@U_CRT_DOUBLE@@U1@@?$standard_base@DV?$string_output_adapter@D@__crt_stdio_output@@@__crt_stdio_output@@IAE_NAAU_CRT_DOUBLE@@@Z 1002bbb5 f i libucrt:output.obj
 0001:0002abd5       ??$extract_argument_from_va_list@U_CRT_DOUBLE@@U1@@?$standard_base@_WV?$stream_output_adapter@_W@__crt_stdio_output@@@__crt_stdio_output@@IAE_NAAU_CRT_DOUBLE@@@Z 1002bbd5 f i libucrt:output.obj
 0001:0002abf5       ??$extract_argument_from_va_list@U_CRT_DOUBLE@@U1@@?$standard_base@_WV?$string_output_adapter@_W@__crt_stdio_output@@@__crt_stdio_output@@IAE_NAAU_CRT_DOUBLE@@@Z 1002bbf5 f i libucrt:output.obj
 0001:0002ac15       ??$extract_argument_from_va_list@_J_J@?$positional_parameter_base@DV?$stream_output_adapter@D@__crt_stdio_output@@@__crt_stdio_output@@IAE_NAA_J@Z 1002bc15 f i libucrt:output.obj
 0001:0002acaa       ??$extract_argument_from_va_list@_J_J@?$positional_parameter_base@DV?$string_output_adapter@D@__crt_stdio_output@@@__crt_stdio_output@@IAE_NAA_J@Z 1002bcaa f i libucrt:output.obj
 0001:0002ad3f       ??$extract_argument_from_va_list@_J_J@?$positional_parameter_base@_WV?$stream_output_adapter@_W@__crt_stdio_output@@@__crt_stdio_output@@IAE_NAA_J@Z 1002bd3f f i libucrt:output.obj
 0001:0002add5       ??$extract_argument_from_va_list@_J_J@?$positional_parameter_base@_WV?$string_output_adapter@_W@__crt_stdio_output@@@__crt_stdio_output@@IAE_NAA_J@Z 1002bdd5 f i libucrt:output.obj
 0001:0002ae6b       ??$extract_argument_from_va_list@_J_J@?$standard_base@DV?$stream_output_adapter@D@__crt_stdio_output@@@__crt_stdio_output@@IAE_NAA_J@Z 1002be6b f i libucrt:output.obj
 0001:0002ae8b       ??$extract_argument_from_va_list@_J_J@?$standard_base@DV?$string_output_adapter@D@__crt_stdio_output@@@__crt_stdio_output@@IAE_NAA_J@Z 1002be8b f i libucrt:output.obj
 0001:0002aeab       ??$extract_argument_from_va_list@_J_J@?$standard_base@_WV?$stream_output_adapter@_W@__crt_stdio_output@@@__crt_stdio_output@@IAE_NAA_J@Z 1002beab f i libucrt:output.obj
 0001:0002aecb       ??$extract_argument_from_va_list@_J_J@?$standard_base@_WV?$string_output_adapter@_W@__crt_stdio_output@@@__crt_stdio_output@@IAE_NAA_J@Z 1002becb f i libucrt:output.obj
 0001:0002aeeb       ??$extract_argument_from_va_list@_K_J@?$positional_parameter_base@DV?$stream_output_adapter@D@__crt_stdio_output@@@__crt_stdio_output@@IAE_NAA_J@Z 1002beeb f i libucrt:output.obj
 0001:0002af80       ??$extract_argument_from_va_list@_K_J@?$positional_parameter_base@DV?$string_output_adapter@D@__crt_stdio_output@@@__crt_stdio_output@@IAE_NAA_J@Z 1002bf80 f i libucrt:output.obj
 0001:0002b015       ??$extract_argument_from_va_list@_K_J@?$positional_parameter_base@_WV?$stream_output_adapter@_W@__crt_stdio_output@@@__crt_stdio_output@@IAE_NAA_J@Z 1002c015 f i libucrt:output.obj
 0001:0002b0ab       ??$extract_argument_from_va_list@_K_J@?$positional_parameter_base@_WV?$string_output_adapter@_W@__crt_stdio_output@@@__crt_stdio_output@@IAE_NAA_J@Z 1002c0ab f i libucrt:output.obj
 0001:0002b141       ??$extract_argument_from_va_list@_K_J@?$standard_base@DV?$stream_output_adapter@D@__crt_stdio_output@@@__crt_stdio_output@@IAE_NAA_J@Z 1002c141 f i libucrt:output.obj
 0001:0002b161       ??$extract_argument_from_va_list@_K_J@?$standard_base@DV?$string_output_adapter@D@__crt_stdio_output@@@__crt_stdio_output@@IAE_NAA_J@Z 1002c161 f i libucrt:output.obj
 0001:0002b181       ??$extract_argument_from_va_list@_K_J@?$standard_base@_WV?$stream_output_adapter@_W@__crt_stdio_output@@@__crt_stdio_output@@IAE_NAA_J@Z 1002c181 f i libucrt:output.obj
 0001:0002b1a1       ??$extract_argument_from_va_list@_K_J@?$standard_base@_WV?$string_output_adapter@_W@__crt_stdio_output@@@__crt_stdio_output@@IAE_NAA_J@Z 1002c1a1 f i libucrt:output.obj
 0001:0002b1c1       ??$extract_argument_from_va_list@_W_W@?$positional_parameter_base@DV?$stream_output_adapter@D@__crt_stdio_output@@@__crt_stdio_output@@IAE_NAA_W@Z 1002c1c1 f i libucrt:output.obj
 0001:0002b24c       ??$extract_argument_from_va_list@_W_W@?$positional_parameter_base@DV?$string_output_adapter@D@__crt_stdio_output@@@__crt_stdio_output@@IAE_NAA_W@Z 1002c24c f i libucrt:output.obj
 0001:0002b2d7       ??$extract_argument_from_va_list@_W_W@?$positional_parameter_base@_WV?$stream_output_adapter@_W@__crt_stdio_output@@@__crt_stdio_output@@IAE_NAA_W@Z 1002c2d7 f i libucrt:output.obj
 0001:0002b363       ??$extract_argument_from_va_list@_W_W@?$positional_parameter_base@_WV?$string_output_adapter@_W@__crt_stdio_output@@@__crt_stdio_output@@IAE_NAA_W@Z 1002c363 f i libucrt:output.obj
 0001:0002b3ef       ??$extract_argument_from_va_list@_W_W@?$standard_base@DV?$stream_output_adapter@D@__crt_stdio_output@@@__crt_stdio_output@@IAE_NAA_W@Z 1002c3ef f i libucrt:output.obj
 0001:0002b40b       ??$extract_argument_from_va_list@_W_W@?$standard_base@DV?$string_output_adapter@D@__crt_stdio_output@@@__crt_stdio_output@@IAE_NAA_W@Z 1002c40b f i libucrt:output.obj
 0001:0002b427       ??$extract_argument_from_va_list@_W_W@?$standard_base@_WV?$stream_output_adapter@_W@__crt_stdio_output@@@__crt_stdio_output@@IAE_NAA_W@Z 1002c427 f i libucrt:output.obj
 0001:0002b443       ??$extract_argument_from_va_list@_W_W@?$standard_base@_WV?$string_output_adapter@_W@__crt_stdio_output@@@__crt_stdio_output@@IAE_NAA_W@Z 1002c443 f i libucrt:output.obj
 0001:0002b45f       ??$get_parameter_type@D@?$positional_parameter_base@DV?$stream_output_adapter@D@__crt_stdio_output@@@__crt_stdio_output@@CA?AW4parameter_type@01@PAD@Z 1002c45f f i libucrt:output.obj
 0001:0002b463       ??$get_parameter_type@D@?$positional_parameter_base@DV?$string_output_adapter@D@__crt_stdio_output@@@__crt_stdio_output@@CA?AW4parameter_type@01@PAD@Z 1002c463 f i libucrt:output.obj
 0001:0002b467       ??$get_parameter_type@D@?$positional_parameter_base@_WV?$stream_output_adapter@_W@__crt_stdio_output@@@__crt_stdio_output@@CA?AW4parameter_type@01@PAD@Z 1002c467 f i libucrt:output.obj
 0001:0002b46b       ??$get_parameter_type@D@?$positional_parameter_base@_WV?$string_output_adapter@_W@__crt_stdio_output@@@__crt_stdio_output@@CA?AW4parameter_type@01@PAD@Z 1002c46b f i libucrt:output.obj
 0001:0002b46f       ??$get_parameter_type@Uansi_string@?1??type_case_Z@?$output_processor@DV?$stream_output_adapter@D@__crt_stdio_output@@V?$positional_parameter_base@DV?$stream_output_adapter@D@__crt_stdio_output@@@2@@__crt_stdio_output@@AAE_NXZ@@?$positional_parameter_base@DV?$stream_output_adapter@D@__crt_stdio_output@@@__crt_stdio_output@@CA?AW4parameter_type@01@PAUansi_string@?1??type_case_Z@?$output_processor@DV?$stream_output_adapter@D@__crt_stdio_output@@V?$positional_parameter_base@DV?$stream_output_adapter@D@__crt_stdio_output@@@2@@1@AAE_NXZ@@Z 1002c46f f i libucrt:output.obj
 0001:0002b473       ??$get_parameter_type@Uansi_string@?1??type_case_Z@?$output_processor@DV?$string_output_adapter@D@__crt_stdio_output@@V?$positional_parameter_base@DV?$string_output_adapter@D@__crt_stdio_output@@@2@@__crt_stdio_output@@AAE_NXZ@@?$positional_parameter_base@DV?$string_output_adapter@D@__crt_stdio_output@@@__crt_stdio_output@@CA?AW4parameter_type@01@PAUansi_string@?1??type_case_Z@?$output_processor@DV?$string_output_adapter@D@__crt_stdio_output@@V?$positional_parameter_base@DV?$string_output_adapter@D@__crt_stdio_output@@@2@@1@AAE_NXZ@@Z 1002c473 f i libucrt:output.obj
 0001:0002b477       ??$get_parameter_type@Uansi_string@?1??type_case_Z@?$output_processor@_WV?$stream_output_adapter@_W@__crt_stdio_output@@V?$positional_parameter_base@_WV?$stream_output_adapter@_W@__crt_stdio_output@@@2@@__crt_stdio_output@@AAE_NXZ@@?$positional_parameter_base@_WV?$stream_output_adapter@_W@__crt_stdio_output@@@__crt_stdio_output@@CA?AW4parameter_type@01@PAUansi_string@?1??type_case_Z@?$output_processor@_WV?$stream_output_adapter@_W@__crt_stdio_output@@V?$positional_parameter_base@_WV?$stream_output_adapter@_W@__crt_stdio_output@@@2@@1@AAE_NXZ@@Z 1002c477 f i libucrt:output.obj
 0001:0002b47b       ??$get_parameter_type@Uansi_string@?1??type_case_Z@?$output_processor@_WV?$string_output_adapter@_W@__crt_stdio_output@@V?$positional_parameter_base@_WV?$string_output_adapter@_W@__crt_stdio_output@@@2@@__crt_stdio_output@@AAE_NXZ@@?$positional_parameter_base@_WV?$string_output_adapter@_W@__crt_stdio_output@@@__crt_stdio_output@@CA?AW4parameter_type@01@PAUansi_string@?1??type_case_Z@?$output_processor@_WV?$string_output_adapter@_W@__crt_stdio_output@@V?$positional_parameter_base@_WV?$string_output_adapter@_W@__crt_stdio_output@@@2@@1@AAE_NXZ@@Z 1002c47b f i libucrt:output.obj
 0001:0002b47f       ??$get_parameter_type@X@?$positional_parameter_base@DV?$stream_output_adapter@D@__crt_stdio_output@@@__crt_stdio_output@@CA?AW4parameter_type@01@PAX@Z 1002c47f f i libucrt:output.obj
 0001:0002b483       ??$get_parameter_type@X@?$positional_parameter_base@DV?$string_output_adapter@D@__crt_stdio_output@@@__crt_stdio_output@@CA?AW4parameter_type@01@PAX@Z 1002c483 f i libucrt:output.obj
 0001:0002b487       ??$get_parameter_type@X@?$positional_parameter_base@_WV?$stream_output_adapter@_W@__crt_stdio_output@@@__crt_stdio_output@@CA?AW4parameter_type@01@PAX@Z 1002c487 f i libucrt:output.obj
 0001:0002b48b       ??$get_parameter_type@X@?$positional_parameter_base@_WV?$string_output_adapter@_W@__crt_stdio_output@@@__crt_stdio_output@@CA?AW4parameter_type@01@PAX@Z 1002c48b f i libucrt:output.obj
 0001:0002b48f       ??$is_character_specifier@D@?$positional_parameter_base@DV?$stream_output_adapter@D@__crt_stdio_output@@@__crt_stdio_output@@CA_ND@Z 1002c48f f i libucrt:output.obj
 0001:0002b4a7       ??$is_character_specifier@D@?$positional_parameter_base@DV?$string_output_adapter@D@__crt_stdio_output@@@__crt_stdio_output@@CA_ND@Z 1002c4a7 f i libucrt:output.obj
 0001:0002b4bf       ??$is_character_specifier@_W@?$positional_parameter_base@_WV?$stream_output_adapter@_W@__crt_stdio_output@@@__crt_stdio_output@@CA_N_W@Z 1002c4bf f i libucrt:output.obj
 0001:0002b4da       ??$is_character_specifier@_W@?$positional_parameter_base@_WV?$string_output_adapter@_W@__crt_stdio_output@@@__crt_stdio_output@@CA_N_W@Z 1002c4da f i libucrt:output.obj
 0001:0002b4f5       ??$is_integral_specifier@D@?$positional_parameter_base@DV?$stream_output_adapter@D@__crt_stdio_output@@@__crt_stdio_output@@CA_ND@Z 1002c4f5 f i libucrt:output.obj
 0001:0002b521       ??$is_integral_specifier@D@?$positional_parameter_base@DV?$string_output_adapter@D@__crt_stdio_output@@@__crt_stdio_output@@CA_ND@Z 1002c521 f i libucrt:output.obj
 0001:0002b54d       ??$is_integral_specifier@_W@?$positional_parameter_base@_WV?$stream_output_adapter@_W@__crt_stdio_output@@@__crt_stdio_output@@CA_N_W@Z 1002c54d f i libucrt:output.obj
 0001:0002b588       ??$is_integral_specifier@_W@?$positional_parameter_base@_WV?$string_output_adapter@_W@__crt_stdio_output@@@__crt_stdio_output@@CA_N_W@Z 1002c588 f i libucrt:output.obj
 0001:0002b5c3       ??$is_overflow_condition@K@__crt_strtox@@YA_NIK@Z 1002c5c3 f i libucrt:output.obj
 0001:0002b5f4       ??$is_pointer_specifier@D@?$positional_parameter_base@DV?$stream_output_adapter@D@__crt_stdio_output@@@__crt_stdio_output@@CA_ND@Z 1002c5f4 f i libucrt:output.obj
 0001:0002b602       ??$is_pointer_specifier@D@?$positional_parameter_base@DV?$string_output_adapter@D@__crt_stdio_output@@@__crt_stdio_output@@CA_ND@Z 1002c602 f i libucrt:output.obj
 0001:0002b610       ??$is_pointer_specifier@_W@?$positional_parameter_base@_WV?$stream_output_adapter@_W@__crt_stdio_output@@@__crt_stdio_output@@CA_N_W@Z 1002c610 f i libucrt:output.obj
 0001:0002b61f       ??$is_pointer_specifier@_W@?$positional_parameter_base@_WV?$string_output_adapter@_W@__crt_stdio_output@@@__crt_stdio_output@@CA_N_W@Z 1002c61f f i libucrt:output.obj
 0001:0002b62e       ??$is_string_specifier@D@?$positional_parameter_base@DV?$stream_output_adapter@D@__crt_stdio_output@@@__crt_stdio_output@@CA_ND@Z 1002c62e f i libucrt:output.obj
 0001:0002b646       ??$is_string_specifier@D@?$positional_parameter_base@DV?$string_output_adapter@D@__crt_stdio_output@@@__crt_stdio_output@@CA_ND@Z 1002c646 f i libucrt:output.obj
 0001:0002b65e       ??$is_string_specifier@_W@?$positional_parameter_base@_WV?$stream_output_adapter@_W@__crt_stdio_output@@@__crt_stdio_output@@CA_N_W@Z 1002c65e f i libucrt:output.obj
 0001:0002b679       ??$is_string_specifier@_W@?$positional_parameter_base@_WV?$string_output_adapter@_W@__crt_stdio_output@@@__crt_stdio_output@@CA_N_W@Z 1002c679 f i libucrt:output.obj
 0001:0002b694       ??$is_wide_character_specifier@D@__crt_stdio_output@@YA_N_KDW4length_modifier@0@@Z 1002c694 f i libucrt:output.obj
 0001:0002b6c5       ??$is_wide_character_specifier@_W@__crt_stdio_output@@YA_N_K_WW4length_modifier@0@@Z 1002c6c5 f i libucrt:output.obj
 0001:0002b713       ??$make_c_string_character_source@DPAPAD@__crt_strtox@@YA?AV?$c_string_character_source@D@0@QBDQAPAD@Z 1002c713 f i libucrt:output.obj
 0001:0002b72e       ??$make_c_string_character_source@_WPAPA_W@__crt_strtox@@YA?AV?$c_string_character_source@_W@0@QB_WQAPA_W@Z 1002c72e f i libucrt:output.obj
 0001:0002b749       ??$parse_integer@KV?$c_string_character_source@D@__crt_strtox@@$0A@@__crt_strtox@@YAKAAV__crt_cached_ptd_host@@V?$c_string_character_source@D@0@H_N@Z 1002c749 f i libucrt:output.obj
 0001:0002b958       ??$parse_integer@KV?$c_string_character_source@_W@__crt_strtox@@$0A@@__crt_strtox@@YAKAAV__crt_cached_ptd_host@@V?$c_string_character_source@_W@0@H_N@Z 1002c958 f i libucrt:output.obj
 0001:0002bf27       ??$peek_va_arg@C@__crt_stdio_output@@YACPAD@Z 1002cf27 f i libucrt:output.obj
 0001:0002bf33       ??$peek_va_arg@E@__crt_stdio_output@@YAEPAD@Z 1002cf33 f i libucrt:output.obj
 0001:0002bf3f       ??$peek_va_arg@F@__crt_stdio_output@@YAFPAD@Z 1002cf3f f i libucrt:output.obj
 0001:0002bf4c       ??$peek_va_arg@G@__crt_stdio_output@@YAGPAD@Z 1002cf4c f i libucrt:output.obj
 0001:0002bf59       ??$peek_va_arg@H@__crt_stdio_output@@YAHPAD@Z 1002cf59 f i libucrt:output.obj
 0001:0002bf65       ??$peek_va_arg@I@__crt_stdio_output@@YAIPAD@Z 1002cf65 f i libucrt:output.obj
 0001:0002bf71       ??$peek_va_arg@PAD@__crt_stdio_output@@YAPADPAD@Z 1002cf71 f i libucrt:output.obj
 0001:0002bf7d       ??$peek_va_arg@PAUansi_string@?1??type_case_Z@?$output_processor@DV?$stream_output_adapter@D@__crt_stdio_output@@V?$positional_parameter_base@DV?$stream_output_adapter@D@__crt_stdio_output@@@2@@__crt_stdio_output@@AAE_NXZ@@__crt_stdio_output@@YAPAUansi_string@?1??type_case_Z@?$output_processor@DV?$stream_output_adapter@D@__crt_stdio_output@@V?$positional_parameter_base@DV?$stream_output_adapter@D@__crt_stdio_output@@@2@@0@AAE_NXZ@PAD@Z 1002cf7d f i libucrt:output.obj
 0001:0002bf89       ??$peek_va_arg@PAUansi_string@?1??type_case_Z@?$output_processor@DV?$string_output_adapter@D@__crt_stdio_output@@V?$positional_parameter_base@DV?$string_output_adapter@D@__crt_stdio_output@@@2@@__crt_stdio_output@@AAE_NXZ@@__crt_stdio_output@@YAPAUansi_string@?1??type_case_Z@?$output_processor@DV?$string_output_adapter@D@__crt_stdio_output@@V?$positional_parameter_base@DV?$string_output_adapter@D@__crt_stdio_output@@@2@@0@AAE_NXZ@PAD@Z 1002cf89 f i libucrt:output.obj
 0001:0002bf95       ??$peek_va_arg@PAUansi_string@?1??type_case_Z@?$output_processor@_WV?$stream_output_adapter@_W@__crt_stdio_output@@V?$positional_parameter_base@_WV?$stream_output_adapter@_W@__crt_stdio_output@@@2@@__crt_stdio_output@@AAE_NXZ@@__crt_stdio_output@@YAPAUansi_string@?1??type_case_Z@?$output_processor@_WV?$stream_output_adapter@_W@__crt_stdio_output@@V?$positional_parameter_base@_WV?$stream_output_adapter@_W@__crt_stdio_output@@@2@@0@AAE_NXZ@PAD@Z 1002cf95 f i libucrt:output.obj
 0001:0002bfa1       ??$peek_va_arg@PAUansi_string@?1??type_case_Z@?$output_processor@_WV?$string_output_adapter@_W@__crt_stdio_output@@V?$positional_parameter_base@_WV?$string_output_adapter@_W@__crt_stdio_output@@@2@@__crt_stdio_output@@AAE_NXZ@@__crt_stdio_output@@YAPAUansi_string@?1??type_case_Z@?$output_processor@_WV?$string_output_adapter@_W@__crt_stdio_output@@V?$positional_parameter_base@_WV?$string_output_adapter@_W@__crt_stdio_output@@@2@@0@AAE_NXZ@PAD@Z 1002cfa1 f i libucrt:output.obj
 0001:0002bfad       ??$peek_va_arg@PAX@__crt_stdio_output@@YAPAXPAD@Z 1002cfad f i libucrt:output.obj
 0001:0002bfb9       ??$peek_va_arg@U_CRT_DOUBLE@@@__crt_stdio_output@@YA?AU_CRT_DOUBLE@@PAD@Z 1002cfb9 f i libucrt:output.obj
 0001:0002bfc8       ??$peek_va_arg@_J@__crt_stdio_output@@YA_JPAD@Z 1002cfc8 f i libucrt:output.obj
 0001:0002bfd7       ??$peek_va_arg@_K@__crt_stdio_output@@YA_KPAD@Z 1002cfd7 f i libucrt:output.obj
 0001:0002bfe6       ??$peek_va_arg@_W@__crt_stdio_output@@YA_WPAD@Z 1002cfe6 f i libucrt:output.obj
 0001:0002bff3       ??$puttc_nolock_internal@ABDPAU_iobuf@@AAV__crt_cached_ptd_host@@@?$__crt_char_traits@D@@SAHABD$$QAPAU_iobuf@@AAV__crt_cached_ptd_host@@@Z 1002cff3 f i libucrt:output.obj
 0001:0002c011       ??$puttc_nolock_internal@AB_WPAU_iobuf@@AAV__crt_cached_ptd_host@@@?$__crt_char_traits@_W@@SAGAB_W$$QAPAU_iobuf@@AAV__crt_cached_ptd_host@@@Z 1002d011 f i libucrt:output.obj
 0001:0002c02f       ??$read_va_arg@C@__crt_stdio_output@@YACAAPAD@Z 1002d02f f i libucrt:output.obj
 0001:0002c041       ??$read_va_arg@E@__crt_stdio_output@@YAEAAPAD@Z 1002d041 f i libucrt:output.obj
 0001:0002c053       ??$read_va_arg@F@__crt_stdio_output@@YAFAAPAD@Z 1002d053 f i libucrt:output.obj
 0001:0002c066       ??$read_va_arg@G@__crt_stdio_output@@YAGAAPAD@Z 1002d066 f i libucrt:output.obj
 0001:0002c079       ??$read_va_arg@H@__crt_stdio_output@@YAHAAPAD@Z 1002d079 f i libucrt:output.obj
 0001:0002c08b       ??$read_va_arg@I@__crt_stdio_output@@YAIAAPAD@Z 1002d08b f i libucrt:output.obj
 0001:0002c09d       ??$read_va_arg@PAD@__crt_stdio_output@@YAPADAAPAD@Z 1002d09d f i libucrt:output.obj
 0001:0002c0af       ??$read_va_arg@PAUansi_string@?1??type_case_Z@?$output_processor@DV?$stream_output_adapter@D@__crt_stdio_output@@V?$format_validation_base@DV?$stream_output_adapter@D@__crt_stdio_output@@@2@@__crt_stdio_output@@AAE_NXZ@@__crt_stdio_output@@YAPAUansi_string@?1??type_case_Z@?$output_processor@DV?$stream_output_adapter@D@__crt_stdio_output@@V?$format_validation_base@DV?$stream_output_adapter@D@__crt_stdio_output@@@2@@0@AAE_NXZ@AAPAD@Z 1002d0af f i libucrt:output.obj
 0001:0002c0c1       ??$read_va_arg@PAUansi_string@?1??type_case_Z@?$output_processor@DV?$stream_output_adapter@D@__crt_stdio_output@@V?$positional_parameter_base@DV?$stream_output_adapter@D@__crt_stdio_output@@@2@@__crt_stdio_output@@AAE_NXZ@@__crt_stdio_output@@YAPAUansi_string@?1??type_case_Z@?$output_processor@DV?$stream_output_adapter@D@__crt_stdio_output@@V?$positional_parameter_base@DV?$stream_output_adapter@D@__crt_stdio_output@@@2@@0@AAE_NXZ@AAPAD@Z 1002d0c1 f i libucrt:output.obj
 0001:0002c0d3       ??$read_va_arg@PAUansi_string@?1??type_case_Z@?$output_processor@DV?$stream_output_adapter@D@__crt_stdio_output@@V?$standard_base@DV?$stream_output_adapter@D@__crt_stdio_output@@@2@@__crt_stdio_output@@AAE_NXZ@@__crt_stdio_output@@YAPAUansi_string@?1??type_case_Z@?$output_processor@DV?$stream_output_adapter@D@__crt_stdio_output@@V?$standard_base@DV?$stream_output_adapter@D@__crt_stdio_output@@@2@@0@AAE_NXZ@AAPAD@Z 1002d0d3 f i libucrt:output.obj
 0001:0002c0e5       ??$read_va_arg@PAUansi_string@?1??type_case_Z@?$output_processor@DV?$string_output_adapter@D@__crt_stdio_output@@V?$format_validation_base@DV?$string_output_adapter@D@__crt_stdio_output@@@2@@__crt_stdio_output@@AAE_NXZ@@__crt_stdio_output@@YAPAUansi_string@?1??type_case_Z@?$output_processor@DV?$string_output_adapter@D@__crt_stdio_output@@V?$format_validation_base@DV?$string_output_adapter@D@__crt_stdio_output@@@2@@0@AAE_NXZ@AAPAD@Z 1002d0e5 f i libucrt:output.obj
 0001:0002c0f7       ??$read_va_arg@PAUansi_string@?1??type_case_Z@?$output_processor@DV?$string_output_adapter@D@__crt_stdio_output@@V?$positional_parameter_base@DV?$string_output_adapter@D@__crt_stdio_output@@@2@@__crt_stdio_output@@AAE_NXZ@@__crt_stdio_output@@YAPAUansi_string@?1??type_case_Z@?$output_processor@DV?$string_output_adapter@D@__crt_stdio_output@@V?$positional_parameter_base@DV?$string_output_adapter@D@__crt_stdio_output@@@2@@0@AAE_NXZ@AAPAD@Z 1002d0f7 f i libucrt:output.obj
 0001:0002c109       ??$read_va_arg@PAUansi_string@?1??type_case_Z@?$output_processor@DV?$string_output_adapter@D@__crt_stdio_output@@V?$standard_base@DV?$string_output_adapter@D@__crt_stdio_output@@@2@@__crt_stdio_output@@AAE_NXZ@@__crt_stdio_output@@YAPAUansi_string@?1??type_case_Z@?$output_processor@DV?$string_output_adapter@D@__crt_stdio_output@@V?$standard_base@DV?$string_output_adapter@D@__crt_stdio_output@@@2@@0@AAE_NXZ@AAPAD@Z 1002d109 f i libucrt:output.obj
 0001:0002c11b       ??$read_va_arg@PAUansi_string@?1??type_case_Z@?$output_processor@_WV?$stream_output_adapter@_W@__crt_stdio_output@@V?$format_validation_base@_WV?$stream_output_adapter@_W@__crt_stdio_output@@@2@@__crt_stdio_output@@AAE_NXZ@@__crt_stdio_output@@YAPAUansi_string@?1??type_case_Z@?$output_processor@_WV?$stream_output_adapter@_W@__crt_stdio_output@@V?$format_validation_base@_WV?$stream_output_adapter@_W@__crt_stdio_output@@@2@@0@AAE_NXZ@AAPAD@Z 1002d11b f i libucrt:output.obj
 0001:0002c12d       ??$read_va_arg@PAUansi_string@?1??type_case_Z@?$output_processor@_WV?$stream_output_adapter@_W@__crt_stdio_output@@V?$positional_parameter_base@_WV?$stream_output_adapter@_W@__crt_stdio_output@@@2@@__crt_stdio_output@@AAE_NXZ@@__crt_stdio_output@@YAPAUansi_string@?1??type_case_Z@?$output_processor@_WV?$stream_output_adapter@_W@__crt_stdio_output@@V?$positional_parameter_base@_WV?$stream_output_adapter@_W@__crt_stdio_output@@@2@@0@AAE_NXZ@AAPAD@Z 1002d12d f i libucrt:output.obj
 0001:0002c13f       ??$read_va_arg@PAUansi_string@?1??type_case_Z@?$output_processor@_WV?$stream_output_adapter@_W@__crt_stdio_output@@V?$standard_base@_WV?$stream_output_adapter@_W@__crt_stdio_output@@@2@@__crt_stdio_output@@AAE_NXZ@@__crt_stdio_output@@YAPAUansi_string@?1??type_case_Z@?$output_processor@_WV?$stream_output_adapter@_W@__crt_stdio_output@@V?$standard_base@_WV?$stream_output_adapter@_W@__crt_stdio_output@@@2@@0@AAE_NXZ@AAPAD@Z 1002d13f f i libucrt:output.obj
 0001:0002c151       ??$read_va_arg@PAUansi_string@?1??type_case_Z@?$output_processor@_WV?$string_output_adapter@_W@__crt_stdio_output@@V?$format_validation_base@_WV?$string_output_adapter@_W@__crt_stdio_output@@@2@@__crt_stdio_output@@AAE_NXZ@@__crt_stdio_output@@YAPAUansi_string@?1??type_case_Z@?$output_processor@_WV?$string_output_adapter@_W@__crt_stdio_output@@V?$format_validation_base@_WV?$string_output_adapter@_W@__crt_stdio_output@@@2@@0@AAE_NXZ@AAPAD@Z 1002d151 f i libucrt:output.obj
 0001:0002c163       ??$read_va_arg@PAUansi_string@?1??type_case_Z@?$output_processor@_WV?$string_output_adapter@_W@__crt_stdio_output@@V?$positional_parameter_base@_WV?$string_output_adapter@_W@__crt_stdio_output@@@2@@__crt_stdio_output@@AAE_NXZ@@__crt_stdio_output@@YAPAUansi_string@?1??type_case_Z@?$output_processor@_WV?$string_output_adapter@_W@__crt_stdio_output@@V?$positional_parameter_base@_WV?$string_output_adapter@_W@__crt_stdio_output@@@2@@0@AAE_NXZ@AAPAD@Z 1002d163 f i libucrt:output.obj
 0001:0002c175       ??$read_va_arg@PAUansi_string@?1??type_case_Z@?$output_processor@_WV?$string_output_adapter@_W@__crt_stdio_output@@V?$standard_base@_WV?$string_output_adapter@_W@__crt_stdio_output@@@2@@__crt_stdio_output@@AAE_NXZ@@__crt_stdio_output@@YAPAUansi_string@?1??type_case_Z@?$output_processor@_WV?$string_output_adapter@_W@__crt_stdio_output@@V?$standard_base@_WV?$string_output_adapter@_W@__crt_stdio_output@@@2@@0@AAE_NXZ@AAPAD@Z 1002d175 f i libucrt:output.obj
 0001:0002c187       ??$read_va_arg@PAX@__crt_stdio_output@@YAPAXAAPAD@Z 1002d187 f i libucrt:output.obj
 0001:0002c199       ??$read_va_arg@U_CRT_DOUBLE@@@__crt_stdio_output@@YA?AU_CRT_DOUBLE@@AAPAD@Z 1002d199 f i libucrt:output.obj
 0001:0002c1af       ??$read_va_arg@_J@__crt_stdio_output@@YA_JAAPAD@Z 1002d1af f i libucrt:output.obj
 0001:0002c1c4       ??$read_va_arg@_K@__crt_stdio_output@@YA_KAAPAD@Z 1002d1c4 f i libucrt:output.obj
 0001:0002c1d9       ??$read_va_arg@_W@__crt_stdio_output@@YA_WAAPAD@Z 1002d1d9 f i libucrt:output.obj
 0001:0002c1ec       ??$scratch_count@D@formatting_buffer@__crt_stdio_output@@QBEIXZ 1002d1ec f i libucrt:output.obj
 0001:0002c1f1       ??$scratch_data@D@formatting_buffer@__crt_stdio_output@@QAEPADXZ 1002d1f1 f i libucrt:output.obj
 0001:0002c20f       ??$type_case_integer@$07@?$output_processor@DV?$stream_output_adapter@D@__crt_stdio_output@@V?$format_validation_base@DV?$stream_output_adapter@D@__crt_stdio_output@@@2@@__crt_stdio_output@@AAE_N_N@Z 1002d20f f i libucrt:output.obj
 0001:0002c38c       ??$type_case_integer@$07@?$output_processor@DV?$stream_output_adapter@D@__crt_stdio_output@@V?$positional_parameter_base@DV?$stream_output_adapter@D@__crt_stdio_output@@@2@@__crt_stdio_output@@AAE_N_N@Z 1002d38c f i libucrt:output.obj
 0001:0002c51d       ??$type_case_integer@$07@?$output_processor@DV?$stream_output_adapter@D@__crt_stdio_output@@V?$standard_base@DV?$stream_output_adapter@D@__crt_stdio_output@@@2@@__crt_stdio_output@@AAE_N_N@Z 1002d51d f i libucrt:output.obj
 0001:0002c69a       ??$type_case_integer@$07@?$output_processor@DV?$string_output_adapter@D@__crt_stdio_output@@V?$format_validation_base@DV?$string_output_adapter@D@__crt_stdio_output@@@2@@__crt_stdio_output@@AAE_N_N@Z 1002d69a f i libucrt:output.obj
 0001:0002c817       ??$type_case_integer@$07@?$output_processor@DV?$string_output_adapter@D@__crt_stdio_output@@V?$positional_parameter_base@DV?$string_output_adapter@D@__crt_stdio_output@@@2@@__crt_stdio_output@@AAE_N_N@Z 1002d817 f i libucrt:output.obj
 0001:0002c9a8       ??$type_case_integer@$07@?$output_processor@DV?$string_output_adapter@D@__crt_stdio_output@@V?$standard_base@DV?$string_output_adapter@D@__crt_stdio_output@@@2@@__crt_stdio_output@@AAE_N_N@Z 1002d9a8 f i libucrt:output.obj
 0001:0002cb25       ??$type_case_integer@$07@?$output_processor@_WV?$stream_output_adapter@_W@__crt_stdio_output@@V?$format_validation_base@_WV?$stream_output_adapter@_W@__crt_stdio_output@@@2@@__crt_stdio_output@@AAE_N_N@Z 1002db25 f i libucrt:output.obj
 0001:0002cca7       ??$type_case_integer@$07@?$output_processor@_WV?$stream_output_adapter@_W@__crt_stdio_output@@V?$positional_parameter_base@_WV?$stream_output_adapter@_W@__crt_stdio_output@@@2@@__crt_stdio_output@@AAE_N_N@Z 1002dca7 f i libucrt:output.obj
 0001:0002ce3c       ??$type_case_integer@$07@?$output_processor@_WV?$stream_output_adapter@_W@__crt_stdio_output@@V?$standard_base@_WV?$stream_output_adapter@_W@__crt_stdio_output@@@2@@__crt_stdio_output@@AAE_N_N@Z 1002de3c f i libucrt:output.obj
 0001:0002cfbe       ??$type_case_integer@$07@?$output_processor@_WV?$string_output_adapter@_W@__crt_stdio_output@@V?$format_validation_base@_WV?$string_output_adapter@_W@__crt_stdio_output@@@2@@__crt_stdio_output@@AAE_N_N@Z 1002dfbe f i libucrt:output.obj
 0001:0002d140       ??$type_case_integer@$07@?$output_processor@_WV?$string_output_adapter@_W@__crt_stdio_output@@V?$positional_parameter_base@_WV?$string_output_adapter@_W@__crt_stdio_output@@@2@@__crt_stdio_output@@AAE_N_N@Z 1002e140 f i libucrt:output.obj
 0001:0002d2d5       ??$type_case_integer@$07@?$output_processor@_WV?$string_output_adapter@_W@__crt_stdio_output@@V?$standard_base@_WV?$string_output_adapter@_W@__crt_stdio_output@@@2@@__crt_stdio_output@@AAE_N_N@Z 1002e2d5 f i libucrt:output.obj
 0001:0002d457       ??$type_case_integer@$09@?$output_processor@DV?$stream_output_adapter@D@__crt_stdio_output@@V?$format_validation_base@DV?$stream_output_adapter@D@__crt_stdio_output@@@2@@__crt_stdio_output@@AAE_N_N@Z 1002e457 f i libucrt:output.obj
 0001:0002d5d4       ??$type_case_integer@$09@?$output_processor@DV?$stream_output_adapter@D@__crt_stdio_output@@V?$positional_parameter_base@DV?$stream_output_adapter@D@__crt_stdio_output@@@2@@__crt_stdio_output@@AAE_N_N@Z 1002e5d4 f i libucrt:output.obj
 0001:0002d765       ??$type_case_integer@$09@?$output_processor@DV?$stream_output_adapter@D@__crt_stdio_output@@V?$standard_base@DV?$stream_output_adapter@D@__crt_stdio_output@@@2@@__crt_stdio_output@@AAE_N_N@Z 1002e765 f i libucrt:output.obj
 0001:0002d8e2       ??$type_case_integer@$09@?$output_processor@DV?$string_output_adapter@D@__crt_stdio_output@@V?$format_validation_base@DV?$string_output_adapter@D@__crt_stdio_output@@@2@@__crt_stdio_output@@AAE_N_N@Z 1002e8e2 f i libucrt:output.obj
 0001:0002da5f       ??$type_case_integer@$09@?$output_processor@DV?$string_output_adapter@D@__crt_stdio_output@@V?$positional_parameter_base@DV?$string_output_adapter@D@__crt_stdio_output@@@2@@__crt_stdio_output@@AAE_N_N@Z 1002ea5f f i libucrt:output.obj
 0001:0002dbf0       ??$type_case_integer@$09@?$output_processor@DV?$string_output_adapter@D@__crt_stdio_output@@V?$standard_base@DV?$string_output_adapter@D@__crt_stdio_output@@@2@@__crt_stdio_output@@AAE_N_N@Z 1002ebf0 f i libucrt:output.obj
 0001:0002dd6d       ??$type_case_integer@$09@?$output_processor@_WV?$stream_output_adapter@_W@__crt_stdio_output@@V?$format_validation_base@_WV?$stream_output_adapter@_W@__crt_stdio_output@@@2@@__crt_stdio_output@@AAE_N_N@Z 1002ed6d f i libucrt:output.obj
 0001:0002deef       ??$type_case_integer@$09@?$output_processor@_WV?$stream_output_adapter@_W@__crt_stdio_output@@V?$positional_parameter_base@_WV?$stream_output_adapter@_W@__crt_stdio_output@@@2@@__crt_stdio_output@@AAE_N_N@Z 1002eeef f i libucrt:output.obj
 0001:0002e084       ??$type_case_integer@$09@?$output_processor@_WV?$stream_output_adapter@_W@__crt_stdio_output@@V?$standard_base@_WV?$stream_output_adapter@_W@__crt_stdio_output@@@2@@__crt_stdio_output@@AAE_N_N@Z 1002f084 f i libucrt:output.obj
 0001:0002e206       ??$type_case_integer@$09@?$output_processor@_WV?$string_output_adapter@_W@__crt_stdio_output@@V?$format_validation_base@_WV?$string_output_adapter@_W@__crt_stdio_output@@@2@@__crt_stdio_output@@AAE_N_N@Z 1002f206 f i libucrt:output.obj
 0001:0002e388       ??$type_case_integer@$09@?$output_processor@_WV?$string_output_adapter@_W@__crt_stdio_output@@V?$positional_parameter_base@_WV?$string_output_adapter@_W@__crt_stdio_output@@@2@@__crt_stdio_output@@AAE_N_N@Z 1002f388 f i libucrt:output.obj
 0001:0002e51d       ??$type_case_integer@$09@?$output_processor@_WV?$string_output_adapter@_W@__crt_stdio_output@@V?$standard_base@_WV?$string_output_adapter@_W@__crt_stdio_output@@@2@@__crt_stdio_output@@AAE_N_N@Z 1002f51d f i libucrt:output.obj
 0001:0002e69f       ??$type_case_integer@$0BA@@?$output_processor@DV?$stream_output_adapter@D@__crt_stdio_output@@V?$format_validation_base@DV?$stream_output_adapter@D@__crt_stdio_output@@@2@@__crt_stdio_output@@AAE_N_N@Z 1002f69f f i libucrt:output.obj
 0001:0002e81c       ??$type_case_integer@$0BA@@?$output_processor@DV?$stream_output_adapter@D@__crt_stdio_output@@V?$positional_parameter_base@DV?$stream_output_adapter@D@__crt_stdio_output@@@2@@__crt_stdio_output@@AAE_N_N@Z 1002f81c f i libucrt:output.obj
 0001:0002e9ad       ??$type_case_integer@$0BA@@?$output_processor@DV?$stream_output_adapter@D@__crt_stdio_output@@V?$standard_base@DV?$stream_output_adapter@D@__crt_stdio_output@@@2@@__crt_stdio_output@@AAE_N_N@Z 1002f9ad f i libucrt:output.obj
 0001:0002eb2a       ??$type_case_integer@$0BA@@?$output_processor@DV?$string_output_adapter@D@__crt_stdio_output@@V?$format_validation_base@DV?$string_output_adapter@D@__crt_stdio_output@@@2@@__crt_stdio_output@@AAE_N_N@Z 1002fb2a f i libucrt:output.obj
 0001:0002eca7       ??$type_case_integer@$0BA@@?$output_processor@DV?$string_output_adapter@D@__crt_stdio_output@@V?$positional_parameter_base@DV?$string_output_adapter@D@__crt_stdio_output@@@2@@__crt_stdio_output@@AAE_N_N@Z 1002fca7 f i libucrt:output.obj
 0001:0002ee38       ??$type_case_integer@$0BA@@?$output_processor@DV?$string_output_adapter@D@__crt_stdio_output@@V?$standard_base@DV?$string_output_adapter@D@__crt_stdio_output@@@2@@__crt_stdio_output@@AAE_N_N@Z 1002fe38 f i libucrt:output.obj
 0001:0002efb5       ??$type_case_integer@$0BA@@?$output_processor@_WV?$stream_output_adapter@_W@__crt_stdio_output@@V?$format_validation_base@_WV?$stream_output_adapter@_W@__crt_stdio_output@@@2@@__crt_stdio_output@@AAE_N_N@Z 1002ffb5 f i libucrt:output.obj
 0001:0002f137       ??$type_case_integer@$0BA@@?$output_processor@_WV?$stream_output_adapter@_W@__crt_stdio_output@@V?$positional_parameter_base@_WV?$stream_output_adapter@_W@__crt_stdio_output@@@2@@__crt_stdio_output@@AAE_N_N@Z 10030137 f i libucrt:output.obj
 0001:0002f2cc       ??$type_case_integer@$0BA@@?$output_processor@_WV?$stream_output_adapter@_W@__crt_stdio_output@@V?$standard_base@_WV?$stream_output_adapter@_W@__crt_stdio_output@@@2@@__crt_stdio_output@@AAE_N_N@Z 100302cc f i libucrt:output.obj
 0001:0002f44e       ??$type_case_integer@$0BA@@?$output_processor@_WV?$string_output_adapter@_W@__crt_stdio_output@@V?$format_validation_base@_WV?$string_output_adapter@_W@__crt_stdio_output@@@2@@__crt_stdio_output@@AAE_N_N@Z 1003044e f i libucrt:output.obj
 0001:0002f5d0       ??$type_case_integer@$0BA@@?$output_processor@_WV?$string_output_adapter@_W@__crt_stdio_output@@V?$positional_parameter_base@_WV?$string_output_adapter@_W@__crt_stdio_output@@@2@@__crt_stdio_output@@AAE_N_N@Z 100305d0 f i libucrt:output.obj
 0001:0002f765       ??$type_case_integer@$0BA@@?$output_processor@_WV?$string_output_adapter@_W@__crt_stdio_output@@V?$standard_base@_WV?$string_output_adapter@_W@__crt_stdio_output@@@2@@__crt_stdio_output@@AAE_N_N@Z 10030765 f i libucrt:output.obj
 0001:0002f8e7       ??$type_case_integer_parse_into_buffer@I$07@?$output_processor@DV?$stream_output_adapter@D@__crt_stdio_output@@V?$format_validation_base@DV?$stream_output_adapter@D@__crt_stdio_output@@@2@@__crt_stdio_output@@AAEXI_N@Z 100308e7 f i libucrt:output.obj
 0001:0002f951       ??$type_case_integer_parse_into_buffer@I$07@?$output_processor@DV?$stream_output_adapter@D@__crt_stdio_output@@V?$positional_parameter_base@DV?$stream_output_adapter@D@__crt_stdio_output@@@2@@__crt_stdio_output@@AAEXI_N@Z 10030951 f i libucrt:output.obj
 0001:0002f9bb       ??$type_case_integer_parse_into_buffer@I$07@?$output_processor@DV?$stream_output_adapter@D@__crt_stdio_output@@V?$standard_base@DV?$stream_output_adapter@D@__crt_stdio_output@@@2@@__crt_stdio_output@@AAEXI_N@Z 100309bb f i libucrt:output.obj
 0001:0002fa25       ??$type_case_integer_parse_into_buffer@I$07@?$output_processor@DV?$string_output_adapter@D@__crt_stdio_output@@V?$format_validation_base@DV?$string_output_adapter@D@__crt_stdio_output@@@2@@__crt_stdio_output@@AAEXI_N@Z 10030a25 f i libucrt:output.obj
 0001:0002fa8f       ??$type_case_integer_parse_into_buffer@I$07@?$output_processor@DV?$string_output_adapter@D@__crt_stdio_output@@V?$positional_parameter_base@DV?$string_output_adapter@D@__crt_stdio_output@@@2@@__crt_stdio_output@@AAEXI_N@Z 10030a8f f i libucrt:output.obj
 0001:0002faf9       ??$type_case_integer_parse_into_buffer@I$07@?$output_processor@DV?$string_output_adapter@D@__crt_stdio_output@@V?$standard_base@DV?$string_output_adapter@D@__crt_stdio_output@@@2@@__crt_stdio_output@@AAEXI_N@Z 10030af9 f i libucrt:output.obj
 0001:0002fb63       ??$type_case_integer_parse_into_buffer@I$07@?$output_processor@_WV?$stream_output_adapter@_W@__crt_stdio_output@@V?$format_validation_base@_WV?$stream_output_adapter@_W@__crt_stdio_output@@@2@@__crt_stdio_output@@AAEXI_N@Z 10030b63 f i libucrt:output.obj
 0001:0002fbd0       ??$type_case_integer_parse_into_buffer@I$07@?$output_processor@_WV?$stream_output_adapter@_W@__crt_stdio_output@@V?$positional_parameter_base@_WV?$stream_output_adapter@_W@__crt_stdio_output@@@2@@__crt_stdio_output@@AAEXI_N@Z 10030bd0 f i libucrt:output.obj
 0001:0002fc3d       ??$type_case_integer_parse_into_buffer@I$07@?$output_processor@_WV?$stream_output_adapter@_W@__crt_stdio_output@@V?$standard_base@_WV?$stream_output_adapter@_W@__crt_stdio_output@@@2@@__crt_stdio_output@@AAEXI_N@Z 10030c3d f i libucrt:output.obj
 0001:0002fcaa       ??$type_case_integer_parse_into_buffer@I$07@?$output_processor@_WV?$string_output_adapter@_W@__crt_stdio_output@@V?$format_validation_base@_WV?$string_output_adapter@_W@__crt_stdio_output@@@2@@__crt_stdio_output@@AAEXI_N@Z 10030caa f i libucrt:output.obj
 0001:0002fd17       ??$type_case_integer_parse_into_buffer@I$07@?$output_processor@_WV?$string_output_adapter@_W@__crt_stdio_output@@V?$positional_parameter_base@_WV?$string_output_adapter@_W@__crt_stdio_output@@@2@@__crt_stdio_output@@AAEXI_N@Z 10030d17 f i libucrt:output.obj
 0001:0002fd84       ??$type_case_integer_parse_into_buffer@I$07@?$output_processor@_WV?$string_output_adapter@_W@__crt_stdio_output@@V?$standard_base@_WV?$string_output_adapter@_W@__crt_stdio_output@@@2@@__crt_stdio_output@@AAEXI_N@Z 10030d84 f i libucrt:output.obj
 0001:0002fdf1       ??$type_case_integer_parse_into_buffer@I$09@?$output_processor@DV?$stream_output_adapter@D@__crt_stdio_output@@V?$format_validation_base@DV?$stream_output_adapter@D@__crt_stdio_output@@@2@@__crt_stdio_output@@AAEXI_N@Z 10030df1 f i libucrt:output.obj
 0001:0002fe6b       ??$type_case_integer_parse_into_buffer@I$09@?$output_processor@DV?$stream_output_adapter@D@__crt_stdio_output@@V?$positional_parameter_base@DV?$stream_output_adapter@D@__crt_stdio_output@@@2@@__crt_stdio_output@@AAEXI_N@Z 10030e6b f i libucrt:output.obj
 0001:0002fee5       ??$type_case_integer_parse_into_buffer@I$09@?$output_processor@DV?$stream_output_adapter@D@__crt_stdio_output@@V?$standard_base@DV?$stream_output_adapter@D@__crt_stdio_output@@@2@@__crt_stdio_output@@AAEXI_N@Z 10030ee5 f i libucrt:output.obj
 0001:0002ff5f       ??$type_case_integer_parse_into_buffer@I$09@?$output_processor@DV?$string_output_adapter@D@__crt_stdio_output@@V?$format_validation_base@DV?$string_output_adapter@D@__crt_stdio_output@@@2@@__crt_stdio_output@@AAEXI_N@Z 10030f5f f i libucrt:output.obj
 0001:0002ffd9       ??$type_case_integer_parse_into_buffer@I$09@?$output_processor@DV?$string_output_adapter@D@__crt_stdio_output@@V?$positional_parameter_base@DV?$string_output_adapter@D@__crt_stdio_output@@@2@@__crt_stdio_output@@AAEXI_N@Z 10030fd9 f i libucrt:output.obj
 0001:00030053       ??$type_case_integer_parse_into_buffer@I$09@?$output_processor@DV?$string_output_adapter@D@__crt_stdio_output@@V?$standard_base@DV?$string_output_adapter@D@__crt_stdio_output@@@2@@__crt_stdio_output@@AAEXI_N@Z 10031053 f i libucrt:output.obj
 0001:000300cd       ??$type_case_integer_parse_into_buffer@I$09@?$output_processor@_WV?$stream_output_adapter@_W@__crt_stdio_output@@V?$format_validation_base@_WV?$stream_output_adapter@_W@__crt_stdio_output@@@2@@__crt_stdio_output@@AAEXI_N@Z 100310cd f i libucrt:output.obj
 0001:0003015c       ??$type_case_integer_parse_into_buffer@I$09@?$output_processor@_WV?$stream_output_adapter@_W@__crt_stdio_output@@V?$positional_parameter_base@_WV?$stream_output_adapter@_W@__crt_stdio_output@@@2@@__crt_stdio_output@@AAEXI_N@Z 1003115c f i libucrt:output.obj
 0001:000301eb       ??$type_case_integer_parse_into_buffer@I$09@?$output_processor@_WV?$stream_output_adapter@_W@__crt_stdio_output@@V?$standard_base@_WV?$stream_output_adapter@_W@__crt_stdio_output@@@2@@__crt_stdio_output@@AAEXI_N@Z 100311eb f i libucrt:output.obj
 0001:0003027a       ??$type_case_integer_parse_into_buffer@I$09@?$output_processor@_WV?$string_output_adapter@_W@__crt_stdio_output@@V?$format_validation_base@_WV?$string_output_adapter@_W@__crt_stdio_output@@@2@@__crt_stdio_output@@AAEXI_N@Z 1003127a f i libucrt:output.obj
 0001:00030309       ??$type_case_integer_parse_into_buffer@I$09@?$output_processor@_WV?$string_output_adapter@_W@__crt_stdio_output@@V?$positional_parameter_base@_WV?$string_output_adapter@_W@__crt_stdio_output@@@2@@__crt_stdio_output@@AAEXI_N@Z 10031309 f i libucrt:output.obj
 0001:00030398       ??$type_case_integer_parse_into_buffer@I$09@?$output_processor@_WV?$string_output_adapter@_W@__crt_stdio_output@@V?$standard_base@_WV?$string_output_adapter@_W@__crt_stdio_output@@@2@@__crt_stdio_output@@AAEXI_N@Z 10031398 f i libucrt:output.obj
 0001:00030427       ??$type_case_integer_parse_into_buffer@I$0BA@@?$output_processor@DV?$stream_output_adapter@D@__crt_stdio_output@@V?$format_validation_base@DV?$stream_output_adapter@D@__crt_stdio_output@@@2@@__crt_stdio_output@@AAEXI_N@Z 10031427 f i libucrt:output.obj
 0001:000304af       ??$type_case_integer_parse_into_buffer@I$0BA@@?$output_processor@DV?$stream_output_adapter@D@__crt_stdio_output@@V?$positional_parameter_base@DV?$stream_output_adapter@D@__crt_stdio_output@@@2@@__crt_stdio_output@@AAEXI_N@Z 100314af f i libucrt:output.obj
 0001:00030537       ??$type_case_integer_parse_into_buffer@I$0BA@@?$output_processor@DV?$stream_output_adapter@D@__crt_stdio_output@@V?$standard_base@DV?$stream_output_adapter@D@__crt_stdio_output@@@2@@__crt_stdio_output@@AAEXI_N@Z 10031537 f i libucrt:output.obj
 0001:000305bf       ??$type_case_integer_parse_into_buffer@I$0BA@@?$output_processor@DV?$string_output_adapter@D@__crt_stdio_output@@V?$format_validation_base@DV?$string_output_adapter@D@__crt_stdio_output@@@2@@__crt_stdio_output@@AAEXI_N@Z 100315bf f i libucrt:output.obj
 0001:00030647       ??$type_case_integer_parse_into_buffer@I$0BA@@?$output_processor@DV?$string_output_adapter@D@__crt_stdio_output@@V?$positional_parameter_base@DV?$string_output_adapter@D@__crt_stdio_output@@@2@@__crt_stdio_output@@AAEXI_N@Z 10031647 f i libucrt:output.obj
 0001:000306cf       ??$type_case_integer_parse_into_buffer@I$0BA@@?$output_processor@DV?$string_output_adapter@D@__crt_stdio_output@@V?$standard_base@DV?$string_output_adapter@D@__crt_stdio_output@@@2@@__crt_stdio_output@@AAEXI_N@Z 100316cf f i libucrt:output.obj
 0001:00030757       ??$type_case_integer_parse_into_buffer@I$0BA@@?$output_processor@_WV?$stream_output_adapter@_W@__crt_stdio_output@@V?$format_validation_base@_WV?$stream_output_adapter@_W@__crt_stdio_output@@@2@@__crt_stdio_output@@AAEXI_N@Z 10031757 f i libucrt:output.obj
 0001:000307e4       ??$type_case_integer_parse_into_buffer@I$0BA@@?$output_processor@_WV?$stream_output_adapter@_W@__crt_stdio_output@@V?$positional_parameter_base@_WV?$stream_output_adapter@_W@__crt_stdio_output@@@2@@__crt_stdio_output@@AAEXI_N@Z 100317e4 f i libucrt:output.obj
 0001:00030871       ??$type_case_integer_parse_into_buffer@I$0BA@@?$output_processor@_WV?$stream_output_adapter@_W@__crt_stdio_output@@V?$standard_base@_WV?$stream_output_adapter@_W@__crt_stdio_output@@@2@@__crt_stdio_output@@AAEXI_N@Z 10031871 f i libucrt:output.obj
 0001:000308fe       ??$type_case_integer_parse_into_buffer@I$0BA@@?$output_processor@_WV?$string_output_adapter@_W@__crt_stdio_output@@V?$format_validation_base@_WV?$string_output_adapter@_W@__crt_stdio_output@@@2@@__crt_stdio_output@@AAEXI_N@Z 100318fe f i libucrt:output.obj
 0001:0003098b       ??$type_case_integer_parse_into_buffer@I$0BA@@?$output_processor@_WV?$string_output_adapter@_W@__crt_stdio_output@@V?$positional_parameter_base@_WV?$string_output_adapter@_W@__crt_stdio_output@@@2@@__crt_stdio_output@@AAEXI_N@Z 1003198b f i libucrt:output.obj
 0001:00030a18       ??$type_case_integer_parse_into_buffer@I$0BA@@?$output_processor@_WV?$string_output_adapter@_W@__crt_stdio_output@@V?$standard_base@_WV?$string_output_adapter@_W@__crt_stdio_output@@@2@@__crt_stdio_output@@AAEXI_N@Z 10031a18 f i libucrt:output.obj
 0001:00030aa5       ??$type_case_integer_parse_into_buffer@_K$07@?$output_processor@DV?$stream_output_adapter@D@__crt_stdio_output@@V?$format_validation_base@DV?$stream_output_adapter@D@__crt_stdio_output@@@2@@__crt_stdio_output@@AAEX_K_N@Z 10031aa5 f i libucrt:output.obj
 0001:00030b1d       ??$type_case_integer_parse_into_buffer@_K$07@?$output_processor@DV?$stream_output_adapter@D@__crt_stdio_output@@V?$positional_parameter_base@DV?$stream_output_adapter@D@__crt_stdio_output@@@2@@__crt_stdio_output@@AAEX_K_N@Z 10031b1d f i libucrt:output.obj
 0001:00030b95       ??$type_case_integer_parse_into_buffer@_K$07@?$output_processor@DV?$stream_output_adapter@D@__crt_stdio_output@@V?$standard_base@DV?$stream_output_adapter@D@__crt_stdio_output@@@2@@__crt_stdio_output@@AAEX_K_N@Z 10031b95 f i libucrt:output.obj
 0001:00030c0d       ??$type_case_integer_parse_into_buffer@_K$07@?$output_processor@DV?$string_output_adapter@D@__crt_stdio_output@@V?$format_validation_base@DV?$string_output_adapter@D@__crt_stdio_output@@@2@@__crt_stdio_output@@AAEX_K_N@Z 10031c0d f i libucrt:output.obj
 0001:00030c85       ??$type_case_integer_parse_into_buffer@_K$07@?$output_processor@DV?$string_output_adapter@D@__crt_stdio_output@@V?$positional_parameter_base@DV?$string_output_adapter@D@__crt_stdio_output@@@2@@__crt_stdio_output@@AAEX_K_N@Z 10031c85 f i libucrt:output.obj
 0001:00030cfd       ??$type_case_integer_parse_into_buffer@_K$07@?$output_processor@DV?$string_output_adapter@D@__crt_stdio_output@@V?$standard_base@DV?$string_output_adapter@D@__crt_stdio_output@@@2@@__crt_stdio_output@@AAEX_K_N@Z 10031cfd f i libucrt:output.obj
 0001:00030d75       ??$type_case_integer_parse_into_buffer@_K$07@?$output_processor@_WV?$stream_output_adapter@_W@__crt_stdio_output@@V?$format_validation_base@_WV?$stream_output_adapter@_W@__crt_stdio_output@@@2@@__crt_stdio_output@@AAEX_K_N@Z 10031d75 f i libucrt:output.obj
 0001:00030dfe       ??$type_case_integer_parse_into_buffer@_K$07@?$output_processor@_WV?$stream_output_adapter@_W@__crt_stdio_output@@V?$positional_parameter_base@_WV?$stream_output_adapter@_W@__crt_stdio_output@@@2@@__crt_stdio_output@@AAEX_K_N@Z 10031dfe f i libucrt:output.obj
 0001:00030e87       ??$type_case_integer_parse_into_buffer@_K$07@?$output_processor@_WV?$stream_output_adapter@_W@__crt_stdio_output@@V?$standard_base@_WV?$stream_output_adapter@_W@__crt_stdio_output@@@2@@__crt_stdio_output@@AAEX_K_N@Z 10031e87 f i libucrt:output.obj
 0001:00030f10       ??$type_case_integer_parse_into_buffer@_K$07@?$output_processor@_WV?$string_output_adapter@_W@__crt_stdio_output@@V?$format_validation_base@_WV?$string_output_adapter@_W@__crt_stdio_output@@@2@@__crt_stdio_output@@AAEX_K_N@Z 10031f10 f i libucrt:output.obj
 0001:00030f99       ??$type_case_integer_parse_into_buffer@_K$07@?$output_processor@_WV?$string_output_adapter@_W@__crt_stdio_output@@V?$positional_parameter_base@_WV?$string_output_adapter@_W@__crt_stdio_output@@@2@@__crt_stdio_output@@AAEX_K_N@Z 10031f99 f i libucrt:output.obj
 0001:00031022       ??$type_case_integer_parse_into_buffer@_K$07@?$output_processor@_WV?$string_output_adapter@_W@__crt_stdio_output@@V?$standard_base@_WV?$string_output_adapter@_W@__crt_stdio_output@@@2@@__crt_stdio_output@@AAEX_K_N@Z 10032022 f i libucrt:output.obj
 0001:000310ab       ??$type_case_integer_parse_into_buffer@_K$09@?$output_processor@DV?$stream_output_adapter@D@__crt_stdio_output@@V?$format_validation_base@DV?$stream_output_adapter@D@__crt_stdio_output@@@2@@__crt_stdio_output@@AAEX_K_N@Z 100320ab f i libucrt:output.obj
 0001:00031147       ??$type_case_integer_parse_into_buffer@_K$09@?$output_processor@DV?$stream_output_adapter@D@__crt_stdio_output@@V?$positional_parameter_base@DV?$stream_output_adapter@D@__crt_stdio_output@@@2@@__crt_stdio_output@@AAEX_K_N@Z 10032147 f i libucrt:output.obj
 0001:000311e3       ??$type_case_integer_parse_into_buffer@_K$09@?$output_processor@DV?$stream_output_adapter@D@__crt_stdio_output@@V?$standard_base@DV?$stream_output_adapter@D@__crt_stdio_output@@@2@@__crt_stdio_output@@AAEX_K_N@Z 100321e3 f i libucrt:output.obj
 0001:0003127f       ??$type_case_integer_parse_into_buffer@_K$09@?$output_processor@DV?$string_output_adapter@D@__crt_stdio_output@@V?$format_validation_base@DV?$string_output_adapter@D@__crt_stdio_output@@@2@@__crt_stdio_output@@AAEX_K_N@Z 1003227f f i libucrt:output.obj
 0001:0003131b       ??$type_case_integer_parse_into_buffer@_K$09@?$output_processor@DV?$string_output_adapter@D@__crt_stdio_output@@V?$positional_parameter_base@DV?$string_output_adapter@D@__crt_stdio_output@@@2@@__crt_stdio_output@@AAEX_K_N@Z 1003231b f i libucrt:output.obj
 0001:000313b7       ??$type_case_integer_parse_into_buffer@_K$09@?$output_processor@DV?$string_output_adapter@D@__crt_stdio_output@@V?$standard_base@DV?$string_output_adapter@D@__crt_stdio_output@@@2@@__crt_stdio_output@@AAEX_K_N@Z 100323b7 f i libucrt:output.obj
 0001:00031453       ??$type_case_integer_parse_into_buffer@_K$09@?$output_processor@_WV?$stream_output_adapter@_W@__crt_stdio_output@@V?$format_validation_base@_WV?$stream_output_adapter@_W@__crt_stdio_output@@@2@@__crt_stdio_output@@AAEX_K_N@Z 10032453 f i libucrt:output.obj
 0001:00031502       ??$type_case_integer_parse_into_buffer@_K$09@?$output_processor@_WV?$stream_output_adapter@_W@__crt_stdio_output@@V?$positional_parameter_base@_WV?$stream_output_adapter@_W@__crt_stdio_output@@@2@@__crt_stdio_output@@AAEX_K_N@Z 10032502 f i libucrt:output.obj
 0001:000315b1       ??$type_case_integer_parse_into_buffer@_K$09@?$output_processor@_WV?$stream_output_adapter@_W@__crt_stdio_output@@V?$standard_base@_WV?$stream_output_adapter@_W@__crt_stdio_output@@@2@@__crt_stdio_output@@AAEX_K_N@Z 100325b1 f i libucrt:output.obj
 0001:00031660       ??$type_case_integer_parse_into_buffer@_K$09@?$output_processor@_WV?$string_output_adapter@_W@__crt_stdio_output@@V?$format_validation_base@_WV?$string_output_adapter@_W@__crt_stdio_output@@@2@@__crt_stdio_output@@AAEX_K_N@Z 10032660 f i libucrt:output.obj
 0001:0003170f       ??$type_case_integer_parse_into_buffer@_K$09@?$output_processor@_WV?$string_output_adapter@_W@__crt_stdio_output@@V?$positional_parameter_base@_WV?$string_output_adapter@_W@__crt_stdio_output@@@2@@__crt_stdio_output@@AAEX_K_N@Z 1003270f f i libucrt:output.obj
 0001:000317be       ??$type_case_integer_parse_into_buffer@_K$09@?$output_processor@_WV?$string_output_adapter@_W@__crt_stdio_output@@V?$standard_base@_WV?$string_output_adapter@_W@__crt_stdio_output@@@2@@__crt_stdio_output@@AAEX_K_N@Z 100327be f i libucrt:output.obj
 0001:0003186d       ??$type_case_integer_parse_into_buffer@_K$0BA@@?$output_processor@DV?$stream_output_adapter@D@__crt_stdio_output@@V?$format_validation_base@DV?$stream_output_adapter@D@__crt_stdio_output@@@2@@__crt_stdio_output@@AAEX_K_N@Z 1003286d f i libucrt:output.obj
 0001:000318ff       ??$type_case_integer_parse_into_buffer@_K$0BA@@?$output_processor@DV?$stream_output_adapter@D@__crt_stdio_output@@V?$positional_parameter_base@DV?$stream_output_adapter@D@__crt_stdio_output@@@2@@__crt_stdio_output@@AAEX_K_N@Z 100328ff f i libucrt:output.obj
 0001:00031991       ??$type_case_integer_parse_into_buffer@_K$0BA@@?$output_processor@DV?$stream_output_adapter@D@__crt_stdio_output@@V?$standard_base@DV?$stream_output_adapter@D@__crt_stdio_output@@@2@@__crt_stdio_output@@AAEX_K_N@Z 10032991 f i libucrt:output.obj
 0001:00031a23       ??$type_case_integer_parse_into_buffer@_K$0BA@@?$output_processor@DV?$string_output_adapter@D@__crt_stdio_output@@V?$format_validation_base@DV?$string_output_adapter@D@__crt_stdio_output@@@2@@__crt_stdio_output@@AAEX_K_N@Z 10032a23 f i libucrt:output.obj
 0001:00031ab5       ??$type_case_integer_parse_into_buffer@_K$0BA@@?$output_processor@DV?$string_output_adapter@D@__crt_stdio_output@@V?$positional_parameter_base@DV?$string_output_adapter@D@__crt_stdio_output@@@2@@__crt_stdio_output@@AAEX_K_N@Z 10032ab5 f i libucrt:output.obj
 0001:00031b47       ??$type_case_integer_parse_into_buffer@_K$0BA@@?$output_processor@DV?$string_output_adapter@D@__crt_stdio_output@@V?$standard_base@DV?$string_output_adapter@D@__crt_stdio_output@@@2@@__crt_stdio_output@@AAEX_K_N@Z 10032b47 f i libucrt:output.obj
 0001:00031bd9       ??$type_case_integer_parse_into_buffer@_K$0BA@@?$output_processor@_WV?$stream_output_adapter@_W@__crt_stdio_output@@V?$format_validation_base@_WV?$stream_output_adapter@_W@__crt_stdio_output@@@2@@__crt_stdio_output@@AAEX_K_N@Z 10032bd9 f i libucrt:output.obj
 0001:00031c74       ??$type_case_integer_parse_into_buffer@_K$0BA@@?$output_processor@_WV?$stream_output_adapter@_W@__crt_stdio_output@@V?$positional_parameter_base@_WV?$stream_output_adapter@_W@__crt_stdio_output@@@2@@__crt_stdio_output@@AAEX_K_N@Z 10032c74 f i libucrt:output.obj
 0001:00031d0f       ??$type_case_integer_parse_into_buffer@_K$0BA@@?$output_processor@_WV?$stream_output_adapter@_W@__crt_stdio_output@@V?$standard_base@_WV?$stream_output_adapter@_W@__crt_stdio_output@@@2@@__crt_stdio_output@@AAEX_K_N@Z 10032d0f f i libucrt:output.obj
 0001:00031daa       ??$type_case_integer_parse_into_buffer@_K$0BA@@?$output_processor@_WV?$string_output_adapter@_W@__crt_stdio_output@@V?$format_validation_base@_WV?$string_output_adapter@_W@__crt_stdio_output@@@2@@__crt_stdio_output@@AAEX_K_N@Z 10032daa f i libucrt:output.obj
 0001:00031e45       ??$type_case_integer_parse_into_buffer@_K$0BA@@?$output_processor@_WV?$string_output_adapter@_W@__crt_stdio_output@@V?$positional_parameter_base@_WV?$string_output_adapter@_W@__crt_stdio_output@@@2@@__crt_stdio_output@@AAEX_K_N@Z 10032e45 f i libucrt:output.obj
 0001:00031ee0       ??$type_case_integer_parse_into_buffer@_K$0BA@@?$output_processor@_WV?$string_output_adapter@_W@__crt_stdio_output@@V?$standard_base@_WV?$string_output_adapter@_W@__crt_stdio_output@@@2@@__crt_stdio_output@@AAEX_K_N@Z 10032ee0 f i libucrt:output.obj
 0001:00031f7b       ??$write_multiple_characters@V?$stream_output_adapter@D@__crt_stdio_output@@D@__crt_stdio_output@@YAXABV?$stream_output_adapter@D@0@DHQAHAAV__crt_cached_ptd_host@@@Z 10032f7b f i libucrt:output.obj
 0001:00031faa       ??$write_multiple_characters@V?$stream_output_adapter@_W@__crt_stdio_output@@D@__crt_stdio_output@@YAXABV?$stream_output_adapter@_W@0@DHQAHAAV__crt_cached_ptd_host@@@Z 10032faa f i libucrt:output.obj
 0001:00031fde       ??$write_multiple_characters@V?$string_output_adapter@D@__crt_stdio_output@@D@__crt_stdio_output@@YAXABV?$string_output_adapter@D@0@DHQAHAAV__crt_cached_ptd_host@@@Z 10032fde f i libucrt:output.obj
 0001:0003203f       ??$write_multiple_characters@V?$string_output_adapter@_W@__crt_stdio_output@@D@__crt_stdio_output@@YAXABV?$string_output_adapter@_W@0@DHQAHAAV__crt_cached_ptd_host@@@Z 1003303f f i libucrt:output.obj
 0001:0003226c       ??0?$c_string_character_source@D@__crt_strtox@@QAE@QBDQAPBD@Z 1003326c f i libucrt:output.obj
 0001:00032288       ??0?$c_string_character_source@_W@__crt_strtox@@QAE@QB_WQAPB_W@Z 10033288 f i libucrt:output.obj
 0001:000322a4       ??0?$cached@H@__crt_cached_ptd_host@@QAE@XZ 100332a4 f i libucrt:output.obj
 0001:000322ab       ??0?$cached@K@__crt_cached_ptd_host@@QAE@XZ 100332ab f i libucrt:output.obj
 0001:000322b2       ??0?$common_data@D@__crt_stdio_output@@IAE@AAV__crt_cached_ptd_host@@@Z 100332b2 f i libucrt:output.obj
 0001:000322f9       ??0?$common_data@_W@__crt_stdio_output@@IAE@AAV__crt_cached_ptd_host@@@Z 100332f9 f i libucrt:output.obj
 0001:00032345       ??0?$output_adapter_data@DV?$stream_output_adapter@D@__crt_stdio_output@@@__crt_stdio_output@@IAE@ABV?$stream_output_adapter@D@1@_KQBDAAV__crt_cached_ptd_host@@QAD@Z 10033345 f i libucrt:output.obj
 0001:000323aa       ??0?$output_adapter_data@DV?$string_output_adapter@D@__crt_stdio_output@@@__crt_stdio_output@@IAE@ABV?$string_output_adapter@D@1@_KQBDAAV__crt_cached_ptd_host@@QAD@Z 100333aa f i libucrt:output.obj
 0001:0003240f       ??0?$output_adapter_data@_WV?$stream_output_adapter@_W@__crt_stdio_output@@@__crt_stdio_output@@IAE@ABV?$stream_output_adapter@_W@1@_KQB_WAAV__crt_cached_ptd_host@@QAD@Z 1003340f f i libucrt:output.obj
 0001:00032479       ??0?$output_adapter_data@_WV?$string_output_adapter@_W@__crt_stdio_output@@@__crt_stdio_output@@IAE@ABV?$string_output_adapter@_W@1@_KQB_WAAV__crt_cached_ptd_host@@QAD@Z 10033479 f i libucrt:output.obj
 0001:000324e3       ??0?$output_processor@DV?$stream_output_adapter@D@__crt_stdio_output@@V?$format_validation_base@DV?$stream_output_adapter@D@__crt_stdio_output@@@2@@__crt_stdio_output@@QAE@ABV?$stream_output_adapter@D@1@_KQBDAAV__crt_cached_ptd_host@@QAD@Z 100334e3 f i libucrt:output.obj
 0001:00032510       ??0?$output_processor@DV?$stream_output_adapter@D@__crt_stdio_output@@V?$positional_parameter_base@DV?$stream_output_adapter@D@__crt_stdio_output@@@2@@__crt_stdio_output@@QAE@ABV?$stream_output_adapter@D@1@_KQBDAAV__crt_cached_ptd_host@@QAD@Z 10033510 f i libucrt:output.obj
 0001:00032536       ??0?$output_processor@DV?$stream_output_adapter@D@__crt_stdio_output@@V?$standard_base@DV?$stream_output_adapter@D@__crt_stdio_output@@@2@@__crt_stdio_output@@QAE@ABV?$stream_output_adapter@D@1@_KQBDAAV__crt_cached_ptd_host@@QAD@Z 10033536 f i libucrt:output.obj
 0001:00032563       ??0?$output_processor@DV?$string_output_adapter@D@__crt_stdio_output@@V?$format_validation_base@DV?$string_output_adapter@D@__crt_stdio_output@@@2@@__crt_stdio_output@@QAE@ABV?$string_output_adapter@D@1@_KQBDAAV__crt_cached_ptd_host@@QAD@Z 10033563 f i libucrt:output.obj
 0001:00032590       ??0?$output_processor@DV?$string_output_adapter@D@__crt_stdio_output@@V?$positional_parameter_base@DV?$string_output_adapter@D@__crt_stdio_output@@@2@@__crt_stdio_output@@QAE@ABV?$string_output_adapter@D@1@_KQBDAAV__crt_cached_ptd_host@@QAD@Z 10033590 f i libucrt:output.obj
 0001:000325b6       ??0?$output_processor@DV?$string_output_adapter@D@__crt_stdio_output@@V?$standard_base@DV?$string_output_adapter@D@__crt_stdio_output@@@2@@__crt_stdio_output@@QAE@ABV?$string_output_adapter@D@1@_KQBDAAV__crt_cached_ptd_host@@QAD@Z 100335b6 f i libucrt:output.obj
 0001:000325e3       ??0?$output_processor@_WV?$stream_output_adapter@_W@__crt_stdio_output@@V?$format_validation_base@_WV?$stream_output_adapter@_W@__crt_stdio_output@@@2@@__crt_stdio_output@@QAE@ABV?$stream_output_adapter@_W@1@_KQB_WAAV__crt_cached_ptd_host@@QAD@Z 100335e3 f i libucrt:output.obj
 0001:00032610       ??0?$output_processor@_WV?$stream_output_adapter@_W@__crt_stdio_output@@V?$positional_parameter_base@_WV?$stream_output_adapter@_W@__crt_stdio_output@@@2@@__crt_stdio_output@@QAE@ABV?$stream_output_adapter@_W@1@_KQB_WAAV__crt_cached_ptd_host@@QAD@Z 10033610 f i libucrt:output.obj
 0001:00032636       ??0?$output_processor@_WV?$stream_output_adapter@_W@__crt_stdio_output@@V?$standard_base@_WV?$stream_output_adapter@_W@__crt_stdio_output@@@2@@__crt_stdio_output@@QAE@ABV?$stream_output_adapter@_W@1@_KQB_WAAV__crt_cached_ptd_host@@QAD@Z 10033636 f i libucrt:output.obj
 0001:00032663       ??0?$output_processor@_WV?$string_output_adapter@_W@__crt_stdio_output@@V?$format_validation_base@_WV?$string_output_adapter@_W@__crt_stdio_output@@@2@@__crt_stdio_output@@QAE@ABV?$string_output_adapter@_W@1@_KQB_WAAV__crt_cached_ptd_host@@QAD@Z 10033663 f i libucrt:output.obj
 0001:00032690       ??0?$output_processor@_WV?$string_output_adapter@_W@__crt_stdio_output@@V?$positional_parameter_base@_WV?$string_output_adapter@_W@__crt_stdio_output@@@2@@__crt_stdio_output@@QAE@ABV?$string_output_adapter@_W@1@_KQB_WAAV__crt_cached_ptd_host@@QAD@Z 10033690 f i libucrt:output.obj
 0001:000326b6       ??0?$output_processor@_WV?$string_output_adapter@_W@__crt_stdio_output@@V?$standard_base@_WV?$string_output_adapter@_W@__crt_stdio_output@@@2@@__crt_stdio_output@@QAE@ABV?$string_output_adapter@_W@1@_KQB_WAAV__crt_cached_ptd_host@@QAD@Z 100336b6 f i libucrt:output.obj
 0001:000326e3       ??0?$stream_output_adapter@D@__crt_stdio_output@@QAE@QAU_iobuf@@@Z 100336e3 f i libucrt:output.obj
 0001:000326f3       ??0?$stream_output_adapter@_W@__crt_stdio_output@@QAE@QAU_iobuf@@@Z 100336f3 f i libucrt:output.obj
 0001:00032703       ??0?$string_output_adapter@D@__crt_stdio_output@@QAE@QAU?$string_output_adapter_context@D@1@@Z 10033703 f i libucrt:output.obj
 0001:00032713       ??0?$string_output_adapter@_W@__crt_stdio_output@@QAE@QAU?$string_output_adapter_context@_W@1@@Z 10033713 f i libucrt:output.obj
 0001:00032723       ??0__acrt_stdio_temporary_buffering_guard@@QAE@QAU_iobuf@@AAV__crt_cached_ptd_host@@@Z 10033723 f i libucrt:output.obj
 0001:00032750       ??0__crt_cached_ptd_host@@QAE@QAU__crt_locale_pointers@@@Z 10033750 f i libucrt:output.obj
 0001:000327aa       ??0__crt_scoped_get_last_error_reset@@QAE@XZ 100337aa f i libucrt:output.obj
 0001:000327bb       ??0formatting_buffer@__crt_stdio_output@@QAE@XZ 100337bb f i libucrt:output.obj
 0001:000327cc       ??0guard@?$cached@H@__crt_cached_ptd_host@@QAE@AAU12@@Z 100337cc f i libucrt:output.obj
 0001:000327eb       ??1?$c_string_character_source@D@__crt_strtox@@QAE@XZ 100337eb f i libucrt:output.obj
 0001:000327f7       ??1?$c_string_character_source@_W@__crt_strtox@@QAE@XZ 100337f7 f i libucrt:output.obj
 0001:00032803       ??1?$common_data@D@__crt_stdio_output@@QAE@XZ 10033803 f i libucrt:output.obj
 0001:0003280b       ??1?$common_data@_W@__crt_stdio_output@@QAE@XZ 1003380b f i libucrt:output.obj
 0001:00032813       ??1?$format_validation_base@DV?$stream_output_adapter@D@__crt_stdio_output@@@__crt_stdio_output@@QAE@XZ 10033813 f i libucrt:output.obj
 0001:0003281b       ??1?$format_validation_base@DV?$string_output_adapter@D@__crt_stdio_output@@@__crt_stdio_output@@QAE@XZ 1003381b f i libucrt:output.obj
 0001:00032823       ??1?$format_validation_base@_WV?$stream_output_adapter@_W@__crt_stdio_output@@@__crt_stdio_output@@QAE@XZ 10033823 f i libucrt:output.obj
 0001:0003282b       ??1?$format_validation_base@_WV?$string_output_adapter@_W@__crt_stdio_output@@@__crt_stdio_output@@QAE@XZ 1003382b f i libucrt:output.obj
 0001:00032833       ??1?$output_adapter_data@DV?$stream_output_adapter@D@__crt_stdio_output@@@__crt_stdio_output@@QAE@XZ 10033833 f i libucrt:output.obj
 0001:0003283b       ??1?$output_adapter_data@DV?$string_output_adapter@D@__crt_stdio_output@@@__crt_stdio_output@@QAE@XZ 1003383b f i libucrt:output.obj
 0001:00032843       ??1?$output_adapter_data@_WV?$stream_output_adapter@_W@__crt_stdio_output@@@__crt_stdio_output@@QAE@XZ 10033843 f i libucrt:output.obj
 0001:0003284b       ??1?$output_adapter_data@_WV?$string_output_adapter@_W@__crt_stdio_output@@@__crt_stdio_output@@QAE@XZ 1003384b f i libucrt:output.obj
 0001:00032853       ??1?$output_processor@DV?$stream_output_adapter@D@__crt_stdio_output@@V?$format_validation_base@DV?$stream_output_adapter@D@__crt_stdio_output@@@2@@__crt_stdio_output@@QAE@XZ 10033853 f i libucrt:output.obj
 0001:0003285b       ??1?$output_processor@DV?$stream_output_adapter@D@__crt_stdio_output@@V?$positional_parameter_base@DV?$stream_output_adapter@D@__crt_stdio_output@@@2@@__crt_stdio_output@@QAE@XZ 1003385b f i libucrt:output.obj
 0001:00032863       ??1?$output_processor@DV?$stream_output_adapter@D@__crt_stdio_output@@V?$standard_base@DV?$stream_output_adapter@D@__crt_stdio_output@@@2@@__crt_stdio_output@@QAE@XZ 10033863 f i libucrt:output.obj
 0001:0003286b       ??1?$output_processor@DV?$string_output_adapter@D@__crt_stdio_output@@V?$format_validation_base@DV?$string_output_adapter@D@__crt_stdio_output@@@2@@__crt_stdio_output@@QAE@XZ 1003386b f i libucrt:output.obj
 0001:00032873       ??1?$output_processor@DV?$string_output_adapter@D@__crt_stdio_output@@V?$positional_parameter_base@DV?$string_output_adapter@D@__crt_stdio_output@@@2@@__crt_stdio_output@@QAE@XZ 10033873 f i libucrt:output.obj
 0001:0003287b       ??1?$output_processor@DV?$string_output_adapter@D@__crt_stdio_output@@V?$standard_base@DV?$string_output_adapter@D@__crt_stdio_output@@@2@@__crt_stdio_output@@QAE@XZ 1003387b f i libucrt:output.obj
 0001:00032883       ??1?$output_processor@_WV?$stream_output_adapter@_W@__crt_stdio_output@@V?$format_validation_base@_WV?$stream_output_adapter@_W@__crt_stdio_output@@@2@@__crt_stdio_output@@QAE@XZ 10033883 f i libucrt:output.obj
 0001:0003288b       ??1?$output_processor@_WV?$stream_output_adapter@_W@__crt_stdio_output@@V?$positional_parameter_base@_WV?$stream_output_adapter@_W@__crt_stdio_output@@@2@@__crt_stdio_output@@QAE@XZ 1003388b f i libucrt:output.obj
 0001:00032893       ??1?$output_processor@_WV?$stream_output_adapter@_W@__crt_stdio_output@@V?$standard_base@_WV?$stream_output_adapter@_W@__crt_stdio_output@@@2@@__crt_stdio_output@@QAE@XZ 10033893 f i libucrt:output.obj
 0001:0003289b       ??1?$output_processor@_WV?$string_output_adapter@_W@__crt_stdio_output@@V?$format_validation_base@_WV?$string_output_adapter@_W@__crt_stdio_output@@@2@@__crt_stdio_output@@QAE@XZ 1003389b f i libucrt:output.obj
 0001:000328a3       ??1?$output_processor@_WV?$string_output_adapter@_W@__crt_stdio_output@@V?$positional_parameter_base@_WV?$string_output_adapter@_W@__crt_stdio_output@@@2@@__crt_stdio_output@@QAE@XZ 100338a3 f i libucrt:output.obj
 0001:000328ab       ??1?$output_processor@_WV?$string_output_adapter@_W@__crt_stdio_output@@V?$standard_base@_WV?$string_output_adapter@_W@__crt_stdio_output@@@2@@__crt_stdio_output@@QAE@XZ 100338ab f i libucrt:output.obj
 0001:000328b3       ??1?$positional_parameter_base@DV?$stream_output_adapter@D@__crt_stdio_output@@@__crt_stdio_output@@QAE@XZ 100338b3 f i libucrt:output.obj
 0001:000328bb       ??1?$positional_parameter_base@DV?$string_output_adapter@D@__crt_stdio_output@@@__crt_stdio_output@@QAE@XZ 100338bb f i libucrt:output.obj
 0001:000328c3       ??1?$positional_parameter_base@_WV?$stream_output_adapter@_W@__crt_stdio_output@@@__crt_stdio_output@@QAE@XZ 100338c3 f i libucrt:output.obj
 0001:000328cb       ??1?$positional_parameter_base@_WV?$string_output_adapter@_W@__crt_stdio_output@@@__crt_stdio_output@@QAE@XZ 100338cb f i libucrt:output.obj
 0001:000328d3       ??1?$standard_base@DV?$stream_output_adapter@D@__crt_stdio_output@@@__crt_stdio_output@@QAE@XZ 100338d3 f i libucrt:output.obj
 0001:000328db       ??1?$standard_base@DV?$string_output_adapter@D@__crt_stdio_output@@@__crt_stdio_output@@QAE@XZ 100338db f i libucrt:output.obj
 0001:000328e3       ??1?$standard_base@_WV?$stream_output_adapter@_W@__crt_stdio_output@@@__crt_stdio_output@@QAE@XZ 100338e3 f i libucrt:output.obj
 0001:000328eb       ??1?$standard_base@_WV?$string_output_adapter@_W@__crt_stdio_output@@@__crt_stdio_output@@QAE@XZ 100338eb f i libucrt:output.obj
 0001:000328f3       ??1__acrt_stdio_temporary_buffering_guard@@QAE@XZ 100338f3 f i libucrt:output.obj
 0001:00032910       ??1__crt_cached_ptd_host@@QAE@XZ 10033910 f i libucrt:output.obj
 0001:0003294c       ??1__crt_scoped_get_last_error_reset@@QAE@XZ 1003394c f i libucrt:output.obj
 0001:00032955       ??1formatting_buffer@__crt_stdio_output@@QAE@XZ 10033955 f i libucrt:output.obj
 0001:0003296f       ??1guard@?$cached@H@__crt_cached_ptd_host@@QAE@XZ 1003396f f i libucrt:output.obj
 0001:00032983       ??4?$__crt_unique_heap_ptr@DU__crt_internal_free_policy@@@@QAEAAV0@$$QAV0@@Z 10033983 f i libucrt:output.obj
 0001:000329a7       ??A?$spectre_mitigated_lookup_table@Ustate_transition_pair@__crt_stdio_output@@$0IA@@__crt_stdio_output@@QBEABUstate_transition_pair@1@I@Z 100339a7 f i libucrt:output.obj
 0001:00032e1f       ?adjust_hexit@?$output_processor@DV?$stream_output_adapter@D@__crt_stdio_output@@V?$format_validation_base@DV?$stream_output_adapter@D@__crt_stdio_output@@@2@@__crt_stdio_output@@CADH_N@Z 10033e1f f i libucrt:output.obj
 0001:00032e33       ?adjust_hexit@?$output_processor@DV?$stream_output_adapter@D@__crt_stdio_output@@V?$positional_parameter_base@DV?$stream_output_adapter@D@__crt_stdio_output@@@2@@__crt_stdio_output@@CADH_N@Z 10033e33 f i libucrt:output.obj
 0001:00032e47       ?adjust_hexit@?$output_processor@DV?$stream_output_adapter@D@__crt_stdio_output@@V?$standard_base@DV?$stream_output_adapter@D@__crt_stdio_output@@@2@@__crt_stdio_output@@CADH_N@Z 10033e47 f i libucrt:output.obj
 0001:00032e5b       ?adjust_hexit@?$output_processor@DV?$string_output_adapter@D@__crt_stdio_output@@V?$format_validation_base@DV?$string_output_adapter@D@__crt_stdio_output@@@2@@__crt_stdio_output@@CADH_N@Z 10033e5b f i libucrt:output.obj
 0001:00032e6f       ?adjust_hexit@?$output_processor@DV?$string_output_adapter@D@__crt_stdio_output@@V?$positional_parameter_base@DV?$string_output_adapter@D@__crt_stdio_output@@@2@@__crt_stdio_output@@CADH_N@Z 10033e6f f i libucrt:output.obj
 0001:00032e83       ?adjust_hexit@?$output_processor@DV?$string_output_adapter@D@__crt_stdio_output@@V?$standard_base@DV?$string_output_adapter@D@__crt_stdio_output@@@2@@__crt_stdio_output@@CADH_N@Z 10033e83 f i libucrt:output.obj
 0001:00032e97       ?adjust_hexit@?$output_processor@_WV?$stream_output_adapter@_W@__crt_stdio_output@@V?$format_validation_base@_WV?$stream_output_adapter@_W@__crt_stdio_output@@@2@@__crt_stdio_output@@CADH_N@Z 10033e97 f i libucrt:output.obj
 0001:00032eab       ?adjust_hexit@?$output_processor@_WV?$stream_output_adapter@_W@__crt_stdio_output@@V?$positional_parameter_base@_WV?$stream_output_adapter@_W@__crt_stdio_output@@@2@@__crt_stdio_output@@CADH_N@Z 10033eab f i libucrt:output.obj
 0001:00032ebf       ?adjust_hexit@?$output_processor@_WV?$stream_output_adapter@_W@__crt_stdio_output@@V?$standard_base@_WV?$stream_output_adapter@_W@__crt_stdio_output@@@2@@__crt_stdio_output@@CADH_N@Z 10033ebf f i libucrt:output.obj
 0001:00032ed3       ?adjust_hexit@?$output_processor@_WV?$string_output_adapter@_W@__crt_stdio_output@@V?$format_validation_base@_WV?$string_output_adapter@_W@__crt_stdio_output@@@2@@__crt_stdio_output@@CADH_N@Z 10033ed3 f i libucrt:output.obj
 0001:00032ee7       ?adjust_hexit@?$output_processor@_WV?$string_output_adapter@_W@__crt_stdio_output@@V?$positional_parameter_base@_WV?$string_output_adapter@_W@__crt_stdio_output@@@2@@__crt_stdio_output@@CADH_N@Z 10033ee7 f i libucrt:output.obj
 0001:00032efb       ?adjust_hexit@?$output_processor@_WV?$string_output_adapter@_W@__crt_stdio_output@@V?$standard_base@_WV?$string_output_adapter@_W@__crt_stdio_output@@@2@@__crt_stdio_output@@CADH_N@Z 10033efb f i libucrt:output.obj
 0001:00032f0f       ?advance_to_next_pass@?$positional_parameter_base@DV?$stream_output_adapter@D@__crt_stdio_output@@@__crt_stdio_output@@IAE_NXZ 10033f0f f i libucrt:output.obj
 0001:00032f5b       ?advance_to_next_pass@?$positional_parameter_base@DV?$string_output_adapter@D@__crt_stdio_output@@@__crt_stdio_output@@IAE_NXZ 10033f5b f i libucrt:output.obj
 0001:00032fa7       ?advance_to_next_pass@?$positional_parameter_base@_WV?$stream_output_adapter@_W@__crt_stdio_output@@@__crt_stdio_output@@IAE_NXZ 10033fa7 f i libucrt:output.obj
 0001:00032ff3       ?advance_to_next_pass@?$positional_parameter_base@_WV?$string_output_adapter@_W@__crt_stdio_output@@@__crt_stdio_output@@IAE_NXZ 10033ff3 f i libucrt:output.obj
 0001:0003303f       ?advance_to_next_pass@?$standard_base@DV?$stream_output_adapter@D@__crt_stdio_output@@@__crt_stdio_output@@IAE_NXZ 1003403f f i libucrt:output.obj
 0001:00033050       ?advance_to_next_pass@?$standard_base@DV?$string_output_adapter@D@__crt_stdio_output@@@__crt_stdio_output@@IAE_NXZ 10034050 f i libucrt:output.obj
 0001:00033061       ?advance_to_next_pass@?$standard_base@_WV?$stream_output_adapter@_W@__crt_stdio_output@@@__crt_stdio_output@@IAE_NXZ 10034061 f i libucrt:output.obj
 0001:00033072       ?advance_to_next_pass@?$standard_base@_WV?$string_output_adapter@_W@__crt_stdio_output@@@__crt_stdio_output@@IAE_NXZ 10034072 f i libucrt:output.obj
 0001:00033083       ?check@?$cached@H@__crt_cached_ptd_host@@QBE_NH@Z 10034083 f i libucrt:output.obj
 0001:000330a0       ?check_synchronize_global_state_index@__crt_cached_ptd_host@@AAEIABV__crt_scoped_get_last_error_reset@@@Z 100340a0 f i libucrt:output.obj
 0001:000330c0       ?check_synchronize_per_thread_data@__crt_cached_ptd_host@@AAEPAU__acrt_ptd@@XZ 100340c0 f i libucrt:output.obj
 0001:0003311c       ?create_guard@?$cached@H@__crt_cached_ptd_host@@QAE?AVguard@12@XZ 1003411c f i libucrt:output.obj
 0001:00033139       ?crop_zeroes@__crt_stdio_output@@YAXPADQAU__crt_locale_pointers@@@Z 10034139 f i libucrt:output.obj
 0001:00033199       ?disable@guard@?$cached@H@__crt_cached_ptd_host@@QAEXXZ 10034199 f i libucrt:output.obj
 0001:0003319e       ?enable@guard@?$cached@H@__crt_cached_ptd_host@@QAEXXZ 1003419e f i libucrt:output.obj
 0001:000331a3       ?find_next_state@?$output_processor@DV?$stream_output_adapter@D@__crt_stdio_output@@V?$format_validation_base@DV?$stream_output_adapter@D@__crt_stdio_output@@@2@@__crt_stdio_output@@ABE?AW4state@2@DW432@@Z 100341a3 f i libucrt:output.obj
 0001:000331e0       ?find_next_state@?$output_processor@DV?$stream_output_adapter@D@__crt_stdio_output@@V?$positional_parameter_base@DV?$stream_output_adapter@D@__crt_stdio_output@@@2@@__crt_stdio_output@@ABE?AW4state@2@DW432@@Z 100341e0 f i libucrt:output.obj
 0001:0003321d       ?find_next_state@?$output_processor@DV?$stream_output_adapter@D@__crt_stdio_output@@V?$standard_base@DV?$stream_output_adapter@D@__crt_stdio_output@@@2@@__crt_stdio_output@@ABE?AW4state@2@DW432@@Z 1003421d f i libucrt:output.obj
 0001:00033258       ?find_next_state@?$output_processor@DV?$string_output_adapter@D@__crt_stdio_output@@V?$format_validation_base@DV?$string_output_adapter@D@__crt_stdio_output@@@2@@__crt_stdio_output@@ABE?AW4state@2@DW432@@Z 10034258 f i libucrt:output.obj
 0001:00033295       ?find_next_state@?$output_processor@DV?$string_output_adapter@D@__crt_stdio_output@@V?$positional_parameter_base@DV?$string_output_adapter@D@__crt_stdio_output@@@2@@__crt_stdio_output@@ABE?AW4state@2@DW432@@Z 10034295 f i libucrt:output.obj
 0001:000332d2       ?find_next_state@?$output_processor@DV?$string_output_adapter@D@__crt_stdio_output@@V?$standard_base@DV?$string_output_adapter@D@__crt_stdio_output@@@2@@__crt_stdio_output@@ABE?AW4state@2@DW432@@Z 100342d2 f i libucrt:output.obj
 0001:0003330d       ?find_next_state@?$output_processor@_WV?$stream_output_adapter@_W@__crt_stdio_output@@V?$format_validation_base@_WV?$stream_output_adapter@_W@__crt_stdio_output@@@2@@__crt_stdio_output@@ABE?AW4state@2@_WW432@@Z 1003430d f i libucrt:output.obj
 0001:00033349       ?find_next_state@?$output_processor@_WV?$stream_output_adapter@_W@__crt_stdio_output@@V?$positional_parameter_base@_WV?$stream_output_adapter@_W@__crt_stdio_output@@@2@@__crt_stdio_output@@ABE?AW4state@2@_WW432@@Z 10034349 f i libucrt:output.obj
 0001:00033385       ?find_next_state@?$output_processor@_WV?$stream_output_adapter@_W@__crt_stdio_output@@V?$standard_base@_WV?$stream_output_adapter@_W@__crt_stdio_output@@@2@@__crt_stdio_output@@ABE?AW4state@2@_WW432@@Z 10034385 f i libucrt:output.obj
 0001:000333bf       ?find_next_state@?$output_processor@_WV?$string_output_adapter@_W@__crt_stdio_output@@V?$format_validation_base@_WV?$string_output_adapter@_W@__crt_stdio_output@@@2@@__crt_stdio_output@@ABE?AW4state@2@_WW432@@Z 100343bf f i libucrt:output.obj
 0001:000333fb       ?find_next_state@?$output_processor@_WV?$string_output_adapter@_W@__crt_stdio_output@@V?$positional_parameter_base@_WV?$string_output_adapter@_W@__crt_stdio_output@@@2@@__crt_stdio_output@@ABE?AW4state@2@_WW432@@Z 100343fb f i libucrt:output.obj
 0001:00033437       ?find_next_state@?$output_processor@_WV?$string_output_adapter@_W@__crt_stdio_output@@V?$standard_base@_WV?$string_output_adapter@_W@__crt_stdio_output@@@2@@__crt_stdio_output@@ABE?AW4state@2@_WW432@@Z 10034437 f i libucrt:output.obj
 0001:00033471       ?force_decimal_point@__crt_stdio_output@@YAXPADQAU__crt_locale_pointers@@@Z 10034471 f i libucrt:output.obj
 0001:000334d0       ?force_synchronize_global_state_index@__crt_cached_ptd_host@@AAEIABV__crt_scoped_get_last_error_reset@@@Z 100344d0 f i libucrt:output.obj
 0001:000334e0       ?force_synchronize_per_thread_data@__crt_cached_ptd_host@@AAEPAU__acrt_ptd@@XZ 100344e0 f i libucrt:output.obj
 0001:0003352d       ?get@?$c_string_character_source@D@__crt_strtox@@QAEDXZ 1003452d f i libucrt:output.obj
 0001:00033535       ?get@?$c_string_character_source@_W@__crt_strtox@@QAE_WXZ 10034535 f i libucrt:output.obj
 0001:00033540       ?get_current_state_index@__crt_state_management@@YAIABV__crt_scoped_get_last_error_reset@@@Z 10034540 f i libucrt:output.obj
 0001:00033550       ?get_errno@__crt_cached_ptd_host@@QAEAAU?$cached@H@1@XZ 10034550 f i libucrt:output.obj
 0001:00033560       ?get_locale@__crt_cached_ptd_host@@QAEPAU__crt_locale_pointers@@XZ 10034560 f i libucrt:output.obj
 0001:00033575       ?get_parameter_type@?$positional_parameter_base@DV?$stream_output_adapter@D@__crt_stdio_output@@@__crt_stdio_output@@CA?AW4parameter_type@12@F@Z 10034575 f i libucrt:output.obj
 0001:00033579       ?get_parameter_type@?$positional_parameter_base@DV?$stream_output_adapter@D@__crt_stdio_output@@@__crt_stdio_output@@CA?AW4parameter_type@12@G@Z 10034579 f i libucrt:output.obj
 0001:0003357d       ?get_parameter_type@?$positional_parameter_base@DV?$stream_output_adapter@D@__crt_stdio_output@@@__crt_stdio_output@@CA?AW4parameter_type@12@H@Z 1003457d f i libucrt:output.obj
 0001:00033581       ?get_parameter_type@?$positional_parameter_base@DV?$stream_output_adapter@D@__crt_stdio_output@@@__crt_stdio_output@@CA?AW4parameter_type@12@I@Z 10034581 f i libucrt:output.obj
 0001:00033585       ?get_parameter_type@?$positional_parameter_base@DV?$stream_output_adapter@D@__crt_stdio_output@@@__crt_stdio_output@@CA?AW4parameter_type@12@U_CRT_DOUBLE@@@Z 10034585 f i libucrt:output.obj
 0001:00033589       ?get_parameter_type@?$positional_parameter_base@DV?$stream_output_adapter@D@__crt_stdio_output@@@__crt_stdio_output@@CA?AW4parameter_type@12@_J@Z 10034589 f i libucrt:output.obj
 0001:0003358d       ?get_parameter_type@?$positional_parameter_base@DV?$stream_output_adapter@D@__crt_stdio_output@@@__crt_stdio_output@@CA?AW4parameter_type@12@_K@Z 1003458d f i libucrt:output.obj
 0001:00033591       ?get_parameter_type@?$positional_parameter_base@DV?$stream_output_adapter@D@__crt_stdio_output@@@__crt_stdio_output@@CA?AW4parameter_type@12@_W@Z 10034591 f i libucrt:output.obj
 0001:00033595       ?get_parameter_type@?$positional_parameter_base@DV?$string_output_adapter@D@__crt_stdio_output@@@__crt_stdio_output@@CA?AW4parameter_type@12@F@Z 10034595 f i libucrt:output.obj
 0001:00033599       ?get_parameter_type@?$positional_parameter_base@DV?$string_output_adapter@D@__crt_stdio_output@@@__crt_stdio_output@@CA?AW4parameter_type@12@G@Z 10034599 f i libucrt:output.obj
 0001:0003359d       ?get_parameter_type@?$positional_parameter_base@DV?$string_output_adapter@D@__crt_stdio_output@@@__crt_stdio_output@@CA?AW4parameter_type@12@H@Z 1003459d f i libucrt:output.obj
 0001:000335a1       ?get_parameter_type@?$positional_parameter_base@DV?$string_output_adapter@D@__crt_stdio_output@@@__crt_stdio_output@@CA?AW4parameter_type@12@I@Z 100345a1 f i libucrt:output.obj
 0001:000335a5       ?get_parameter_type@?$positional_parameter_base@DV?$string_output_adapter@D@__crt_stdio_output@@@__crt_stdio_output@@CA?AW4parameter_type@12@U_CRT_DOUBLE@@@Z 100345a5 f i libucrt:output.obj
 0001:000335a9       ?get_parameter_type@?$positional_parameter_base@DV?$string_output_adapter@D@__crt_stdio_output@@@__crt_stdio_output@@CA?AW4parameter_type@12@_J@Z 100345a9 f i libucrt:output.obj
 0001:000335ad       ?get_parameter_type@?$positional_parameter_base@DV?$string_output_adapter@D@__crt_stdio_output@@@__crt_stdio_output@@CA?AW4parameter_type@12@_K@Z 100345ad f i libucrt:output.obj
 0001:000335b1       ?get_parameter_type@?$positional_parameter_base@DV?$string_output_adapter@D@__crt_stdio_output@@@__crt_stdio_output@@CA?AW4parameter_type@12@_W@Z 100345b1 f i libucrt:output.obj
 0001:000335b5       ?get_parameter_type@?$positional_parameter_base@_WV?$stream_output_adapter@_W@__crt_stdio_output@@@__crt_stdio_output@@CA?AW4parameter_type@12@F@Z 100345b5 f i libucrt:output.obj
 0001:000335b9       ?get_parameter_type@?$positional_parameter_base@_WV?$stream_output_adapter@_W@__crt_stdio_output@@@__crt_stdio_output@@CA?AW4parameter_type@12@G@Z 100345b9 f i libucrt:output.obj
 0001:000335bd       ?get_parameter_type@?$positional_parameter_base@_WV?$stream_output_adapter@_W@__crt_stdio_output@@@__crt_stdio_output@@CA?AW4parameter_type@12@H@Z 100345bd f i libucrt:output.obj
 0001:000335c1       ?get_parameter_type@?$positional_parameter_base@_WV?$stream_output_adapter@_W@__crt_stdio_output@@@__crt_stdio_output@@CA?AW4parameter_type@12@I@Z 100345c1 f i libucrt:output.obj
 0001:000335c5       ?get_parameter_type@?$positional_parameter_base@_WV?$stream_output_adapter@_W@__crt_stdio_output@@@__crt_stdio_output@@CA?AW4parameter_type@12@U_CRT_DOUBLE@@@Z 100345c5 f i libucrt:output.obj
 0001:000335c9       ?get_parameter_type@?$positional_parameter_base@_WV?$stream_output_adapter@_W@__crt_stdio_output@@@__crt_stdio_output@@CA?AW4parameter_type@12@_J@Z 100345c9 f i libucrt:output.obj
 0001:000335cd       ?get_parameter_type@?$positional_parameter_base@_WV?$stream_output_adapter@_W@__crt_stdio_output@@@__crt_stdio_output@@CA?AW4parameter_type@12@_K@Z 100345cd f i libucrt:output.obj
 0001:000335d1       ?get_parameter_type@?$positional_parameter_base@_WV?$stream_output_adapter@_W@__crt_stdio_output@@@__crt_stdio_output@@CA?AW4parameter_type@12@_W@Z 100345d1 f i libucrt:output.obj
 0001:000335d5       ?get_parameter_type@?$positional_parameter_base@_WV?$string_output_adapter@_W@__crt_stdio_output@@@__crt_stdio_output@@CA?AW4parameter_type@12@F@Z 100345d5 f i libucrt:output.obj
 0001:000335d9       ?get_parameter_type@?$positional_parameter_base@_WV?$string_output_adapter@_W@__crt_stdio_output@@@__crt_stdio_output@@CA?AW4parameter_type@12@G@Z 100345d9 f i libucrt:output.obj
 0001:000335dd       ?get_parameter_type@?$positional_parameter_base@_WV?$string_output_adapter@_W@__crt_stdio_output@@@__crt_stdio_output@@CA?AW4parameter_type@12@H@Z 100345dd f i libucrt:output.obj
 0001:000335e1       ?get_parameter_type@?$positional_parameter_base@_WV?$string_output_adapter@_W@__crt_stdio_output@@@__crt_stdio_output@@CA?AW4parameter_type@12@I@Z 100345e1 f i libucrt:output.obj
 0001:000335e5       ?get_parameter_type@?$positional_parameter_base@_WV?$string_output_adapter@_W@__crt_stdio_output@@@__crt_stdio_output@@CA?AW4parameter_type@12@U_CRT_DOUBLE@@@Z 100345e5 f i libucrt:output.obj
 0001:000335e9       ?get_parameter_type@?$positional_parameter_base@_WV?$string_output_adapter@_W@__crt_stdio_output@@@__crt_stdio_output@@CA?AW4parameter_type@12@_J@Z 100345e9 f i libucrt:output.obj
 0001:000335ed       ?get_parameter_type@?$positional_parameter_base@_WV?$string_output_adapter@_W@__crt_stdio_output@@@__crt_stdio_output@@CA?AW4parameter_type@12@_K@Z 100345ed f i libucrt:output.obj
 0001:000335f1       ?get_parameter_type@?$positional_parameter_base@_WV?$string_output_adapter@_W@__crt_stdio_output@@@__crt_stdio_output@@CA?AW4parameter_type@12@_W@Z 100345f1 f i libucrt:output.obj
 0001:00033600       ?get_raw_ptd@__crt_cached_ptd_host@@QAEPAU__acrt_ptd@@XZ 10034600 f i libucrt:output.obj
 0001:0003365c       ?has_flag@?$output_processor@DV?$stream_output_adapter@D@__crt_stdio_output@@V?$format_validation_base@DV?$stream_output_adapter@D@__crt_stdio_output@@@2@@__crt_stdio_output@@ABE_NI@Z 1003465c f i libucrt:output.obj
 0001:0003366e       ?has_flag@?$output_processor@DV?$stream_output_adapter@D@__crt_stdio_output@@V?$positional_parameter_base@DV?$stream_output_adapter@D@__crt_stdio_output@@@2@@__crt_stdio_output@@ABE_NI@Z 1003466e f i libucrt:output.obj
 0001:00033680       ?has_flag@?$output_processor@DV?$stream_output_adapter@D@__crt_stdio_output@@V?$standard_base@DV?$stream_output_adapter@D@__crt_stdio_output@@@2@@__crt_stdio_output@@ABE_NI@Z 10034680 f i libucrt:output.obj
 0001:00033692       ?has_flag@?$output_processor@DV?$string_output_adapter@D@__crt_stdio_output@@V?$format_validation_base@DV?$string_output_adapter@D@__crt_stdio_output@@@2@@__crt_stdio_output@@ABE_NI@Z 10034692 f i libucrt:output.obj
 0001:000336a4       ?has_flag@?$output_processor@DV?$string_output_adapter@D@__crt_stdio_output@@V?$positional_parameter_base@DV?$string_output_adapter@D@__crt_stdio_output@@@2@@__crt_stdio_output@@ABE_NI@Z 100346a4 f i libucrt:output.obj
 0001:000336b6       ?has_flag@?$output_processor@DV?$string_output_adapter@D@__crt_stdio_output@@V?$standard_base@DV?$string_output_adapter@D@__crt_stdio_output@@@2@@__crt_stdio_output@@ABE_NI@Z 100346b6 f i libucrt:output.obj
 0001:000336c8       ?has_flag@?$output_processor@_WV?$stream_output_adapter@_W@__crt_stdio_output@@V?$format_validation_base@_WV?$stream_output_adapter@_W@__crt_stdio_output@@@2@@__crt_stdio_output@@ABE_NI@Z 100346c8 f i libucrt:output.obj
 0001:000336da       ?has_flag@?$output_processor@_WV?$stream_output_adapter@_W@__crt_stdio_output@@V?$positional_parameter_base@_WV?$stream_output_adapter@_W@__crt_stdio_output@@@2@@__crt_stdio_output@@ABE_NI@Z 100346da f i libucrt:output.obj
 0001:000336ec       ?has_flag@?$output_processor@_WV?$stream_output_adapter@_W@__crt_stdio_output@@V?$standard_base@_WV?$stream_output_adapter@_W@__crt_stdio_output@@@2@@__crt_stdio_output@@ABE_NI@Z 100346ec f i libucrt:output.obj
 0001:000336fe       ?has_flag@?$output_processor@_WV?$string_output_adapter@_W@__crt_stdio_output@@V?$format_validation_base@_WV?$string_output_adapter@_W@__crt_stdio_output@@@2@@__crt_stdio_output@@ABE_NI@Z 100346fe f i libucrt:output.obj
 0001:00033710       ?has_flag@?$output_processor@_WV?$string_output_adapter@_W@__crt_stdio_output@@V?$positional_parameter_base@_WV?$string_output_adapter@_W@__crt_stdio_output@@@2@@__crt_stdio_output@@ABE_NI@Z 10034710 f i libucrt:output.obj
 0001:00033722       ?has_flag@?$output_processor@_WV?$string_output_adapter@_W@__crt_stdio_output@@V?$standard_base@_WV?$string_output_adapter@_W@__crt_stdio_output@@@2@@__crt_stdio_output@@ABE_NI@Z 10034722 f i libucrt:output.obj
 0001:00033734       ?is_positional_parameter_reappearance_consistent@?$positional_parameter_base@DV?$stream_output_adapter@D@__crt_stdio_output@@@__crt_stdio_output@@AAE_NABUparameter_data@12@W4parameter_type@12@DW4length_modifier@2@@Z 10034734 f i libucrt:output.obj
 0001:0003384e       ?is_positional_parameter_reappearance_consistent@?$positional_parameter_base@DV?$string_output_adapter@D@__crt_stdio_output@@@__crt_stdio_output@@AAE_NABUparameter_data@12@W4parameter_type@12@DW4length_modifier@2@@Z 1003484e f i libucrt:output.obj
 0001:00033968       ?is_positional_parameter_reappearance_consistent@?$positional_parameter_base@_WV?$stream_output_adapter@_W@__crt_stdio_output@@@__crt_stdio_output@@AAE_NABUparameter_data@12@W4parameter_type@12@_WW4length_modifier@2@@Z 10034968 f i libucrt:output.obj
 0001:00033a83       ?is_positional_parameter_reappearance_consistent@?$positional_parameter_base@_WV?$string_output_adapter@_W@__crt_stdio_output@@@__crt_stdio_output@@AAE_NABUparameter_data@12@W4parameter_type@12@_WW4length_modifier@2@@Z 10034a83 f i libucrt:output.obj
 0001:00033b9e       ?is_string_backed@__crt_stdio_stream@@QBE_NXZ 10034b9e f i libucrt:output.obj
 0001:00033baa       ?maximum_signed_value@__crt_strtox@@YAJK@Z 10034baa f i libucrt:output.obj
 0001:00033bb0       ?minimum_signed_value@__crt_strtox@@YAJK@Z 10034bb0 f i libucrt:output.obj
 0001:00033bb6       ?narrow_null_string@?$output_processor@DV?$stream_output_adapter@D@__crt_stdio_output@@V?$format_validation_base@DV?$stream_output_adapter@D@__crt_stdio_output@@@2@@__crt_stdio_output@@CAPADXZ 10034bb6 f i libucrt:output.obj
 0001:00033bbc       ?narrow_null_string@?$output_processor@DV?$stream_output_adapter@D@__crt_stdio_output@@V?$positional_parameter_base@DV?$stream_output_adapter@D@__crt_stdio_output@@@2@@__crt_stdio_output@@CAPADXZ 10034bbc f i libucrt:output.obj
 0001:00033bc2       ?narrow_null_string@?$output_processor@DV?$stream_output_adapter@D@__crt_stdio_output@@V?$standard_base@DV?$stream_output_adapter@D@__crt_stdio_output@@@2@@__crt_stdio_output@@CAPADXZ 10034bc2 f i libucrt:output.obj
 0001:00033bc8       ?narrow_null_string@?$output_processor@DV?$string_output_adapter@D@__crt_stdio_output@@V?$format_validation_base@DV?$string_output_adapter@D@__crt_stdio_output@@@2@@__crt_stdio_output@@CAPADXZ 10034bc8 f i libucrt:output.obj
 0001:00033bce       ?narrow_null_string@?$output_processor@DV?$string_output_adapter@D@__crt_stdio_output@@V?$positional_parameter_base@DV?$string_output_adapter@D@__crt_stdio_output@@@2@@__crt_stdio_output@@CAPADXZ 10034bce f i libucrt:output.obj
 0001:00033bd4       ?narrow_null_string@?$output_processor@DV?$string_output_adapter@D@__crt_stdio_output@@V?$standard_base@DV?$string_output_adapter@D@__crt_stdio_output@@@2@@__crt_stdio_output@@CAPADXZ 10034bd4 f i libucrt:output.obj
 0001:00033bda       ?narrow_null_string@?$output_processor@_WV?$stream_output_adapter@_W@__crt_stdio_output@@V?$format_validation_base@_WV?$stream_output_adapter@_W@__crt_stdio_output@@@2@@__crt_stdio_output@@CAPADXZ 10034bda f i libucrt:output.obj
 0001:00033be0       ?narrow_null_string@?$output_processor@_WV?$stream_output_adapter@_W@__crt_stdio_output@@V?$positional_parameter_base@_WV?$stream_output_adapter@_W@__crt_stdio_output@@@2@@__crt_stdio_output@@CAPADXZ 10034be0 f i libucrt:output.obj
 0001:00033be6       ?narrow_null_string@?$output_processor@_WV?$stream_output_adapter@_W@__crt_stdio_output@@V?$standard_base@_WV?$stream_output_adapter@_W@__crt_stdio_output@@@2@@__crt_stdio_output@@CAPADXZ 10034be6 f i libucrt:output.obj
 0001:00033bec       ?narrow_null_string@?$output_processor@_WV?$string_output_adapter@_W@__crt_stdio_output@@V?$format_validation_base@_WV?$string_output_adapter@_W@__crt_stdio_output@@@2@@__crt_stdio_output@@CAPADXZ 10034bec f i libucrt:output.obj
 0001:00033bf2       ?narrow_null_string@?$output_processor@_WV?$string_output_adapter@_W@__crt_stdio_output@@V?$positional_parameter_base@_WV?$string_output_adapter@_W@__crt_stdio_output@@@2@@__crt_stdio_output@@CAPADXZ 10034bf2 f i libucrt:output.obj
 0001:00033bf8       ?narrow_null_string@?$output_processor@_WV?$string_output_adapter@_W@__crt_stdio_output@@V?$standard_base@_WV?$string_output_adapter@_W@__crt_stdio_output@@@2@@__crt_stdio_output@@CAPADXZ 10034bf8 f i libucrt:output.obj
 0001:00033bfe       ?parse_digit@__crt_strtox@@YAID@Z 10034bfe f i libucrt:output.obj
 0001:00033c38       ?parse_digit@__crt_strtox@@YAI_W@Z 10034c38 f i libucrt:output.obj
 0001:00033e00       ?parse_int_from_format_string@?$output_processor@DV?$stream_output_adapter@D@__crt_stdio_output@@V?$format_validation_base@DV?$stream_output_adapter@D@__crt_stdio_output@@@2@@__crt_stdio_output@@AAE_NQAH@Z 10034e00 f i libucrt:output.obj
 0001:00033e78       ?parse_int_from_format_string@?$output_processor@DV?$stream_output_adapter@D@__crt_stdio_output@@V?$positional_parameter_base@DV?$stream_output_adapter@D@__crt_stdio_output@@@2@@__crt_stdio_output@@AAE_NQAH@Z 10034e78 f i libucrt:output.obj
 0001:00033ef0       ?parse_int_from_format_string@?$output_processor@DV?$stream_output_adapter@D@__crt_stdio_output@@V?$standard_base@DV?$stream_output_adapter@D@__crt_stdio_output@@@2@@__crt_stdio_output@@AAE_NQAH@Z 10034ef0 f i libucrt:output.obj
 0001:00033f68       ?parse_int_from_format_string@?$output_processor@DV?$string_output_adapter@D@__crt_stdio_output@@V?$format_validation_base@DV?$string_output_adapter@D@__crt_stdio_output@@@2@@__crt_stdio_output@@AAE_NQAH@Z 10034f68 f i libucrt:output.obj
 0001:00033fe0       ?parse_int_from_format_string@?$output_processor@DV?$string_output_adapter@D@__crt_stdio_output@@V?$positional_parameter_base@DV?$string_output_adapter@D@__crt_stdio_output@@@2@@__crt_stdio_output@@AAE_NQAH@Z 10034fe0 f i libucrt:output.obj
 0001:00034058       ?parse_int_from_format_string@?$output_processor@DV?$string_output_adapter@D@__crt_stdio_output@@V?$standard_base@DV?$string_output_adapter@D@__crt_stdio_output@@@2@@__crt_stdio_output@@AAE_NQAH@Z 10035058 f i libucrt:output.obj
 0001:000340d0       ?parse_int_from_format_string@?$output_processor@_WV?$stream_output_adapter@_W@__crt_stdio_output@@V?$format_validation_base@_WV?$stream_output_adapter@_W@__crt_stdio_output@@@2@@__crt_stdio_output@@AAE_NQAH@Z 100350d0 f i libucrt:output.obj
 0001:0003414a       ?parse_int_from_format_string@?$output_processor@_WV?$stream_output_adapter@_W@__crt_stdio_output@@V?$positional_parameter_base@_WV?$stream_output_adapter@_W@__crt_stdio_output@@@2@@__crt_stdio_output@@AAE_NQAH@Z 1003514a f i libucrt:output.obj
 0001:000341c4       ?parse_int_from_format_string@?$output_processor@_WV?$stream_output_adapter@_W@__crt_stdio_output@@V?$standard_base@_WV?$stream_output_adapter@_W@__crt_stdio_output@@@2@@__crt_stdio_output@@AAE_NQAH@Z 100351c4 f i libucrt:output.obj
 0001:0003423e       ?parse_int_from_format_string@?$output_processor@_WV?$string_output_adapter@_W@__crt_stdio_output@@V?$format_validation_base@_WV?$string_output_adapter@_W@__crt_stdio_output@@@2@@__crt_stdio_output@@AAE_NQAH@Z 1003523e f i libucrt:output.obj
 0001:000342b8       ?parse_int_from_format_string@?$output_processor@_WV?$string_output_adapter@_W@__crt_stdio_output@@V?$positional_parameter_base@_WV?$string_output_adapter@_W@__crt_stdio_output@@@2@@__crt_stdio_output@@AAE_NQAH@Z 100352b8 f i libucrt:output.obj
 0001:00034332       ?parse_int_from_format_string@?$output_processor@_WV?$string_output_adapter@_W@__crt_stdio_output@@V?$standard_base@_WV?$string_output_adapter@_W@__crt_stdio_output@@@2@@__crt_stdio_output@@AAE_NQAH@Z 10035332 f i libucrt:output.obj
 0001:000343ac       ?process@?$output_processor@DV?$stream_output_adapter@D@__crt_stdio_output@@V?$format_validation_base@DV?$stream_output_adapter@D@__crt_stdio_output@@@2@@__crt_stdio_output@@QAEHXZ 100353ac f i libucrt:output.obj
 0001:00034664       ?process@?$output_processor@DV?$stream_output_adapter@D@__crt_stdio_output@@V?$positional_parameter_base@DV?$stream_output_adapter@D@__crt_stdio_output@@@2@@__crt_stdio_output@@QAEHXZ 10035664 f i libucrt:output.obj
 0001:00034938       ?process@?$output_processor@DV?$stream_output_adapter@D@__crt_stdio_output@@V?$standard_base@DV?$stream_output_adapter@D@__crt_stdio_output@@@2@@__crt_stdio_output@@QAEHXZ 10035938 f i libucrt:output.obj
 0001:00034be4       ?process@?$output_processor@DV?$string_output_adapter@D@__crt_stdio_output@@V?$format_validation_base@DV?$string_output_adapter@D@__crt_stdio_output@@@2@@__crt_stdio_output@@QAEHXZ 10035be4 f i libucrt:output.obj
 0001:00034ec4       ?process@?$output_processor@DV?$string_output_adapter@D@__crt_stdio_output@@V?$positional_parameter_base@DV?$string_output_adapter@D@__crt_stdio_output@@@2@@__crt_stdio_output@@QAEHXZ 10035ec4 f i libucrt:output.obj
 0001:000351c4       ?process@?$output_processor@DV?$string_output_adapter@D@__crt_stdio_output@@V?$standard_base@DV?$string_output_adapter@D@__crt_stdio_output@@@2@@__crt_stdio_output@@QAEHXZ 100361c4 f i libucrt:output.obj
 0001:00035498       ?process@?$output_processor@_WV?$stream_output_adapter@_W@__crt_stdio_output@@V?$format_validation_base@_WV?$stream_output_adapter@_W@__crt_stdio_output@@@2@@__crt_stdio_output@@QAEHXZ 10036498 f i libucrt:output.obj
 0001:000356b4       ?process@?$output_processor@_WV?$stream_output_adapter@_W@__crt_stdio_output@@V?$positional_parameter_base@_WV?$stream_output_adapter@_W@__crt_stdio_output@@@2@@__crt_stdio_output@@QAEHXZ 100366b4 f i libucrt:output.obj
 0001:00035908       ?process@?$output_processor@_WV?$stream_output_adapter@_W@__crt_stdio_output@@V?$standard_base@_WV?$stream_output_adapter@_W@__crt_stdio_output@@@2@@__crt_stdio_output@@QAEHXZ 10036908 f i libucrt:output.obj
 0001:00035b18       ?process@?$output_processor@_WV?$string_output_adapter@_W@__crt_stdio_output@@V?$format_validation_base@_WV?$string_output_adapter@_W@__crt_stdio_output@@@2@@__crt_stdio_output@@QAEHXZ 10036b18 f i libucrt:output.obj
 0001:00035d68       ?process@?$output_processor@_WV?$string_output_adapter@_W@__crt_stdio_output@@V?$positional_parameter_base@_WV?$string_output_adapter@_W@__crt_stdio_output@@@2@@__crt_stdio_output@@QAEHXZ 10036d68 f i libucrt:output.obj
 0001:00035fd0       ?process@?$output_processor@_WV?$string_output_adapter@_W@__crt_stdio_output@@V?$standard_base@_WV?$string_output_adapter@_W@__crt_stdio_output@@@2@@__crt_stdio_output@@QAEHXZ 10036fd0 f i libucrt:output.obj
 0001:00036210       ?restore_state@?$c_string_character_source@D@__crt_strtox@@QAE_NQBD@Z 10037210 f i libucrt:output.obj
 0001:00036220       ?restore_state@?$c_string_character_source@_W@__crt_strtox@@QAE_NQB_W@Z 10037220 f i libucrt:output.obj
 0001:00036230       ?save_state@?$c_string_character_source@D@__crt_strtox@@QBEPBDXZ 10037230 f i libucrt:output.obj
 0001:00036233       ?save_state@?$c_string_character_source@_W@__crt_strtox@@QBEPB_WXZ 10037233 f i libucrt:output.obj
 0001:00036236       ?set@?$cached@H@__crt_cached_ptd_host@@QAEHH@Z 10037236 f i libucrt:output.obj
 0001:00036248       ?set_flag@?$output_processor@DV?$stream_output_adapter@D@__crt_stdio_output@@V?$format_validation_base@DV?$stream_output_adapter@D@__crt_stdio_output@@@2@@__crt_stdio_output@@AAEXI@Z 10037248 f i libucrt:output.obj
 0001:00036257       ?set_flag@?$output_processor@DV?$stream_output_adapter@D@__crt_stdio_output@@V?$positional_parameter_base@DV?$stream_output_adapter@D@__crt_stdio_output@@@2@@__crt_stdio_output@@AAEXI@Z 10037257 f i libucrt:output.obj
 0001:00036266       ?set_flag@?$output_processor@DV?$stream_output_adapter@D@__crt_stdio_output@@V?$standard_base@DV?$stream_output_adapter@D@__crt_stdio_output@@@2@@__crt_stdio_output@@AAEXI@Z 10037266 f i libucrt:output.obj
 0001:00036275       ?set_flag@?$output_processor@DV?$string_output_adapter@D@__crt_stdio_output@@V?$format_validation_base@DV?$string_output_adapter@D@__crt_stdio_output@@@2@@__crt_stdio_output@@AAEXI@Z 10037275 f i libucrt:output.obj
 0001:00036284       ?set_flag@?$output_processor@DV?$string_output_adapter@D@__crt_stdio_output@@V?$positional_parameter_base@DV?$string_output_adapter@D@__crt_stdio_output@@@2@@__crt_stdio_output@@AAEXI@Z 10037284 f i libucrt:output.obj
 0001:00036293       ?set_flag@?$output_processor@DV?$string_output_adapter@D@__crt_stdio_output@@V?$standard_base@DV?$string_output_adapter@D@__crt_stdio_output@@@2@@__crt_stdio_output@@AAEXI@Z 10037293 f i libucrt:output.obj
 0001:000362a2       ?set_flag@?$output_processor@_WV?$stream_output_adapter@_W@__crt_stdio_output@@V?$format_validation_base@_WV?$stream_output_adapter@_W@__crt_stdio_output@@@2@@__crt_stdio_output@@AAEXI@Z 100372a2 f i libucrt:output.obj
 0001:000362b1       ?set_flag@?$output_processor@_WV?$stream_output_adapter@_W@__crt_stdio_output@@V?$positional_parameter_base@_WV?$stream_output_adapter@_W@__crt_stdio_output@@@2@@__crt_stdio_output@@AAEXI@Z 100372b1 f i libucrt:output.obj
 0001:000362c0       ?set_flag@?$output_processor@_WV?$stream_output_adapter@_W@__crt_stdio_output@@V?$standard_base@_WV?$stream_output_adapter@_W@__crt_stdio_output@@@2@@__crt_stdio_output@@AAEXI@Z 100372c0 f i libucrt:output.obj
 0001:000362cf       ?set_flag@?$output_processor@_WV?$string_output_adapter@_W@__crt_stdio_output@@V?$format_validation_base@_WV?$string_output_adapter@_W@__crt_stdio_output@@@2@@__crt_stdio_output@@AAEXI@Z 100372cf f i libucrt:output.obj
 0001:000362de       ?set_flag@?$output_processor@_WV?$string_output_adapter@_W@__crt_stdio_output@@V?$positional_parameter_base@_WV?$string_output_adapter@_W@__crt_stdio_output@@@2@@__crt_stdio_output@@AAEXI@Z 100372de f i libucrt:output.obj
 0001:000362ed       ?set_flag@?$output_processor@_WV?$string_output_adapter@_W@__crt_stdio_output@@V?$standard_base@_WV?$string_output_adapter@_W@__crt_stdio_output@@@2@@__crt_stdio_output@@AAEXI@Z 100372ed f i libucrt:output.obj
 0001:000362fc       ?should_format@?$positional_parameter_base@DV?$stream_output_adapter@D@__crt_stdio_output@@@__crt_stdio_output@@IAE_NXZ 100372fc f i libucrt:output.obj
 0001:00036312       ?should_format@?$positional_parameter_base@DV?$string_output_adapter@D@__crt_stdio_output@@@__crt_stdio_output@@IAE_NXZ 10037312 f i libucrt:output.obj
 0001:00036328       ?should_format@?$positional_parameter_base@_WV?$stream_output_adapter@_W@__crt_stdio_output@@@__crt_stdio_output@@IAE_NXZ 10037328 f i libucrt:output.obj
 0001:0003633e       ?should_format@?$positional_parameter_base@_WV?$string_output_adapter@_W@__crt_stdio_output@@@__crt_stdio_output@@IAE_NXZ 1003733e f i libucrt:output.obj
 0001:00036354       ?should_format@?$standard_base@DV?$stream_output_adapter@D@__crt_stdio_output@@@__crt_stdio_output@@IAE_NXZ 10037354 f i libucrt:output.obj
 0001:00036357       ?should_format@?$standard_base@DV?$string_output_adapter@D@__crt_stdio_output@@@__crt_stdio_output@@IAE_NXZ 10037357 f i libucrt:output.obj
 0001:0003635a       ?should_format@?$standard_base@_WV?$stream_output_adapter@_W@__crt_stdio_output@@@__crt_stdio_output@@IAE_NXZ 1003735a f i libucrt:output.obj
 0001:0003635d       ?should_format@?$standard_base@_WV?$string_output_adapter@_W@__crt_stdio_output@@@__crt_stdio_output@@IAE_NXZ 1003735d f i libucrt:output.obj
 0001:00036360       ?should_skip_normal_state_processing@?$positional_parameter_base@DV?$stream_output_adapter@D@__crt_stdio_output@@@__crt_stdio_output@@IAE_NXZ 10037360 f i libucrt:output.obj
 0001:00036388       ?should_skip_normal_state_processing@?$positional_parameter_base@DV?$string_output_adapter@D@__crt_stdio_output@@@__crt_stdio_output@@IAE_NXZ 10037388 f i libucrt:output.obj
 0001:000363b0       ?should_skip_normal_state_processing@?$positional_parameter_base@_WV?$stream_output_adapter@_W@__crt_stdio_output@@@__crt_stdio_output@@IAE_NXZ 100373b0 f i libucrt:output.obj
 0001:000363d8       ?should_skip_normal_state_processing@?$positional_parameter_base@_WV?$string_output_adapter@_W@__crt_stdio_output@@@__crt_stdio_output@@IAE_NXZ 100373d8 f i libucrt:output.obj
 0001:00036400       ?should_skip_normal_state_processing@?$standard_base@DV?$stream_output_adapter@D@__crt_stdio_output@@@__crt_stdio_output@@IAE_NXZ 10037400 f i libucrt:output.obj
 0001:00036403       ?should_skip_normal_state_processing@?$standard_base@DV?$string_output_adapter@D@__crt_stdio_output@@@__crt_stdio_output@@IAE_NXZ 10037403 f i libucrt:output.obj
 0001:00036406       ?should_skip_normal_state_processing@?$standard_base@_WV?$stream_output_adapter@_W@__crt_stdio_output@@@__crt_stdio_output@@IAE_NXZ 10037406 f i libucrt:output.obj
 0001:00036409       ?should_skip_normal_state_processing@?$standard_base@_WV?$string_output_adapter@_W@__crt_stdio_output@@@__crt_stdio_output@@IAE_NXZ 10037409 f i libucrt:output.obj
 0001:0003640c       ?should_skip_type_state_output@?$positional_parameter_base@DV?$stream_output_adapter@D@__crt_stdio_output@@@__crt_stdio_output@@IBE_NXZ 1003740c f i libucrt:output.obj
 0001:00036423       ?should_skip_type_state_output@?$positional_parameter_base@DV?$string_output_adapter@D@__crt_stdio_output@@@__crt_stdio_output@@IBE_NXZ 10037423 f i libucrt:output.obj
 0001:0003643a       ?should_skip_type_state_output@?$positional_parameter_base@_WV?$stream_output_adapter@_W@__crt_stdio_output@@@__crt_stdio_output@@IBE_NXZ 1003743a f i libucrt:output.obj
 0001:00036451       ?should_skip_type_state_output@?$positional_parameter_base@_WV?$string_output_adapter@_W@__crt_stdio_output@@@__crt_stdio_output@@IBE_NXZ 10037451 f i libucrt:output.obj
 0001:00036468       ?should_skip_type_state_output@?$standard_base@DV?$stream_output_adapter@D@__crt_stdio_output@@@__crt_stdio_output@@IBE_NXZ 10037468 f i libucrt:output.obj
 0001:0003646b       ?should_skip_type_state_output@?$standard_base@DV?$string_output_adapter@D@__crt_stdio_output@@@__crt_stdio_output@@IBE_NXZ 1003746b f i libucrt:output.obj
 0001:0003646e       ?should_skip_type_state_output@?$standard_base@_WV?$stream_output_adapter@_W@__crt_stdio_output@@@__crt_stdio_output@@IBE_NXZ 1003746e f i libucrt:output.obj
 0001:00036471       ?should_skip_type_state_output@?$standard_base@_WV?$string_output_adapter@_W@__crt_stdio_output@@@__crt_stdio_output@@IBE_NXZ 10037471 f i libucrt:output.obj
 0001:00036474       ?state_case_dot@?$output_processor@DV?$stream_output_adapter@D@__crt_stdio_output@@V?$format_validation_base@DV?$stream_output_adapter@D@__crt_stdio_output@@@2@@__crt_stdio_output@@AAE_NXZ 10037474 f i libucrt:output.obj
 0001:0003647b       ?state_case_dot@?$output_processor@DV?$stream_output_adapter@D@__crt_stdio_output@@V?$positional_parameter_base@DV?$stream_output_adapter@D@__crt_stdio_output@@@2@@__crt_stdio_output@@AAE_NXZ 1003747b f i libucrt:output.obj
 0001:00036482       ?state_case_dot@?$output_processor@DV?$stream_output_adapter@D@__crt_stdio_output@@V?$standard_base@DV?$stream_output_adapter@D@__crt_stdio_output@@@2@@__crt_stdio_output@@AAE_NXZ 10037482 f i libucrt:output.obj
 0001:00036489       ?state_case_dot@?$output_processor@DV?$string_output_adapter@D@__crt_stdio_output@@V?$format_validation_base@DV?$string_output_adapter@D@__crt_stdio_output@@@2@@__crt_stdio_output@@AAE_NXZ 10037489 f i libucrt:output.obj
 0001:00036490       ?state_case_dot@?$output_processor@DV?$string_output_adapter@D@__crt_stdio_output@@V?$positional_parameter_base@DV?$string_output_adapter@D@__crt_stdio_output@@@2@@__crt_stdio_output@@AAE_NXZ 10037490 f i libucrt:output.obj
 0001:00036497       ?state_case_dot@?$output_processor@DV?$string_output_adapter@D@__crt_stdio_output@@V?$standard_base@DV?$string_output_adapter@D@__crt_stdio_output@@@2@@__crt_stdio_output@@AAE_NXZ 10037497 f i libucrt:output.obj
 0001:0003649e       ?state_case_dot@?$output_processor@_WV?$stream_output_adapter@_W@__crt_stdio_output@@V?$format_validation_base@_WV?$stream_output_adapter@_W@__crt_stdio_output@@@2@@__crt_stdio_output@@AAE_NXZ 1003749e f i libucrt:output.obj
 0001:000364a5       ?state_case_dot@?$output_processor@_WV?$stream_output_adapter@_W@__crt_stdio_output@@V?$positional_parameter_base@_WV?$stream_output_adapter@_W@__crt_stdio_output@@@2@@__crt_stdio_output@@AAE_NXZ 100374a5 f i libucrt:output.obj
 0001:000364ac       ?state_case_dot@?$output_processor@_WV?$stream_output_adapter@_W@__crt_stdio_output@@V?$standard_base@_WV?$stream_output_adapter@_W@__crt_stdio_output@@@2@@__crt_stdio_output@@AAE_NXZ 100374ac f i libucrt:output.obj
 0001:000364b3       ?state_case_dot@?$output_processor@_WV?$string_output_adapter@_W@__crt_stdio_output@@V?$format_validation_base@_WV?$string_output_adapter@_W@__crt_stdio_output@@@2@@__crt_stdio_output@@AAE_NXZ 100374b3 f i libucrt:output.obj
 0001:000364ba       ?state_case_dot@?$output_processor@_WV?$string_output_adapter@_W@__crt_stdio_output@@V?$positional_parameter_base@_WV?$string_output_adapter@_W@__crt_stdio_output@@@2@@__crt_stdio_output@@AAE_NXZ 100374ba f i libucrt:output.obj
 0001:000364c1       ?state_case_dot@?$output_processor@_WV?$string_output_adapter@_W@__crt_stdio_output@@V?$standard_base@_WV?$string_output_adapter@_W@__crt_stdio_output@@@2@@__crt_stdio_output@@AAE_NXZ 100374c1 f i libucrt:output.obj
 0001:000364c8       ?state_case_flag@?$output_processor@DV?$stream_output_adapter@D@__crt_stdio_output@@V?$format_validation_base@DV?$stream_output_adapter@D@__crt_stdio_output@@@2@@__crt_stdio_output@@AAE_NXZ 100374c8 f i libucrt:output.obj
 0001:00036505       ?state_case_flag@?$output_processor@DV?$stream_output_adapter@D@__crt_stdio_output@@V?$positional_parameter_base@DV?$stream_output_adapter@D@__crt_stdio_output@@@2@@__crt_stdio_output@@AAE_NXZ 10037505 f i libucrt:output.obj
 0001:00036542       ?state_case_flag@?$output_processor@DV?$stream_output_adapter@D@__crt_stdio_output@@V?$standard_base@DV?$stream_output_adapter@D@__crt_stdio_output@@@2@@__crt_stdio_output@@AAE_NXZ 10037542 f i libucrt:output.obj
 0001:0003657f       ?state_case_flag@?$output_processor@DV?$string_output_adapter@D@__crt_stdio_output@@V?$format_validation_base@DV?$string_output_adapter@D@__crt_stdio_output@@@2@@__crt_stdio_output@@AAE_NXZ 1003757f f i libucrt:output.obj
 0001:000365bc       ?state_case_flag@?$output_processor@DV?$string_output_adapter@D@__crt_stdio_output@@V?$positional_parameter_base@DV?$string_output_adapter@D@__crt_stdio_output@@@2@@__crt_stdio_output@@AAE_NXZ 100375bc f i libucrt:output.obj
 0001:000365f9       ?state_case_flag@?$output_processor@DV?$string_output_adapter@D@__crt_stdio_output@@V?$standard_base@DV?$string_output_adapter@D@__crt_stdio_output@@@2@@__crt_stdio_output@@AAE_NXZ 100375f9 f i libucrt:output.obj
 0001:00036636       ?state_case_flag@?$output_processor@_WV?$stream_output_adapter@_W@__crt_stdio_output@@V?$format_validation_base@_WV?$stream_output_adapter@_W@__crt_stdio_output@@@2@@__crt_stdio_output@@AAE_NXZ 10037636 f i libucrt:output.obj
 0001:00036673       ?state_case_flag@?$output_processor@_WV?$stream_output_adapter@_W@__crt_stdio_output@@V?$positional_parameter_base@_WV?$stream_output_adapter@_W@__crt_stdio_output@@@2@@__crt_stdio_output@@AAE_NXZ 10037673 f i libucrt:output.obj
 0001:000366b0       ?state_case_flag@?$output_processor@_WV?$stream_output_adapter@_W@__crt_stdio_output@@V?$standard_base@_WV?$stream_output_adapter@_W@__crt_stdio_output@@@2@@__crt_stdio_output@@AAE_NXZ 100376b0 f i libucrt:output.obj
 0001:000366ed       ?state_case_flag@?$output_processor@_WV?$string_output_adapter@_W@__crt_stdio_output@@V?$format_validation_base@_WV?$string_output_adapter@_W@__crt_stdio_output@@@2@@__crt_stdio_output@@AAE_NXZ 100376ed f i libucrt:output.obj
 0001:0003672a       ?state_case_flag@?$output_processor@_WV?$string_output_adapter@_W@__crt_stdio_output@@V?$positional_parameter_base@_WV?$string_output_adapter@_W@__crt_stdio_output@@@2@@__crt_stdio_output@@AAE_NXZ 1003772a f i libucrt:output.obj
 0001:00036767       ?state_case_flag@?$output_processor@_WV?$string_output_adapter@_W@__crt_stdio_output@@V?$standard_base@_WV?$string_output_adapter@_W@__crt_stdio_output@@@2@@__crt_stdio_output@@AAE_NXZ 10037767 f i libucrt:output.obj
 0001:000367a4       ?state_case_normal@?$output_processor@DV?$stream_output_adapter@D@__crt_stdio_output@@V?$format_validation_base@DV?$stream_output_adapter@D@__crt_stdio_output@@@2@@__crt_stdio_output@@AAE_NXZ 100377a4 f i libucrt:output.obj
 0001:00036864       ?state_case_normal@?$output_processor@DV?$stream_output_adapter@D@__crt_stdio_output@@V?$positional_parameter_base@DV?$stream_output_adapter@D@__crt_stdio_output@@@2@@__crt_stdio_output@@AAE_NXZ 10037864 f i libucrt:output.obj
 0001:0003692f       ?state_case_normal@?$output_processor@DV?$stream_output_adapter@D@__crt_stdio_output@@V?$standard_base@DV?$stream_output_adapter@D@__crt_stdio_output@@@2@@__crt_stdio_output@@AAE_NXZ 1003792f f i libucrt:output.obj
 0001:000369ef       ?state_case_normal@?$output_processor@DV?$string_output_adapter@D@__crt_stdio_output@@V?$format_validation_base@DV?$string_output_adapter@D@__crt_stdio_output@@@2@@__crt_stdio_output@@AAE_NXZ 100379ef f i libucrt:output.obj
 0001:00036aeb       ?state_case_normal@?$output_processor@DV?$string_output_adapter@D@__crt_stdio_output@@V?$positional_parameter_base@DV?$string_output_adapter@D@__crt_stdio_output@@@2@@__crt_stdio_output@@AAE_NXZ 10037aeb f i libucrt:output.obj
 0001:00036bf2       ?state_case_normal@?$output_processor@DV?$string_output_adapter@D@__crt_stdio_output@@V?$standard_base@DV?$string_output_adapter@D@__crt_stdio_output@@@2@@__crt_stdio_output@@AAE_NXZ 10037bf2 f i libucrt:output.obj
 0001:00036cee       ?state_case_normal@?$output_processor@_WV?$stream_output_adapter@_W@__crt_stdio_output@@V?$format_validation_base@_WV?$stream_output_adapter@_W@__crt_stdio_output@@@2@@__crt_stdio_output@@AAE_NXZ 10037cee f i libucrt:output.obj
 0001:00036d0c       ?state_case_normal@?$output_processor@_WV?$stream_output_adapter@_W@__crt_stdio_output@@V?$positional_parameter_base@_WV?$stream_output_adapter@_W@__crt_stdio_output@@@2@@__crt_stdio_output@@AAE_NXZ 10037d0c f i libucrt:output.obj
 0001:00036d39       ?state_case_normal@?$output_processor@_WV?$stream_output_adapter@_W@__crt_stdio_output@@V?$standard_base@_WV?$stream_output_adapter@_W@__crt_stdio_output@@@2@@__crt_stdio_output@@AAE_NXZ 10037d39 f i libucrt:output.obj
 0001:00036d57       ?state_case_normal@?$output_processor@_WV?$string_output_adapter@_W@__crt_stdio_output@@V?$format_validation_base@_WV?$string_output_adapter@_W@__crt_stdio_output@@@2@@__crt_stdio_output@@AAE_NXZ 10037d57 f i libucrt:output.obj
 0001:00036d9f       ?state_case_normal@?$output_processor@_WV?$string_output_adapter@_W@__crt_stdio_output@@V?$positional_parameter_base@_WV?$string_output_adapter@_W@__crt_stdio_output@@@2@@__crt_stdio_output@@AAE_NXZ 10037d9f f i libucrt:output.obj
 0001:00036df2       ?state_case_normal@?$output_processor@_WV?$string_output_adapter@_W@__crt_stdio_output@@V?$standard_base@_WV?$string_output_adapter@_W@__crt_stdio_output@@@2@@__crt_stdio_output@@AAE_NXZ 10037df2 f i libucrt:output.obj
 0001:00036e3a       ?state_case_normal_common@?$output_processor@DV?$stream_output_adapter@D@__crt_stdio_output@@V?$format_validation_base@DV?$stream_output_adapter@D@__crt_stdio_output@@@2@@__crt_stdio_output@@AAE_NXZ 10037e3a f i libucrt:output.obj
 0001:00036ed1       ?state_case_normal_common@?$output_processor@DV?$stream_output_adapter@D@__crt_stdio_output@@V?$positional_parameter_base@DV?$stream_output_adapter@D@__crt_stdio_output@@@2@@__crt_stdio_output@@AAE_NXZ 10037ed1 f i libucrt:output.obj
 0001:00036f68       ?state_case_normal_common@?$output_processor@DV?$stream_output_adapter@D@__crt_stdio_output@@V?$standard_base@DV?$stream_output_adapter@D@__crt_stdio_output@@@2@@__crt_stdio_output@@AAE_NXZ 10037f68 f i libucrt:output.obj
 0001:00036fff       ?state_case_normal_common@?$output_processor@DV?$string_output_adapter@D@__crt_stdio_output@@V?$format_validation_base@DV?$string_output_adapter@D@__crt_stdio_output@@@2@@__crt_stdio_output@@AAE_NXZ 10037fff f i libucrt:output.obj
 0001:000370df       ?state_case_normal_common@?$output_processor@DV?$string_output_adapter@D@__crt_stdio_output@@V?$positional_parameter_base@DV?$string_output_adapter@D@__crt_stdio_output@@@2@@__crt_stdio_output@@AAE_NXZ 100380df f i libucrt:output.obj
 0001:000371bf       ?state_case_normal_common@?$output_processor@DV?$string_output_adapter@D@__crt_stdio_output@@V?$standard_base@DV?$string_output_adapter@D@__crt_stdio_output@@@2@@__crt_stdio_output@@AAE_NXZ 100381bf f i libucrt:output.obj
 0001:0003729f       ?state_case_normal_common@?$output_processor@_WV?$stream_output_adapter@_W@__crt_stdio_output@@V?$format_validation_base@_WV?$stream_output_adapter@_W@__crt_stdio_output@@@2@@__crt_stdio_output@@AAE_NXZ 1003829f f i libucrt:output.obj
 0001:000372bd       ?state_case_normal_common@?$output_processor@_WV?$stream_output_adapter@_W@__crt_stdio_output@@V?$positional_parameter_base@_WV?$stream_output_adapter@_W@__crt_stdio_output@@@2@@__crt_stdio_output@@AAE_NXZ 100382bd f i libucrt:output.obj
 0001:000372db       ?state_case_normal_common@?$output_processor@_WV?$stream_output_adapter@_W@__crt_stdio_output@@V?$standard_base@_WV?$stream_output_adapter@_W@__crt_stdio_output@@@2@@__crt_stdio_output@@AAE_NXZ 100382db f i libucrt:output.obj
 0001:000372f9       ?state_case_normal_common@?$output_processor@_WV?$string_output_adapter@_W@__crt_stdio_output@@V?$format_validation_base@_WV?$string_output_adapter@_W@__crt_stdio_output@@@2@@__crt_stdio_output@@AAE_NXZ 100382f9 f i libucrt:output.obj
 0001:00037341       ?state_case_normal_common@?$output_processor@_WV?$string_output_adapter@_W@__crt_stdio_output@@V?$positional_parameter_base@_WV?$string_output_adapter@_W@__crt_stdio_output@@@2@@__crt_stdio_output@@AAE_NXZ 10038341 f i libucrt:output.obj
 0001:00037389       ?state_case_normal_common@?$output_processor@_WV?$string_output_adapter@_W@__crt_stdio_output@@V?$standard_base@_WV?$string_output_adapter@_W@__crt_stdio_output@@@2@@__crt_stdio_output@@AAE_NXZ 10038389 f i libucrt:output.obj
 0001:000373d1       ?state_case_normal_tchar@?$output_processor@DV?$stream_output_adapter@D@__crt_stdio_output@@V?$format_validation_base@DV?$stream_output_adapter@D@__crt_stdio_output@@@2@@__crt_stdio_output@@AAE_ND@Z 100383d1 f i libucrt:output.obj
 0001:00037458       ?state_case_normal_tchar@?$output_processor@DV?$stream_output_adapter@D@__crt_stdio_output@@V?$positional_parameter_base@DV?$stream_output_adapter@D@__crt_stdio_output@@@2@@__crt_stdio_output@@AAE_ND@Z 10038458 f i libucrt:output.obj
 0001:000374df       ?state_case_normal_tchar@?$output_processor@DV?$stream_output_adapter@D@__crt_stdio_output@@V?$standard_base@DV?$stream_output_adapter@D@__crt_stdio_output@@@2@@__crt_stdio_output@@AAE_ND@Z 100384df f i libucrt:output.obj
 0001:00037566       ?state_case_normal_tchar@?$output_processor@DV?$string_output_adapter@D@__crt_stdio_output@@V?$format_validation_base@DV?$string_output_adapter@D@__crt_stdio_output@@@2@@__crt_stdio_output@@AAE_ND@Z 10038566 f i libucrt:output.obj
 0001:00037611       ?state_case_normal_tchar@?$output_processor@DV?$string_output_adapter@D@__crt_stdio_output@@V?$positional_parameter_base@DV?$string_output_adapter@D@__crt_stdio_output@@@2@@__crt_stdio_output@@AAE_ND@Z 10038611 f i libucrt:output.obj
 0001:000376bc       ?state_case_normal_tchar@?$output_processor@DV?$string_output_adapter@D@__crt_stdio_output@@V?$standard_base@DV?$string_output_adapter@D@__crt_stdio_output@@@2@@__crt_stdio_output@@AAE_ND@Z 100386bc f i libucrt:output.obj
 0001:00037767       ?state_case_normal_tchar@?$output_processor@_WV?$stream_output_adapter@_W@__crt_stdio_output@@V?$format_validation_base@_WV?$stream_output_adapter@_W@__crt_stdio_output@@@2@@__crt_stdio_output@@AAE_N_W@Z 10038767 f i libucrt:output.obj
 0001:00037770       ?state_case_normal_tchar@?$output_processor@_WV?$stream_output_adapter@_W@__crt_stdio_output@@V?$positional_parameter_base@_WV?$stream_output_adapter@_W@__crt_stdio_output@@@2@@__crt_stdio_output@@AAE_N_W@Z 10038770 f i libucrt:output.obj
 0001:00037779       ?state_case_normal_tchar@?$output_processor@_WV?$stream_output_adapter@_W@__crt_stdio_output@@V?$standard_base@_WV?$stream_output_adapter@_W@__crt_stdio_output@@@2@@__crt_stdio_output@@AAE_N_W@Z 10038779 f i libucrt:output.obj
 0001:00037782       ?state_case_normal_tchar@?$output_processor@_WV?$string_output_adapter@_W@__crt_stdio_output@@V?$format_validation_base@_WV?$string_output_adapter@_W@__crt_stdio_output@@@2@@__crt_stdio_output@@AAE_N_W@Z 10038782 f i libucrt:output.obj
 0001:0003778b       ?state_case_normal_tchar@?$output_processor@_WV?$string_output_adapter@_W@__crt_stdio_output@@V?$positional_parameter_base@_WV?$string_output_adapter@_W@__crt_stdio_output@@@2@@__crt_stdio_output@@AAE_N_W@Z 1003878b f i libucrt:output.obj
 0001:00037794       ?state_case_normal_tchar@?$output_processor@_WV?$string_output_adapter@_W@__crt_stdio_output@@V?$standard_base@_WV?$string_output_adapter@_W@__crt_stdio_output@@@2@@__crt_stdio_output@@AAE_N_W@Z 10038794 f i libucrt:output.obj
 0001:0003779d       ?state_case_percent@?$output_processor@DV?$stream_output_adapter@D@__crt_stdio_output@@V?$format_validation_base@DV?$stream_output_adapter@D@__crt_stdio_output@@@2@@__crt_stdio_output@@AAE_NXZ 1003879d f i libucrt:output.obj
 0001:000377b5       ?state_case_percent@?$output_processor@DV?$stream_output_adapter@D@__crt_stdio_output@@V?$positional_parameter_base@DV?$stream_output_adapter@D@__crt_stdio_output@@@2@@__crt_stdio_output@@AAE_NXZ 100387b5 f i libucrt:output.obj
 0001:000377cd       ?state_case_percent@?$output_processor@DV?$stream_output_adapter@D@__crt_stdio_output@@V?$standard_base@DV?$stream_output_adapter@D@__crt_stdio_output@@@2@@__crt_stdio_output@@AAE_NXZ 100387cd f i libucrt:output.obj
 0001:000377e5       ?state_case_percent@?$output_processor@DV?$string_output_adapter@D@__crt_stdio_output@@V?$format_validation_base@DV?$string_output_adapter@D@__crt_stdio_output@@@2@@__crt_stdio_output@@AAE_NXZ 100387e5 f i libucrt:output.obj
 0001:000377fd       ?state_case_percent@?$output_processor@DV?$string_output_adapter@D@__crt_stdio_output@@V?$positional_parameter_base@DV?$string_output_adapter@D@__crt_stdio_output@@@2@@__crt_stdio_output@@AAE_NXZ 100387fd f i libucrt:output.obj
 0001:00037815       ?state_case_percent@?$output_processor@DV?$string_output_adapter@D@__crt_stdio_output@@V?$standard_base@DV?$string_output_adapter@D@__crt_stdio_output@@@2@@__crt_stdio_output@@AAE_NXZ 10038815 f i libucrt:output.obj
 0001:0003782d       ?state_case_percent@?$output_processor@_WV?$stream_output_adapter@_W@__crt_stdio_output@@V?$format_validation_base@_WV?$stream_output_adapter@_W@__crt_stdio_output@@@2@@__crt_stdio_output@@AAE_NXZ 1003882d f i libucrt:output.obj
 0001:00037845       ?state_case_percent@?$output_processor@_WV?$stream_output_adapter@_W@__crt_stdio_output@@V?$positional_parameter_base@_WV?$stream_output_adapter@_W@__crt_stdio_output@@@2@@__crt_stdio_output@@AAE_NXZ 10038845 f i libucrt:output.obj
 0001:0003785d       ?state_case_percent@?$output_processor@_WV?$stream_output_adapter@_W@__crt_stdio_output@@V?$standard_base@_WV?$stream_output_adapter@_W@__crt_stdio_output@@@2@@__crt_stdio_output@@AAE_NXZ 1003885d f i libucrt:output.obj
 0001:00037875       ?state_case_percent@?$output_processor@_WV?$string_output_adapter@_W@__crt_stdio_output@@V?$format_validation_base@_WV?$string_output_adapter@_W@__crt_stdio_output@@@2@@__crt_stdio_output@@AAE_NXZ 10038875 f i libucrt:output.obj
 0001:0003788d       ?state_case_percent@?$output_processor@_WV?$string_output_adapter@_W@__crt_stdio_output@@V?$positional_parameter_base@_WV?$string_output_adapter@_W@__crt_stdio_output@@@2@@__crt_stdio_output@@AAE_NXZ 1003888d f i libucrt:output.obj
 0001:000378a5       ?state_case_percent@?$output_processor@_WV?$string_output_adapter@_W@__crt_stdio_output@@V?$standard_base@_WV?$string_output_adapter@_W@__crt_stdio_output@@@2@@__crt_stdio_output@@AAE_NXZ 100388a5 f i libucrt:output.obj
 0001:000378bd       ?state_case_precision@?$output_processor@DV?$stream_output_adapter@D@__crt_stdio_output@@V?$format_validation_base@DV?$stream_output_adapter@D@__crt_stdio_output@@@2@@__crt_stdio_output@@AAE_NXZ 100388bd f i libucrt:output.obj
 0001:000378e3       ?state_case_precision@?$output_processor@DV?$stream_output_adapter@D@__crt_stdio_output@@V?$positional_parameter_base@DV?$stream_output_adapter@D@__crt_stdio_output@@@2@@__crt_stdio_output@@AAE_NXZ 100388e3 f i libucrt:output.obj
 0001:0003791d       ?state_case_precision@?$output_processor@DV?$stream_output_adapter@D@__crt_stdio_output@@V?$standard_base@DV?$stream_output_adapter@D@__crt_stdio_output@@@2@@__crt_stdio_output@@AAE_NXZ 1003891d f i libucrt:output.obj
 0001:00037943       ?state_case_precision@?$output_processor@DV?$string_output_adapter@D@__crt_stdio_output@@V?$format_validation_base@DV?$string_output_adapter@D@__crt_stdio_output@@@2@@__crt_stdio_output@@AAE_NXZ 10038943 f i libucrt:output.obj
 0001:00037969       ?state_case_precision@?$output_processor@DV?$string_output_adapter@D@__crt_stdio_output@@V?$positional_parameter_base@DV?$string_output_adapter@D@__crt_stdio_output@@@2@@__crt_stdio_output@@AAE_NXZ 10038969 f i libucrt:output.obj
 0001:000379a3       ?state_case_precision@?$output_processor@DV?$string_output_adapter@D@__crt_stdio_output@@V?$standard_base@DV?$string_output_adapter@D@__crt_stdio_output@@@2@@__crt_stdio_output@@AAE_NXZ 100389a3 f i libucrt:output.obj
 0001:000379c9       ?state_case_precision@?$output_processor@_WV?$stream_output_adapter@_W@__crt_stdio_output@@V?$format_validation_base@_WV?$stream_output_adapter@_W@__crt_stdio_output@@@2@@__crt_stdio_output@@AAE_NXZ 100389c9 f i libucrt:output.obj
 0001:000379f0       ?state_case_precision@?$output_processor@_WV?$stream_output_adapter@_W@__crt_stdio_output@@V?$positional_parameter_base@_WV?$stream_output_adapter@_W@__crt_stdio_output@@@2@@__crt_stdio_output@@AAE_NXZ 100389f0 f i libucrt:output.obj
 0001:00037a2b       ?state_case_precision@?$output_processor@_WV?$stream_output_adapter@_W@__crt_stdio_output@@V?$standard_base@_WV?$stream_output_adapter@_W@__crt_stdio_output@@@2@@__crt_stdio_output@@AAE_NXZ 10038a2b f i libucrt:output.obj
 0001:00037a52       ?state_case_precision@?$output_processor@_WV?$string_output_adapter@_W@__crt_stdio_output@@V?$format_validation_base@_WV?$string_output_adapter@_W@__crt_stdio_output@@@2@@__crt_stdio_output@@AAE_NXZ 10038a52 f i libucrt:output.obj
 0001:00037a79       ?state_case_precision@?$output_processor@_WV?$string_output_adapter@_W@__crt_stdio_output@@V?$positional_parameter_base@_WV?$string_output_adapter@_W@__crt_stdio_output@@@2@@__crt_stdio_output@@AAE_NXZ 10038a79 f i libucrt:output.obj
 0001:00037ab4       ?state_case_precision@?$output_processor@_WV?$string_output_adapter@_W@__crt_stdio_output@@V?$standard_base@_WV?$string_output_adapter@_W@__crt_stdio_output@@@2@@__crt_stdio_output@@AAE_NXZ 10038ab4 f i libucrt:output.obj
 0001:00037adb       ?state_case_size@?$output_processor@DV?$stream_output_adapter@D@__crt_stdio_output@@V?$format_validation_base@DV?$stream_output_adapter@D@__crt_stdio_output@@@2@@__crt_stdio_output@@AAE_NXZ 10038adb f i libucrt:output.obj
 0001:00037c39       ?state_case_size@?$output_processor@DV?$stream_output_adapter@D@__crt_stdio_output@@V?$positional_parameter_base@DV?$stream_output_adapter@D@__crt_stdio_output@@@2@@__crt_stdio_output@@AAE_NXZ 10038c39 f i libucrt:output.obj
 0001:00037d97       ?state_case_size@?$output_processor@DV?$stream_output_adapter@D@__crt_stdio_output@@V?$standard_base@DV?$stream_output_adapter@D@__crt_stdio_output@@@2@@__crt_stdio_output@@AAE_NXZ 10038d97 f i libucrt:output.obj
 0001:00037ef5       ?state_case_size@?$output_processor@DV?$string_output_adapter@D@__crt_stdio_output@@V?$format_validation_base@DV?$string_output_adapter@D@__crt_stdio_output@@@2@@__crt_stdio_output@@AAE_NXZ 10038ef5 f i libucrt:output.obj
 0001:00038053       ?state_case_size@?$output_processor@DV?$string_output_adapter@D@__crt_stdio_output@@V?$positional_parameter_base@DV?$string_output_adapter@D@__crt_stdio_output@@@2@@__crt_stdio_output@@AAE_NXZ 10039053 f i libucrt:output.obj
 0001:000381b1       ?state_case_size@?$output_processor@DV?$string_output_adapter@D@__crt_stdio_output@@V?$standard_base@DV?$string_output_adapter@D@__crt_stdio_output@@@2@@__crt_stdio_output@@AAE_NXZ 100391b1 f i libucrt:output.obj
 0001:0003830f       ?state_case_size@?$output_processor@_WV?$stream_output_adapter@_W@__crt_stdio_output@@V?$format_validation_base@_WV?$stream_output_adapter@_W@__crt_stdio_output@@@2@@__crt_stdio_output@@AAE_NXZ 1003930f f i libucrt:output.obj
 0001:0003849d       ?state_case_size@?$output_processor@_WV?$stream_output_adapter@_W@__crt_stdio_output@@V?$positional_parameter_base@_WV?$stream_output_adapter@_W@__crt_stdio_output@@@2@@__crt_stdio_output@@AAE_NXZ 1003949d f i libucrt:output.obj
 0001:0003862b       ?state_case_size@?$output_processor@_WV?$stream_output_adapter@_W@__crt_stdio_output@@V?$standard_base@_WV?$stream_output_adapter@_W@__crt_stdio_output@@@2@@__crt_stdio_output@@AAE_NXZ 1003962b f i libucrt:output.obj
 0001:000387b9       ?state_case_size@?$output_processor@_WV?$string_output_adapter@_W@__crt_stdio_output@@V?$format_validation_base@_WV?$string_output_adapter@_W@__crt_stdio_output@@@2@@__crt_stdio_output@@AAE_NXZ 100397b9 f i libucrt:output.obj
 0001:00038947       ?state_case_size@?$output_processor@_WV?$string_output_adapter@_W@__crt_stdio_output@@V?$positional_parameter_base@_WV?$string_output_adapter@_W@__crt_stdio_output@@@2@@__crt_stdio_output@@AAE_NXZ 10039947 f i libucrt:output.obj
 0001:00038ad5       ?state_case_size@?$output_processor@_WV?$string_output_adapter@_W@__crt_stdio_output@@V?$standard_base@_WV?$string_output_adapter@_W@__crt_stdio_output@@@2@@__crt_stdio_output@@AAE_NXZ 10039ad5 f i libucrt:output.obj
 0001:00038c63       ?state_case_type@?$output_processor@DV?$stream_output_adapter@D@__crt_stdio_output@@V?$format_validation_base@DV?$stream_output_adapter@D@__crt_stdio_output@@@2@@__crt_stdio_output@@AAE_NXZ 10039c63 f i libucrt:output.obj
 0001:00038fab       ?state_case_type@?$output_processor@DV?$stream_output_adapter@D@__crt_stdio_output@@V?$positional_parameter_base@DV?$stream_output_adapter@D@__crt_stdio_output@@@2@@__crt_stdio_output@@AAE_NXZ 10039fab f i libucrt:output.obj
 0001:00039302       ?state_case_type@?$output_processor@DV?$stream_output_adapter@D@__crt_stdio_output@@V?$standard_base@DV?$stream_output_adapter@D@__crt_stdio_output@@@2@@__crt_stdio_output@@AAE_NXZ 1003a302 f i libucrt:output.obj
 0001:0003964a       ?state_case_type@?$output_processor@DV?$string_output_adapter@D@__crt_stdio_output@@V?$format_validation_base@DV?$string_output_adapter@D@__crt_stdio_output@@@2@@__crt_stdio_output@@AAE_NXZ 1003a64a f i libucrt:output.obj
 0001:000399d8       ?state_case_type@?$output_processor@DV?$string_output_adapter@D@__crt_stdio_output@@V?$positional_parameter_base@DV?$string_output_adapter@D@__crt_stdio_output@@@2@@__crt_stdio_output@@AAE_NXZ 1003a9d8 f i libucrt:output.obj
 0001:00039d75       ?state_case_type@?$output_processor@DV?$string_output_adapter@D@__crt_stdio_output@@V?$standard_base@DV?$string_output_adapter@D@__crt_stdio_output@@@2@@__crt_stdio_output@@AAE_NXZ 1003ad75 f i libucrt:output.obj
 0001:0003a103       ?state_case_type@?$output_processor@_WV?$stream_output_adapter@_W@__crt_stdio_output@@V?$format_validation_base@_WV?$stream_output_adapter@_W@__crt_stdio_output@@@2@@__crt_stdio_output@@AAE_NXZ 1003b103 f i libucrt:output.obj
 0001:0003a468       ?state_case_type@?$output_processor@_WV?$stream_output_adapter@_W@__crt_stdio_output@@V?$positional_parameter_base@_WV?$stream_output_adapter@_W@__crt_stdio_output@@@2@@__crt_stdio_output@@AAE_NXZ 1003b468 f i libucrt:output.obj
 0001:0003a7dc       ?state_case_type@?$output_processor@_WV?$stream_output_adapter@_W@__crt_stdio_output@@V?$standard_base@_WV?$stream_output_adapter@_W@__crt_stdio_output@@@2@@__crt_stdio_output@@AAE_NXZ 1003b7dc f i libucrt:output.obj
 0001:0003ab41       ?state_case_type@?$output_processor@_WV?$string_output_adapter@_W@__crt_stdio_output@@V?$format_validation_base@_WV?$string_output_adapter@_W@__crt_stdio_output@@@2@@__crt_stdio_output@@AAE_NXZ 1003bb41 f i libucrt:output.obj
 0001:0003af62       ?state_case_type@?$output_processor@_WV?$string_output_adapter@_W@__crt_stdio_output@@V?$positional_parameter_base@_WV?$string_output_adapter@_W@__crt_stdio_output@@@2@@__crt_stdio_output@@AAE_NXZ 1003bf62 f i libucrt:output.obj
 0001:0003b392       ?state_case_type@?$output_processor@_WV?$string_output_adapter@_W@__crt_stdio_output@@V?$standard_base@_WV?$string_output_adapter@_W@__crt_stdio_output@@@2@@__crt_stdio_output@@AAE_NXZ 1003c392 f i libucrt:output.obj
 0001:0003b7b3       ?state_case_width@?$output_processor@DV?$stream_output_adapter@D@__crt_stdio_output@@V?$format_validation_base@DV?$stream_output_adapter@D@__crt_stdio_output@@@2@@__crt_stdio_output@@AAE_NXZ 1003c7b3 f i libucrt:output.obj
 0001:0003b7de       ?state_case_width@?$output_processor@DV?$stream_output_adapter@D@__crt_stdio_output@@V?$positional_parameter_base@DV?$stream_output_adapter@D@__crt_stdio_output@@@2@@__crt_stdio_output@@AAE_NXZ 1003c7de f i libucrt:output.obj
 0001:0003b81e       ?state_case_width@?$output_processor@DV?$stream_output_adapter@D@__crt_stdio_output@@V?$standard_base@DV?$stream_output_adapter@D@__crt_stdio_output@@@2@@__crt_stdio_output@@AAE_NXZ 1003c81e f i libucrt:output.obj
 0001:0003b849       ?state_case_width@?$output_processor@DV?$string_output_adapter@D@__crt_stdio_output@@V?$format_validation_base@DV?$string_output_adapter@D@__crt_stdio_output@@@2@@__crt_stdio_output@@AAE_NXZ 1003c849 f i libucrt:output.obj
 0001:0003b874       ?state_case_width@?$output_processor@DV?$string_output_adapter@D@__crt_stdio_output@@V?$positional_parameter_base@DV?$string_output_adapter@D@__crt_stdio_output@@@2@@__crt_stdio_output@@AAE_NXZ 1003c874 f i libucrt:output.obj
 0001:0003b8b4       ?state_case_width@?$output_processor@DV?$string_output_adapter@D@__crt_stdio_output@@V?$standard_base@DV?$string_output_adapter@D@__crt_stdio_output@@@2@@__crt_stdio_output@@AAE_NXZ 1003c8b4 f i libucrt:output.obj
 0001:0003b8df       ?state_case_width@?$output_processor@_WV?$stream_output_adapter@_W@__crt_stdio_output@@V?$format_validation_base@_WV?$stream_output_adapter@_W@__crt_stdio_output@@@2@@__crt_stdio_output@@AAE_NXZ 1003c8df f i libucrt:output.obj
 0001:0003b90b       ?state_case_width@?$output_processor@_WV?$stream_output_adapter@_W@__crt_stdio_output@@V?$positional_parameter_base@_WV?$stream_output_adapter@_W@__crt_stdio_output@@@2@@__crt_stdio_output@@AAE_NXZ 1003c90b f i libucrt:output.obj
 0001:0003b94c       ?state_case_width@?$output_processor@_WV?$stream_output_adapter@_W@__crt_stdio_output@@V?$standard_base@_WV?$stream_output_adapter@_W@__crt_stdio_output@@@2@@__crt_stdio_output@@AAE_NXZ 1003c94c f i libucrt:output.obj
 0001:0003b978       ?state_case_width@?$output_processor@_WV?$string_output_adapter@_W@__crt_stdio_output@@V?$format_validation_base@_WV?$string_output_adapter@_W@__crt_stdio_output@@@2@@__crt_stdio_output@@AAE_NXZ 1003c978 f i libucrt:output.obj
 0001:0003b9a4       ?state_case_width@?$output_processor@_WV?$string_output_adapter@_W@__crt_stdio_output@@V?$positional_parameter_base@_WV?$string_output_adapter@_W@__crt_stdio_output@@@2@@__crt_stdio_output@@AAE_NXZ 1003c9a4 f i libucrt:output.obj
 0001:0003b9e5       ?state_case_width@?$output_processor@_WV?$string_output_adapter@_W@__crt_stdio_output@@V?$standard_base@_WV?$string_output_adapter@_W@__crt_stdio_output@@@2@@__crt_stdio_output@@AAE_NXZ 1003c9e5 f i libucrt:output.obj
 0001:0003ba11       ?state_count@?$format_validation_base@DV?$stream_output_adapter@D@__crt_stdio_output@@@__crt_stdio_output@@KAIXZ 1003ca11 f i libucrt:output.obj
 0001:0003ba15       ?state_count@?$format_validation_base@DV?$string_output_adapter@D@__crt_stdio_output@@@__crt_stdio_output@@KAIXZ 1003ca15 f i libucrt:output.obj
 0001:0003ba19       ?state_count@?$format_validation_base@_WV?$stream_output_adapter@_W@__crt_stdio_output@@@__crt_stdio_output@@KAIXZ 1003ca19 f i libucrt:output.obj
 0001:0003ba1d       ?state_count@?$format_validation_base@_WV?$string_output_adapter@_W@__crt_stdio_output@@@__crt_stdio_output@@KAIXZ 1003ca1d f i libucrt:output.obj
 0001:0003ba21       ?state_count@?$standard_base@DV?$stream_output_adapter@D@__crt_stdio_output@@@__crt_stdio_output@@KAIXZ 1003ca21 f i libucrt:output.obj
 0001:0003ba25       ?state_count@?$standard_base@DV?$string_output_adapter@D@__crt_stdio_output@@@__crt_stdio_output@@KAIXZ 1003ca25 f i libucrt:output.obj
 0001:0003ba29       ?state_count@?$standard_base@_WV?$stream_output_adapter@_W@__crt_stdio_output@@@__crt_stdio_output@@KAIXZ 1003ca29 f i libucrt:output.obj
 0001:0003ba2d       ?state_count@?$standard_base@_WV?$string_output_adapter@_W@__crt_stdio_output@@@__crt_stdio_output@@KAIXZ 1003ca2d f i libucrt:output.obj
 0001:0003ba31       ?state_transition_table@?$format_validation_base@DV?$stream_output_adapter@D@__crt_stdio_output@@@__crt_stdio_output@@KAABV?$spectre_mitigated_lookup_table@Ustate_transition_pair@__crt_stdio_output@@$0IA@@2@XZ 1003ca31 f i libucrt:output.obj
 0001:0003ba37       ?state_transition_table@?$format_validation_base@DV?$string_output_adapter@D@__crt_stdio_output@@@__crt_stdio_output@@KAABV?$spectre_mitigated_lookup_table@Ustate_transition_pair@__crt_stdio_output@@$0IA@@2@XZ 1003ca37 f i libucrt:output.obj
 0001:0003ba3d       ?state_transition_table@?$format_validation_base@_WV?$stream_output_adapter@_W@__crt_stdio_output@@@__crt_stdio_output@@KAABV?$spectre_mitigated_lookup_table@Ustate_transition_pair@__crt_stdio_output@@$0IA@@2@XZ 1003ca3d f i libucrt:output.obj
 0001:0003ba43       ?state_transition_table@?$format_validation_base@_WV?$string_output_adapter@_W@__crt_stdio_output@@@__crt_stdio_output@@KAABV?$spectre_mitigated_lookup_table@Ustate_transition_pair@__crt_stdio_output@@$0IA@@2@XZ 1003ca43 f i libucrt:output.obj
 0001:0003ba49       ?state_transition_table@?$standard_base@DV?$stream_output_adapter@D@__crt_stdio_output@@@__crt_stdio_output@@KAABV?$spectre_mitigated_lookup_table@Ustate_transition_pair@__crt_stdio_output@@$0IA@@2@XZ 1003ca49 f i libucrt:output.obj
 0001:0003ba4f       ?state_transition_table@?$standard_base@DV?$string_output_adapter@D@__crt_stdio_output@@@__crt_stdio_output@@KAABV?$spectre_mitigated_lookup_table@Ustate_transition_pair@__crt_stdio_output@@$0IA@@2@XZ 1003ca4f f i libucrt:output.obj
 0001:0003ba55       ?state_transition_table@?$standard_base@_WV?$stream_output_adapter@_W@__crt_stdio_output@@@__crt_stdio_output@@KAABV?$spectre_mitigated_lookup_table@Ustate_transition_pair@__crt_stdio_output@@$0IA@@2@XZ 1003ca55 f i libucrt:output.obj
 0001:0003ba5b       ?state_transition_table@?$standard_base@_WV?$string_output_adapter@_W@__crt_stdio_output@@@__crt_stdio_output@@KAABV?$spectre_mitigated_lookup_table@Ustate_transition_pair@__crt_stdio_output@@$0IA@@2@XZ 1003ca5b f i libucrt:output.obj
 0001:0003ba61       ?tchar_string@?$common_data@D@__crt_stdio_output@@IAEAAPADD@Z 1003ca61 f i libucrt:output.obj
 0001:0003ba67       ?tchar_string@?$common_data@D@__crt_stdio_output@@IAEAAPADXZ 1003ca67 f i libucrt:output.obj
 0001:0003ba6b       ?tchar_string@?$common_data@_W@__crt_stdio_output@@IAEAAPA_WXZ 1003ca6b f i libucrt:output.obj
 0001:0003ba6f       ?tchar_string@?$common_data@_W@__crt_stdio_output@@IAEAAPA_W_W@Z 1003ca6f f i libucrt:output.obj
 0001:0003ba75       ?to_integer_size@__crt_stdio_output@@YAIW4length_modifier@1@@Z 1003ca75 f i libucrt:output.obj
 0001:0003bac9       ?type_case_X@?$output_processor@DV?$stream_output_adapter@D@__crt_stdio_output@@V?$format_validation_base@DV?$stream_output_adapter@D@__crt_stdio_output@@@2@@__crt_stdio_output@@AAE_NXZ 1003cac9 f i libucrt:output.obj
 0001:0003bad1       ?type_case_X@?$output_processor@DV?$stream_output_adapter@D@__crt_stdio_output@@V?$positional_parameter_base@DV?$stream_output_adapter@D@__crt_stdio_output@@@2@@__crt_stdio_output@@AAE_NXZ 1003cad1 f i libucrt:output.obj
 0001:0003bad9       ?type_case_X@?$output_processor@DV?$stream_output_adapter@D@__crt_stdio_output@@V?$standard_base@DV?$stream_output_adapter@D@__crt_stdio_output@@@2@@__crt_stdio_output@@AAE_NXZ 1003cad9 f i libucrt:output.obj
 0001:0003bae1       ?type_case_X@?$output_processor@DV?$string_output_adapter@D@__crt_stdio_output@@V?$format_validation_base@DV?$string_output_adapter@D@__crt_stdio_output@@@2@@__crt_stdio_output@@AAE_NXZ 1003cae1 f i libucrt:output.obj
 0001:0003bae9       ?type_case_X@?$output_processor@DV?$string_output_adapter@D@__crt_stdio_output@@V?$positional_parameter_base@DV?$string_output_adapter@D@__crt_stdio_output@@@2@@__crt_stdio_output@@AAE_NXZ 1003cae9 f i libucrt:output.obj
 0001:0003baf1       ?type_case_X@?$output_processor@DV?$string_output_adapter@D@__crt_stdio_output@@V?$standard_base@DV?$string_output_adapter@D@__crt_stdio_output@@@2@@__crt_stdio_output@@AAE_NXZ 1003caf1 f i libucrt:output.obj
 0001:0003baf9       ?type_case_X@?$output_processor@_WV?$stream_output_adapter@_W@__crt_stdio_output@@V?$format_validation_base@_WV?$stream_output_adapter@_W@__crt_stdio_output@@@2@@__crt_stdio_output@@AAE_NXZ 1003caf9 f i libucrt:output.obj
 0001:0003bb01       ?type_case_X@?$output_processor@_WV?$stream_output_adapter@_W@__crt_stdio_output@@V?$positional_parameter_base@_WV?$stream_output_adapter@_W@__crt_stdio_output@@@2@@__crt_stdio_output@@AAE_NXZ 1003cb01 f i libucrt:output.obj
 0001:0003bb09       ?type_case_X@?$output_processor@_WV?$stream_output_adapter@_W@__crt_stdio_output@@V?$standard_base@_WV?$stream_output_adapter@_W@__crt_stdio_output@@@2@@__crt_stdio_output@@AAE_NXZ 1003cb09 f i libucrt:output.obj
 0001:0003bb11       ?type_case_X@?$output_processor@_WV?$string_output_adapter@_W@__crt_stdio_output@@V?$format_validation_base@_WV?$string_output_adapter@_W@__crt_stdio_output@@@2@@__crt_stdio_output@@AAE_NXZ 1003cb11 f i libucrt:output.obj
 0001:0003bb19       ?type_case_X@?$output_processor@_WV?$string_output_adapter@_W@__crt_stdio_output@@V?$positional_parameter_base@_WV?$string_output_adapter@_W@__crt_stdio_output@@@2@@__crt_stdio_output@@AAE_NXZ 1003cb19 f i libucrt:output.obj
 0001:0003bb21       ?type_case_X@?$output_processor@_WV?$string_output_adapter@_W@__crt_stdio_output@@V?$standard_base@_WV?$string_output_adapter@_W@__crt_stdio_output@@@2@@__crt_stdio_output@@AAE_NXZ 1003cb21 f i libucrt:output.obj
 0001:0003bb29       ?type_case_Z@?$output_processor@DV?$stream_output_adapter@D@__crt_stdio_output@@V?$format_validation_base@DV?$stream_output_adapter@D@__crt_stdio_output@@@2@@__crt_stdio_output@@AAE_NXZ 1003cb29 f i libucrt:output.obj
 0001:0003bb83       ?type_case_Z@?$output_processor@DV?$stream_output_adapter@D@__crt_stdio_output@@V?$positional_parameter_base@DV?$stream_output_adapter@D@__crt_stdio_output@@@2@@__crt_stdio_output@@AAE_NXZ 1003cb83 f i libucrt:output.obj
 0001:0003bbf7       ?type_case_Z@?$output_processor@DV?$stream_output_adapter@D@__crt_stdio_output@@V?$standard_base@DV?$stream_output_adapter@D@__crt_stdio_output@@@2@@__crt_stdio_output@@AAE_NXZ 1003cbf7 f i libucrt:output.obj
 0001:0003bc51       ?type_case_Z@?$output_processor@DV?$string_output_adapter@D@__crt_stdio_output@@V?$format_validation_base@DV?$string_output_adapter@D@__crt_stdio_output@@@2@@__crt_stdio_output@@AAE_NXZ 1003cc51 f i libucrt:output.obj
 0001:0003bcab       ?type_case_Z@?$output_processor@DV?$string_output_adapter@D@__crt_stdio_output@@V?$positional_parameter_base@DV?$string_output_adapter@D@__crt_stdio_output@@@2@@__crt_stdio_output@@AAE_NXZ 1003ccab f i libucrt:output.obj
 0001:0003bd1f       ?type_case_Z@?$output_processor@DV?$string_output_adapter@D@__crt_stdio_output@@V?$standard_base@DV?$string_output_adapter@D@__crt_stdio_output@@@2@@__crt_stdio_output@@AAE_NXZ 1003cd1f f i libucrt:output.obj
 0001:0003bd79       ?type_case_Z@?$output_processor@_WV?$stream_output_adapter@_W@__crt_stdio_output@@V?$format_validation_base@_WV?$stream_output_adapter@_W@__crt_stdio_output@@@2@@__crt_stdio_output@@AAE_NXZ 1003cd79 f i libucrt:output.obj
 0001:0003bdd3       ?type_case_Z@?$output_processor@_WV?$stream_output_adapter@_W@__crt_stdio_output@@V?$positional_parameter_base@_WV?$stream_output_adapter@_W@__crt_stdio_output@@@2@@__crt_stdio_output@@AAE_NXZ 1003cdd3 f i libucrt:output.obj
 0001:0003be47       ?type_case_Z@?$output_processor@_WV?$stream_output_adapter@_W@__crt_stdio_output@@V?$standard_base@_WV?$stream_output_adapter@_W@__crt_stdio_output@@@2@@__crt_stdio_output@@AAE_NXZ 1003ce47 f i libucrt:output.obj
 0001:0003bea1       ?type_case_Z@?$output_processor@_WV?$string_output_adapter@_W@__crt_stdio_output@@V?$format_validation_base@_WV?$string_output_adapter@_W@__crt_stdio_output@@@2@@__crt_stdio_output@@AAE_NXZ 1003cea1 f i libucrt:output.obj
 0001:0003befb       ?type_case_Z@?$output_processor@_WV?$string_output_adapter@_W@__crt_stdio_output@@V?$positional_parameter_base@_WV?$string_output_adapter@_W@__crt_stdio_output@@@2@@__crt_stdio_output@@AAE_NXZ 1003cefb f i libucrt:output.obj
 0001:0003bf6f       ?type_case_Z@?$output_processor@_WV?$string_output_adapter@_W@__crt_stdio_output@@V?$standard_base@_WV?$string_output_adapter@_W@__crt_stdio_output@@@2@@__crt_stdio_output@@AAE_NXZ 1003cf6f f i libucrt:output.obj
 0001:0003bfc9       ?type_case_a@?$output_processor@DV?$stream_output_adapter@D@__crt_stdio_output@@V?$format_validation_base@DV?$stream_output_adapter@D@__crt_stdio_output@@@2@@__crt_stdio_output@@AAE_NXZ 1003cfc9 f i libucrt:output.obj
 0001:0003c153       ?type_case_a@?$output_processor@DV?$stream_output_adapter@D@__crt_stdio_output@@V?$positional_parameter_base@DV?$stream_output_adapter@D@__crt_stdio_output@@@2@@__crt_stdio_output@@AAE_NXZ 1003d153 f i libucrt:output.obj
 0001:0003c2fe       ?type_case_a@?$output_processor@DV?$stream_output_adapter@D@__crt_stdio_output@@V?$standard_base@DV?$stream_output_adapter@D@__crt_stdio_output@@@2@@__crt_stdio_output@@AAE_NXZ 1003d2fe f i libucrt:output.obj
 0001:0003c488       ?type_case_a@?$output_processor@DV?$string_output_adapter@D@__crt_stdio_output@@V?$format_validation_base@DV?$string_output_adapter@D@__crt_stdio_output@@@2@@__crt_stdio_output@@AAE_NXZ 1003d488 f i libucrt:output.obj
 0001:0003c612       ?type_case_a@?$output_processor@DV?$string_output_adapter@D@__crt_stdio_output@@V?$positional_parameter_base@DV?$string_output_adapter@D@__crt_stdio_output@@@2@@__crt_stdio_output@@AAE_NXZ 1003d612 f i libucrt:output.obj
 0001:0003c7bd       ?type_case_a@?$output_processor@DV?$string_output_adapter@D@__crt_stdio_output@@V?$standard_base@DV?$string_output_adapter@D@__crt_stdio_output@@@2@@__crt_stdio_output@@AAE_NXZ 1003d7bd f i libucrt:output.obj
 0001:0003c947       ?type_case_a@?$output_processor@_WV?$stream_output_adapter@_W@__crt_stdio_output@@V?$format_validation_base@_WV?$stream_output_adapter@_W@__crt_stdio_output@@@2@@__crt_stdio_output@@AAE_NXZ 1003d947 f i libucrt:output.obj
 0001:0003cae7       ?type_case_a@?$output_processor@_WV?$stream_output_adapter@_W@__crt_stdio_output@@V?$positional_parameter_base@_WV?$stream_output_adapter@_W@__crt_stdio_output@@@2@@__crt_stdio_output@@AAE_NXZ 1003dae7 f i libucrt:output.obj
 0001:0003cca8       ?type_case_a@?$output_processor@_WV?$stream_output_adapter@_W@__crt_stdio_output@@V?$standard_base@_WV?$stream_output_adapter@_W@__crt_stdio_output@@@2@@__crt_stdio_output@@AAE_NXZ 1003dca8 f i libucrt:output.obj
 0001:0003ce48       ?type_case_a@?$output_processor@_WV?$string_output_adapter@_W@__crt_stdio_output@@V?$format_validation_base@_WV?$string_output_adapter@_W@__crt_stdio_output@@@2@@__crt_stdio_output@@AAE_NXZ 1003de48 f i libucrt:output.obj
 0001:0003cfe8       ?type_case_a@?$output_processor@_WV?$string_output_adapter@_W@__crt_stdio_output@@V?$positional_parameter_base@_WV?$string_output_adapter@_W@__crt_stdio_output@@@2@@__crt_stdio_output@@AAE_NXZ 1003dfe8 f i libucrt:output.obj
 0001:0003d1a9       ?type_case_a@?$output_processor@_WV?$string_output_adapter@_W@__crt_stdio_output@@V?$standard_base@_WV?$string_output_adapter@_W@__crt_stdio_output@@@2@@__crt_stdio_output@@AAE_NXZ 1003e1a9 f i libucrt:output.obj
 0001:0003d349       ?type_case_c@?$output_processor@DV?$stream_output_adapter@D@__crt_stdio_output@@V?$format_validation_base@DV?$stream_output_adapter@D@__crt_stdio_output@@@2@@__crt_stdio_output@@AAE_NXZ 1003e349 f i libucrt:output.obj
 0001:0003d351       ?type_case_c@?$output_processor@DV?$stream_output_adapter@D@__crt_stdio_output@@V?$positional_parameter_base@DV?$stream_output_adapter@D@__crt_stdio_output@@@2@@__crt_stdio_output@@AAE_NXZ 1003e351 f i libucrt:output.obj
 0001:0003d359       ?type_case_c@?$output_processor@DV?$stream_output_adapter@D@__crt_stdio_output@@V?$standard_base@DV?$stream_output_adapter@D@__crt_stdio_output@@@2@@__crt_stdio_output@@AAE_NXZ 1003e359 f i libucrt:output.obj
 0001:0003d361       ?type_case_c@?$output_processor@DV?$string_output_adapter@D@__crt_stdio_output@@V?$format_validation_base@DV?$string_output_adapter@D@__crt_stdio_output@@@2@@__crt_stdio_output@@AAE_NXZ 1003e361 f i libucrt:output.obj
 0001:0003d369       ?type_case_c@?$output_processor@DV?$string_output_adapter@D@__crt_stdio_output@@V?$positional_parameter_base@DV?$string_output_adapter@D@__crt_stdio_output@@@2@@__crt_stdio_output@@AAE_NXZ 1003e369 f i libucrt:output.obj
 0001:0003d371       ?type_case_c@?$output_processor@DV?$string_output_adapter@D@__crt_stdio_output@@V?$standard_base@DV?$string_output_adapter@D@__crt_stdio_output@@@2@@__crt_stdio_output@@AAE_NXZ 1003e371 f i libucrt:output.obj
 0001:0003d379       ?type_case_c@?$output_processor@_WV?$stream_output_adapter@_W@__crt_stdio_output@@V?$format_validation_base@_WV?$stream_output_adapter@_W@__crt_stdio_output@@@2@@__crt_stdio_output@@AAE_NXZ 1003e379 f i libucrt:output.obj
 0001:0003d381       ?type_case_c@?$output_processor@_WV?$stream_output_adapter@_W@__crt_stdio_output@@V?$positional_parameter_base@_WV?$stream_output_adapter@_W@__crt_stdio_output@@@2@@__crt_stdio_output@@AAE_NXZ 1003e381 f i libucrt:output.obj
 0001:0003d389       ?type_case_c@?$output_processor@_WV?$stream_output_adapter@_W@__crt_stdio_output@@V?$standard_base@_WV?$stream_output_adapter@_W@__crt_stdio_output@@@2@@__crt_stdio_output@@AAE_NXZ 1003e389 f i libucrt:output.obj
 0001:0003d391       ?type_case_c@?$output_processor@_WV?$string_output_adapter@_W@__crt_stdio_output@@V?$format_validation_base@_WV?$string_output_adapter@_W@__crt_stdio_output@@@2@@__crt_stdio_output@@AAE_NXZ 1003e391 f i libucrt:output.obj
 0001:0003d399       ?type_case_c@?$output_processor@_WV?$string_output_adapter@_W@__crt_stdio_output@@V?$positional_parameter_base@_WV?$string_output_adapter@_W@__crt_stdio_output@@@2@@__crt_stdio_output@@AAE_NXZ 1003e399 f i libucrt:output.obj
 0001:0003d3a1       ?type_case_c@?$output_processor@_WV?$string_output_adapter@_W@__crt_stdio_output@@V?$standard_base@_WV?$string_output_adapter@_W@__crt_stdio_output@@@2@@__crt_stdio_output@@AAE_NXZ 1003e3a1 f i libucrt:output.obj
 0001:0003d3a9       ?type_case_c_tchar@?$output_processor@DV?$stream_output_adapter@D@__crt_stdio_output@@V?$format_validation_base@DV?$stream_output_adapter@D@__crt_stdio_output@@@2@@__crt_stdio_output@@AAE_ND@Z 1003e3a9 f i libucrt:output.obj
 0001:0003d43e       ?type_case_c_tchar@?$output_processor@DV?$stream_output_adapter@D@__crt_stdio_output@@V?$positional_parameter_base@DV?$stream_output_adapter@D@__crt_stdio_output@@@2@@__crt_stdio_output@@AAE_ND@Z 1003e43e f i libucrt:output.obj
 0001:0003d4ff       ?type_case_c_tchar@?$output_processor@DV?$stream_output_adapter@D@__crt_stdio_output@@V?$standard_base@DV?$stream_output_adapter@D@__crt_stdio_output@@@2@@__crt_stdio_output@@AAE_ND@Z 1003e4ff f i libucrt:output.obj
 0001:0003d594       ?type_case_c_tchar@?$output_processor@DV?$string_output_adapter@D@__crt_stdio_output@@V?$format_validation_base@DV?$string_output_adapter@D@__crt_stdio_output@@@2@@__crt_stdio_output@@AAE_ND@Z 1003e594 f i libucrt:output.obj
 0001:0003d629       ?type_case_c_tchar@?$output_processor@DV?$string_output_adapter@D@__crt_stdio_output@@V?$positional_parameter_base@DV?$string_output_adapter@D@__crt_stdio_output@@@2@@__crt_stdio_output@@AAE_ND@Z 1003e629 f i libucrt:output.obj
 0001:0003d6ea       ?type_case_c_tchar@?$output_processor@DV?$string_output_adapter@D@__crt_stdio_output@@V?$standard_base@DV?$string_output_adapter@D@__crt_stdio_output@@@2@@__crt_stdio_output@@AAE_ND@Z 1003e6ea f i libucrt:output.obj
 0001:0003d77f       ?type_case_c_tchar@?$output_processor@_WV?$stream_output_adapter@_W@__crt_stdio_output@@V?$format_validation_base@_WV?$stream_output_adapter@_W@__crt_stdio_output@@@2@@__crt_stdio_output@@AAE_N_W@Z 1003e77f f i libucrt:output.obj
 0001:0003d826       ?type_case_c_tchar@?$output_processor@_WV?$stream_output_adapter@_W@__crt_stdio_output@@V?$positional_parameter_base@_WV?$stream_output_adapter@_W@__crt_stdio_output@@@2@@__crt_stdio_output@@AAE_N_W@Z 1003e826 f i libucrt:output.obj
 0001:0003d8f1       ?type_case_c_tchar@?$output_processor@_WV?$stream_output_adapter@_W@__crt_stdio_output@@V?$standard_base@_WV?$stream_output_adapter@_W@__crt_stdio_output@@@2@@__crt_stdio_output@@AAE_N_W@Z 1003e8f1 f i libucrt:output.obj
 0001:0003d998       ?type_case_c_tchar@?$output_processor@_WV?$string_output_adapter@_W@__crt_stdio_output@@V?$format_validation_base@_WV?$string_output_adapter@_W@__crt_stdio_output@@@2@@__crt_stdio_output@@AAE_N_W@Z 1003e998 f i libucrt:output.obj
 0001:0003da3f       ?type_case_c_tchar@?$output_processor@_WV?$string_output_adapter@_W@__crt_stdio_output@@V?$positional_parameter_base@_WV?$string_output_adapter@_W@__crt_stdio_output@@@2@@__crt_stdio_output@@AAE_N_W@Z 1003ea3f f i libucrt:output.obj
 0001:0003db0a       ?type_case_c_tchar@?$output_processor@_WV?$string_output_adapter@_W@__crt_stdio_output@@V?$standard_base@_WV?$string_output_adapter@_W@__crt_stdio_output@@@2@@__crt_stdio_output@@AAE_N_W@Z 1003eb0a f i libucrt:output.obj
 0001:0003dbb1       ?type_case_d@?$output_processor@DV?$stream_output_adapter@D@__crt_stdio_output@@V?$format_validation_base@DV?$stream_output_adapter@D@__crt_stdio_output@@@2@@__crt_stdio_output@@AAE_NXZ 1003ebb1 f i libucrt:output.obj
 0001:0003dbbd       ?type_case_d@?$output_processor@DV?$stream_output_adapter@D@__crt_stdio_output@@V?$positional_parameter_base@DV?$stream_output_adapter@D@__crt_stdio_output@@@2@@__crt_stdio_output@@AAE_NXZ 1003ebbd f i libucrt:output.obj
 0001:0003dbc9       ?type_case_d@?$output_processor@DV?$stream_output_adapter@D@__crt_stdio_output@@V?$standard_base@DV?$stream_output_adapter@D@__crt_stdio_output@@@2@@__crt_stdio_output@@AAE_NXZ 1003ebc9 f i libucrt:output.obj
 0001:0003dbd5       ?type_case_d@?$output_processor@DV?$string_output_adapter@D@__crt_stdio_output@@V?$format_validation_base@DV?$string_output_adapter@D@__crt_stdio_output@@@2@@__crt_stdio_output@@AAE_NXZ 1003ebd5 f i libucrt:output.obj
 0001:0003dbe1       ?type_case_d@?$output_processor@DV?$string_output_adapter@D@__crt_stdio_output@@V?$positional_parameter_base@DV?$string_output_adapter@D@__crt_stdio_output@@@2@@__crt_stdio_output@@AAE_NXZ 1003ebe1 f i libucrt:output.obj
 0001:0003dbed       ?type_case_d@?$output_processor@DV?$string_output_adapter@D@__crt_stdio_output@@V?$standard_base@DV?$string_output_adapter@D@__crt_stdio_output@@@2@@__crt_stdio_output@@AAE_NXZ 1003ebed f i libucrt:output.obj
 0001:0003dbf9       ?type_case_d@?$output_processor@_WV?$stream_output_adapter@_W@__crt_stdio_output@@V?$format_validation_base@_WV?$stream_output_adapter@_W@__crt_stdio_output@@@2@@__crt_stdio_output@@AAE_NXZ 1003ebf9 f i libucrt:output.obj
 0001:0003dc05       ?type_case_d@?$output_processor@_WV?$stream_output_adapter@_W@__crt_stdio_output@@V?$positional_parameter_base@_WV?$stream_output_adapter@_W@__crt_stdio_output@@@2@@__crt_stdio_output@@AAE_NXZ 1003ec05 f i libucrt:output.obj
 0001:0003dc11       ?type_case_d@?$output_processor@_WV?$stream_output_adapter@_W@__crt_stdio_output@@V?$standard_base@_WV?$stream_output_adapter@_W@__crt_stdio_output@@@2@@__crt_stdio_output@@AAE_NXZ 1003ec11 f i libucrt:output.obj
 0001:0003dc1d       ?type_case_d@?$output_processor@_WV?$string_output_adapter@_W@__crt_stdio_output@@V?$format_validation_base@_WV?$string_output_adapter@_W@__crt_stdio_output@@@2@@__crt_stdio_output@@AAE_NXZ 1003ec1d f i libucrt:output.obj
 0001:0003dc29       ?type_case_d@?$output_processor@_WV?$string_output_adapter@_W@__crt_stdio_output@@V?$positional_parameter_base@_WV?$string_output_adapter@_W@__crt_stdio_output@@@2@@__crt_stdio_output@@AAE_NXZ 1003ec29 f i libucrt:output.obj
 0001:0003dc35       ?type_case_d@?$output_processor@_WV?$string_output_adapter@_W@__crt_stdio_output@@V?$standard_base@_WV?$string_output_adapter@_W@__crt_stdio_output@@@2@@__crt_stdio_output@@AAE_NXZ 1003ec35 f i libucrt:output.obj
 0001:0003dc41       ?type_case_n@?$output_processor@DV?$stream_output_adapter@D@__crt_stdio_output@@V?$format_validation_base@DV?$stream_output_adapter@D@__crt_stdio_output@@@2@@__crt_stdio_output@@AAE_NXZ 1003ec41 f i libucrt:output.obj
 0001:0003dcc5       ?type_case_n@?$output_processor@DV?$stream_output_adapter@D@__crt_stdio_output@@V?$positional_parameter_base@DV?$stream_output_adapter@D@__crt_stdio_output@@@2@@__crt_stdio_output@@AAE_NXZ 1003ecc5 f i libucrt:output.obj
 0001:0003dd72       ?type_case_n@?$output_processor@DV?$stream_output_adapter@D@__crt_stdio_output@@V?$standard_base@DV?$stream_output_adapter@D@__crt_stdio_output@@@2@@__crt_stdio_output@@AAE_NXZ 1003ed72 f i libucrt:output.obj
 0001:0003ddf6       ?type_case_n@?$output_processor@DV?$string_output_adapter@D@__crt_stdio_output@@V?$format_validation_base@DV?$string_output_adapter@D@__crt_stdio_output@@@2@@__crt_stdio_output@@AAE_NXZ 1003edf6 f i libucrt:output.obj
 0001:0003de7a       ?type_case_n@?$output_processor@DV?$string_output_adapter@D@__crt_stdio_output@@V?$positional_parameter_base@DV?$string_output_adapter@D@__crt_stdio_output@@@2@@__crt_stdio_output@@AAE_NXZ 1003ee7a f i libucrt:output.obj
 0001:0003df27       ?type_case_n@?$output_processor@DV?$string_output_adapter@D@__crt_stdio_output@@V?$standard_base@DV?$string_output_adapter@D@__crt_stdio_output@@@2@@__crt_stdio_output@@AAE_NXZ 1003ef27 f i libucrt:output.obj
 0001:0003dfab       ?type_case_n@?$output_processor@_WV?$stream_output_adapter@_W@__crt_stdio_output@@V?$format_validation_base@_WV?$stream_output_adapter@_W@__crt_stdio_output@@@2@@__crt_stdio_output@@AAE_NXZ 1003efab f i libucrt:output.obj
 0001:0003e02f       ?type_case_n@?$output_processor@_WV?$stream_output_adapter@_W@__crt_stdio_output@@V?$positional_parameter_base@_WV?$stream_output_adapter@_W@__crt_stdio_output@@@2@@__crt_stdio_output@@AAE_NXZ 1003f02f f i libucrt:output.obj
 0001:0003e0dc       ?type_case_n@?$output_processor@_WV?$stream_output_adapter@_W@__crt_stdio_output@@V?$standard_base@_WV?$stream_output_adapter@_W@__crt_stdio_output@@@2@@__crt_stdio_output@@AAE_NXZ 1003f0dc f i libucrt:output.obj
 0001:0003e160       ?type_case_n@?$output_processor@_WV?$string_output_adapter@_W@__crt_stdio_output@@V?$format_validation_base@_WV?$string_output_adapter@_W@__crt_stdio_output@@@2@@__crt_stdio_output@@AAE_NXZ 1003f160 f i libucrt:output.obj
 0001:0003e1e4       ?type_case_n@?$output_processor@_WV?$string_output_adapter@_W@__crt_stdio_output@@V?$positional_parameter_base@_WV?$string_output_adapter@_W@__crt_stdio_output@@@2@@__crt_stdio_output@@AAE_NXZ 1003f1e4 f i libucrt:output.obj
 0001:0003e291       ?type_case_n@?$output_processor@_WV?$string_output_adapter@_W@__crt_stdio_output@@V?$standard_base@_WV?$string_output_adapter@_W@__crt_stdio_output@@@2@@__crt_stdio_output@@AAE_NXZ 1003f291 f i libucrt:output.obj
 0001:0003e315       ?type_case_o@?$output_processor@DV?$stream_output_adapter@D@__crt_stdio_output@@V?$format_validation_base@DV?$stream_output_adapter@D@__crt_stdio_output@@@2@@__crt_stdio_output@@AAE_NXZ 1003f315 f i libucrt:output.obj
 0001:0003e332       ?type_case_o@?$output_processor@DV?$stream_output_adapter@D@__crt_stdio_output@@V?$positional_parameter_base@DV?$stream_output_adapter@D@__crt_stdio_output@@@2@@__crt_stdio_output@@AAE_NXZ 1003f332 f i libucrt:output.obj
 0001:0003e34f       ?type_case_o@?$output_processor@DV?$stream_output_adapter@D@__crt_stdio_output@@V?$standard_base@DV?$stream_output_adapter@D@__crt_stdio_output@@@2@@__crt_stdio_output@@AAE_NXZ 1003f34f f i libucrt:output.obj
 0001:0003e36c       ?type_case_o@?$output_processor@DV?$string_output_adapter@D@__crt_stdio_output@@V?$format_validation_base@DV?$string_output_adapter@D@__crt_stdio_output@@@2@@__crt_stdio_output@@AAE_NXZ 1003f36c f i libucrt:output.obj
 0001:0003e389       ?type_case_o@?$output_processor@DV?$string_output_adapter@D@__crt_stdio_output@@V?$positional_parameter_base@DV?$string_output_adapter@D@__crt_stdio_output@@@2@@__crt_stdio_output@@AAE_NXZ 1003f389 f i libucrt:output.obj
 0001:0003e3a6       ?type_case_o@?$output_processor@DV?$string_output_adapter@D@__crt_stdio_output@@V?$standard_base@DV?$string_output_adapter@D@__crt_stdio_output@@@2@@__crt_stdio_output@@AAE_NXZ 1003f3a6 f i libucrt:output.obj
 0001:0003e3c3       ?type_case_o@?$output_processor@_WV?$stream_output_adapter@_W@__crt_stdio_output@@V?$format_validation_base@_WV?$stream_output_adapter@_W@__crt_stdio_output@@@2@@__crt_stdio_output@@AAE_NXZ 1003f3c3 f i libucrt:output.obj
 0001:0003e3e0       ?type_case_o@?$output_processor@_WV?$stream_output_adapter@_W@__crt_stdio_output@@V?$positional_parameter_base@_WV?$stream_output_adapter@_W@__crt_stdio_output@@@2@@__crt_stdio_output@@AAE_NXZ 1003f3e0 f i libucrt:output.obj
 0001:0003e3fd       ?type_case_o@?$output_processor@_WV?$stream_output_adapter@_W@__crt_stdio_output@@V?$standard_base@_WV?$stream_output_adapter@_W@__crt_stdio_output@@@2@@__crt_stdio_output@@AAE_NXZ 1003f3fd f i libucrt:output.obj
 0001:0003e41a       ?type_case_o@?$output_processor@_WV?$string_output_adapter@_W@__crt_stdio_output@@V?$format_validation_base@_WV?$string_output_adapter@_W@__crt_stdio_output@@@2@@__crt_stdio_output@@AAE_NXZ 1003f41a f i libucrt:output.obj
 0001:0003e437       ?type_case_o@?$output_processor@_WV?$string_output_adapter@_W@__crt_stdio_output@@V?$positional_parameter_base@_WV?$string_output_adapter@_W@__crt_stdio_output@@@2@@__crt_stdio_output@@AAE_NXZ 1003f437 f i libucrt:output.obj
 0001:0003e454       ?type_case_o@?$output_processor@_WV?$string_output_adapter@_W@__crt_stdio_output@@V?$standard_base@_WV?$string_output_adapter@_W@__crt_stdio_output@@@2@@__crt_stdio_output@@AAE_NXZ 1003f454 f i libucrt:output.obj
 0001:0003e471       ?type_case_p@?$output_processor@DV?$stream_output_adapter@D@__crt_stdio_output@@V?$format_validation_base@DV?$stream_output_adapter@D@__crt_stdio_output@@@2@@__crt_stdio_output@@AAE_NXZ 1003f471 f i libucrt:output.obj
 0001:0003e487       ?type_case_p@?$output_processor@DV?$stream_output_adapter@D@__crt_stdio_output@@V?$positional_parameter_base@DV?$stream_output_adapter@D@__crt_stdio_output@@@2@@__crt_stdio_output@@AAE_NXZ 1003f487 f i libucrt:output.obj
 0001:0003e49d       ?type_case_p@?$output_processor@DV?$stream_output_adapter@D@__crt_stdio_output@@V?$standard_base@DV?$stream_output_adapter@D@__crt_stdio_output@@@2@@__crt_stdio_output@@AAE_NXZ 1003f49d f i libucrt:output.obj
 0001:0003e4b3       ?type_case_p@?$output_processor@DV?$string_output_adapter@D@__crt_stdio_output@@V?$format_validation_base@DV?$string_output_adapter@D@__crt_stdio_output@@@2@@__crt_stdio_output@@AAE_NXZ 1003f4b3 f i libucrt:output.obj
 0001:0003e4c9       ?type_case_p@?$output_processor@DV?$string_output_adapter@D@__crt_stdio_output@@V?$positional_parameter_base@DV?$string_output_adapter@D@__crt_stdio_output@@@2@@__crt_stdio_output@@AAE_NXZ 1003f4c9 f i libucrt:output.obj
 0001:0003e4df       ?type_case_p@?$output_processor@DV?$string_output_adapter@D@__crt_stdio_output@@V?$standard_base@DV?$string_output_adapter@D@__crt_stdio_output@@@2@@__crt_stdio_output@@AAE_NXZ 1003f4df f i libucrt:output.obj
 0001:0003e4f5       ?type_case_p@?$output_processor@_WV?$stream_output_adapter@_W@__crt_stdio_output@@V?$format_validation_base@_WV?$stream_output_adapter@_W@__crt_stdio_output@@@2@@__crt_stdio_output@@AAE_NXZ 1003f4f5 f i libucrt:output.obj
 0001:0003e50b       ?type_case_p@?$output_processor@_WV?$stream_output_adapter@_W@__crt_stdio_output@@V?$positional_parameter_base@_WV?$stream_output_adapter@_W@__crt_stdio_output@@@2@@__crt_stdio_output@@AAE_NXZ 1003f50b f i libucrt:output.obj
 0001:0003e521       ?type_case_p@?$output_processor@_WV?$stream_output_adapter@_W@__crt_stdio_output@@V?$standard_base@_WV?$stream_output_adapter@_W@__crt_stdio_output@@@2@@__crt_stdio_output@@AAE_NXZ 1003f521 f i libucrt:output.obj
 0001:0003e537       ?type_case_p@?$output_processor@_WV?$string_output_adapter@_W@__crt_stdio_output@@V?$format_validation_base@_WV?$string_output_adapter@_W@__crt_stdio_output@@@2@@__crt_stdio_output@@AAE_NXZ 1003f537 f i libucrt:output.obj
 0001:0003e54d       ?type_case_p@?$output_processor@_WV?$string_output_adapter@_W@__crt_stdio_output@@V?$positional_parameter_base@_WV?$string_output_adapter@_W@__crt_stdio_output@@@2@@__crt_stdio_output@@AAE_NXZ 1003f54d f i libucrt:output.obj
 0001:0003e563       ?type_case_p@?$output_processor@_WV?$string_output_adapter@_W@__crt_stdio_output@@V?$standard_base@_WV?$string_output_adapter@_W@__crt_stdio_output@@@2@@__crt_stdio_output@@AAE_NXZ 1003f563 f i libucrt:output.obj
 0001:0003e579       ?type_case_s@?$output_processor@DV?$stream_output_adapter@D@__crt_stdio_output@@V?$format_validation_base@DV?$stream_output_adapter@D@__crt_stdio_output@@@2@@__crt_stdio_output@@AAE_NXZ 1003f579 f i libucrt:output.obj
 0001:0003e5ea       ?type_case_s@?$output_processor@DV?$stream_output_adapter@D@__crt_stdio_output@@V?$positional_parameter_base@DV?$stream_output_adapter@D@__crt_stdio_output@@@2@@__crt_stdio_output@@AAE_NXZ 1003f5ea f i libucrt:output.obj
 0001:0003e668       ?type_case_s@?$output_processor@DV?$stream_output_adapter@D@__crt_stdio_output@@V?$standard_base@DV?$stream_output_adapter@D@__crt_stdio_output@@@2@@__crt_stdio_output@@AAE_NXZ 1003f668 f i libucrt:output.obj
 0001:0003e6d9       ?type_case_s@?$output_processor@DV?$string_output_adapter@D@__crt_stdio_output@@V?$format_validation_base@DV?$string_output_adapter@D@__crt_stdio_output@@@2@@__crt_stdio_output@@AAE_NXZ 1003f6d9 f i libucrt:output.obj
 0001:0003e74a       ?type_case_s@?$output_processor@DV?$string_output_adapter@D@__crt_stdio_output@@V?$positional_parameter_base@DV?$string_output_adapter@D@__crt_stdio_output@@@2@@__crt_stdio_output@@AAE_NXZ 1003f74a f i libucrt:output.obj
 0001:0003e7c8       ?type_case_s@?$output_processor@DV?$string_output_adapter@D@__crt_stdio_output@@V?$standard_base@DV?$string_output_adapter@D@__crt_stdio_output@@@2@@__crt_stdio_output@@AAE_NXZ 1003f7c8 f i libucrt:output.obj
 0001:0003e839       ?type_case_s@?$output_processor@_WV?$stream_output_adapter@_W@__crt_stdio_output@@V?$format_validation_base@_WV?$stream_output_adapter@_W@__crt_stdio_output@@@2@@__crt_stdio_output@@AAE_NXZ 1003f839 f i libucrt:output.obj
 0001:0003e8ac       ?type_case_s@?$output_processor@_WV?$stream_output_adapter@_W@__crt_stdio_output@@V?$positional_parameter_base@_WV?$stream_output_adapter@_W@__crt_stdio_output@@@2@@__crt_stdio_output@@AAE_NXZ 1003f8ac f i libucrt:output.obj
 0001:0003e92c       ?type_case_s@?$output_processor@_WV?$stream_output_adapter@_W@__crt_stdio_output@@V?$standard_base@_WV?$stream_output_adapter@_W@__crt_stdio_output@@@2@@__crt_stdio_output@@AAE_NXZ 1003f92c f i libucrt:output.obj
 0001:0003e99f       ?type_case_s@?$output_processor@_WV?$string_output_adapter@_W@__crt_stdio_output@@V?$format_validation_base@_WV?$string_output_adapter@_W@__crt_stdio_output@@@2@@__crt_stdio_output@@AAE_NXZ 1003f99f f i libucrt:output.obj
 0001:0003ea12       ?type_case_s@?$output_processor@_WV?$string_output_adapter@_W@__crt_stdio_output@@V?$positional_parameter_base@_WV?$string_output_adapter@_W@__crt_stdio_output@@@2@@__crt_stdio_output@@AAE_NXZ 1003fa12 f i libucrt:output.obj
 0001:0003ea92       ?type_case_s@?$output_processor@_WV?$string_output_adapter@_W@__crt_stdio_output@@V?$standard_base@_WV?$string_output_adapter@_W@__crt_stdio_output@@@2@@__crt_stdio_output@@AAE_NXZ 1003fa92 f i libucrt:output.obj
 0001:0003eb05       ?type_case_s_compute_narrow_string_length@?$output_processor@DV?$stream_output_adapter@D@__crt_stdio_output@@V?$format_validation_base@DV?$stream_output_adapter@D@__crt_stdio_output@@@2@@__crt_stdio_output@@AAEHHD@Z 1003fb05 f i libucrt:output.obj
 0001:0003eb1b       ?type_case_s_compute_narrow_string_length@?$output_processor@DV?$stream_output_adapter@D@__crt_stdio_output@@V?$positional_parameter_base@DV?$stream_output_adapter@D@__crt_stdio_output@@@2@@__crt_stdio_output@@AAEHHD@Z 1003fb1b f i libucrt:output.obj
 0001:0003eb31       ?type_case_s_compute_narrow_string_length@?$output_processor@DV?$stream_output_adapter@D@__crt_stdio_output@@V?$standard_base@DV?$stream_output_adapter@D@__crt_stdio_output@@@2@@__crt_stdio_output@@AAEHHD@Z 1003fb31 f i libucrt:output.obj
 0001:0003eb47       ?type_case_s_compute_narrow_string_length@?$output_processor@DV?$string_output_adapter@D@__crt_stdio_output@@V?$format_validation_base@DV?$string_output_adapter@D@__crt_stdio_output@@@2@@__crt_stdio_output@@AAEHHD@Z 1003fb47 f i libucrt:output.obj
 0001:0003eb5d       ?type_case_s_compute_narrow_string_length@?$output_processor@DV?$string_output_adapter@D@__crt_stdio_output@@V?$positional_parameter_base@DV?$string_output_adapter@D@__crt_stdio_output@@@2@@__crt_stdio_output@@AAEHHD@Z 1003fb5d f i libucrt:output.obj
 0001:0003eb73       ?type_case_s_compute_narrow_string_length@?$output_processor@DV?$string_output_adapter@D@__crt_stdio_output@@V?$standard_base@DV?$string_output_adapter@D@__crt_stdio_output@@@2@@__crt_stdio_output@@AAEHHD@Z 1003fb73 f i libucrt:output.obj
 0001:0003eb89       ?type_case_s_compute_narrow_string_length@?$output_processor@_WV?$stream_output_adapter@_W@__crt_stdio_output@@V?$format_validation_base@_WV?$stream_output_adapter@_W@__crt_stdio_output@@@2@@__crt_stdio_output@@AAEHH_W@Z 1003fb89 f i libucrt:output.obj
 0001:0003ebde       ?type_case_s_compute_narrow_string_length@?$output_processor@_WV?$stream_output_adapter@_W@__crt_stdio_output@@V?$positional_parameter_base@_WV?$stream_output_adapter@_W@__crt_stdio_output@@@2@@__crt_stdio_output@@AAEHH_W@Z 1003fbde f i libucrt:output.obj
 0001:0003ec33       ?type_case_s_compute_narrow_string_length@?$output_processor@_WV?$stream_output_adapter@_W@__crt_stdio_output@@V?$standard_base@_WV?$stream_output_adapter@_W@__crt_stdio_output@@@2@@__crt_stdio_output@@AAEHH_W@Z 1003fc33 f i libucrt:output.obj
 0001:0003ec88       ?type_case_s_compute_narrow_string_length@?$output_processor@_WV?$string_output_adapter@_W@__crt_stdio_output@@V?$format_validation_base@_WV?$string_output_adapter@_W@__crt_stdio_output@@@2@@__crt_stdio_output@@AAEHH_W@Z 1003fc88 f i libucrt:output.obj
 0001:0003ecdd       ?type_case_s_compute_narrow_string_length@?$output_processor@_WV?$string_output_adapter@_W@__crt_stdio_output@@V?$positional_parameter_base@_WV?$string_output_adapter@_W@__crt_stdio_output@@@2@@__crt_stdio_output@@AAEHH_W@Z 1003fcdd f i libucrt:output.obj
 0001:0003ed32       ?type_case_s_compute_narrow_string_length@?$output_processor@_WV?$string_output_adapter@_W@__crt_stdio_output@@V?$standard_base@_WV?$string_output_adapter@_W@__crt_stdio_output@@@2@@__crt_stdio_output@@AAEHH_W@Z 1003fd32 f i libucrt:output.obj
 0001:0003ed87       ?type_case_u@?$output_processor@DV?$stream_output_adapter@D@__crt_stdio_output@@V?$format_validation_base@DV?$stream_output_adapter@D@__crt_stdio_output@@@2@@__crt_stdio_output@@AAE_NXZ 1003fd87 f i libucrt:output.obj
 0001:0003ed8f       ?type_case_u@?$output_processor@DV?$stream_output_adapter@D@__crt_stdio_output@@V?$positional_parameter_base@DV?$stream_output_adapter@D@__crt_stdio_output@@@2@@__crt_stdio_output@@AAE_NXZ 1003fd8f f i libucrt:output.obj
 0001:0003ed97       ?type_case_u@?$output_processor@DV?$stream_output_adapter@D@__crt_stdio_output@@V?$standard_base@DV?$stream_output_adapter@D@__crt_stdio_output@@@2@@__crt_stdio_output@@AAE_NXZ 1003fd97 f i libucrt:output.obj
 0001:0003ed9f       ?type_case_u@?$output_processor@DV?$string_output_adapter@D@__crt_stdio_output@@V?$format_validation_base@DV?$string_output_adapter@D@__crt_stdio_output@@@2@@__crt_stdio_output@@AAE_NXZ 1003fd9f f i libucrt:output.obj
 0001:0003eda7       ?type_case_u@?$output_processor@DV?$string_output_adapter@D@__crt_stdio_output@@V?$positional_parameter_base@DV?$string_output_adapter@D@__crt_stdio_output@@@2@@__crt_stdio_output@@AAE_NXZ 1003fda7 f i libucrt:output.obj
 0001:0003edaf       ?type_case_u@?$output_processor@DV?$string_output_adapter@D@__crt_stdio_output@@V?$standard_base@DV?$string_output_adapter@D@__crt_stdio_output@@@2@@__crt_stdio_output@@AAE_NXZ 1003fdaf f i libucrt:output.obj
 0001:0003edb7       ?type_case_u@?$output_processor@_WV?$stream_output_adapter@_W@__crt_stdio_output@@V?$format_validation_base@_WV?$stream_output_adapter@_W@__crt_stdio_output@@@2@@__crt_stdio_output@@AAE_NXZ 1003fdb7 f i libucrt:output.obj
 0001:0003edbf       ?type_case_u@?$output_processor@_WV?$stream_output_adapter@_W@__crt_stdio_output@@V?$positional_parameter_base@_WV?$stream_output_adapter@_W@__crt_stdio_output@@@2@@__crt_stdio_output@@AAE_NXZ 1003fdbf f i libucrt:output.obj
 0001:0003edc7       ?type_case_u@?$output_processor@_WV?$stream_output_adapter@_W@__crt_stdio_output@@V?$standard_base@_WV?$stream_output_adapter@_W@__crt_stdio_output@@@2@@__crt_stdio_output@@AAE_NXZ 1003fdc7 f i libucrt:output.obj
 0001:0003edcf       ?type_case_u@?$output_processor@_WV?$string_output_adapter@_W@__crt_stdio_output@@V?$format_validation_base@_WV?$string_output_adapter@_W@__crt_stdio_output@@@2@@__crt_stdio_output@@AAE_NXZ 1003fdcf f i libucrt:output.obj
 0001:0003edd7       ?type_case_u@?$output_processor@_WV?$string_output_adapter@_W@__crt_stdio_output@@V?$positional_parameter_base@_WV?$string_output_adapter@_W@__crt_stdio_output@@@2@@__crt_stdio_output@@AAE_NXZ 1003fdd7 f i libucrt:output.obj
 0001:0003eddf       ?type_case_u@?$output_processor@_WV?$string_output_adapter@_W@__crt_stdio_output@@V?$standard_base@_WV?$string_output_adapter@_W@__crt_stdio_output@@@2@@__crt_stdio_output@@AAE_NXZ 1003fddf f i libucrt:output.obj
 0001:0003ede7       ?type_case_x@?$output_processor@DV?$stream_output_adapter@D@__crt_stdio_output@@V?$format_validation_base@DV?$stream_output_adapter@D@__crt_stdio_output@@@2@@__crt_stdio_output@@AAE_NXZ 1003fde7 f i libucrt:output.obj
 0001:0003edef       ?type_case_x@?$output_processor@DV?$stream_output_adapter@D@__crt_stdio_output@@V?$positional_parameter_base@DV?$stream_output_adapter@D@__crt_stdio_output@@@2@@__crt_stdio_output@@AAE_NXZ 1003fdef f i libucrt:output.obj
 0001:0003edf7       ?type_case_x@?$output_processor@DV?$stream_output_adapter@D@__crt_stdio_output@@V?$standard_base@DV?$stream_output_adapter@D@__crt_stdio_output@@@2@@__crt_stdio_output@@AAE_NXZ 1003fdf7 f i libucrt:output.obj
 0001:0003edff       ?type_case_x@?$output_processor@DV?$string_output_adapter@D@__crt_stdio_output@@V?$format_validation_base@DV?$string_output_adapter@D@__crt_stdio_output@@@2@@__crt_stdio_output@@AAE_NXZ 1003fdff f i libucrt:output.obj
 0001:0003ee07       ?type_case_x@?$output_processor@DV?$string_output_adapter@D@__crt_stdio_output@@V?$positional_parameter_base@DV?$string_output_adapter@D@__crt_stdio_output@@@2@@__crt_stdio_output@@AAE_NXZ 1003fe07 f i libucrt:output.obj
 0001:0003ee0f       ?type_case_x@?$output_processor@DV?$string_output_adapter@D@__crt_stdio_output@@V?$standard_base@DV?$string_output_adapter@D@__crt_stdio_output@@@2@@__crt_stdio_output@@AAE_NXZ 1003fe0f f i libucrt:output.obj
 0001:0003ee17       ?type_case_x@?$output_processor@_WV?$stream_output_adapter@_W@__crt_stdio_output@@V?$format_validation_base@_WV?$stream_output_adapter@_W@__crt_stdio_output@@@2@@__crt_stdio_output@@AAE_NXZ 1003fe17 f i libucrt:output.obj
 0001:0003ee1f       ?type_case_x@?$output_processor@_WV?$stream_output_adapter@_W@__crt_stdio_output@@V?$positional_parameter_base@_WV?$stream_output_adapter@_W@__crt_stdio_output@@@2@@__crt_stdio_output@@AAE_NXZ 1003fe1f f i libucrt:output.obj
 0001:0003ee27       ?type_case_x@?$output_processor@_WV?$stream_output_adapter@_W@__crt_stdio_output@@V?$standard_base@_WV?$stream_output_adapter@_W@__crt_stdio_output@@@2@@__crt_stdio_output@@AAE_NXZ 1003fe27 f i libucrt:output.obj
 0001:0003ee2f       ?type_case_x@?$output_processor@_WV?$string_output_adapter@_W@__crt_stdio_output@@V?$format_validation_base@_WV?$string_output_adapter@_W@__crt_stdio_output@@@2@@__crt_stdio_output@@AAE_NXZ 1003fe2f f i libucrt:output.obj
 0001:0003ee37       ?type_case_x@?$output_processor@_WV?$string_output_adapter@_W@__crt_stdio_output@@V?$positional_parameter_base@_WV?$string_output_adapter@_W@__crt_stdio_output@@@2@@__crt_stdio_output@@AAE_NXZ 1003fe37 f i libucrt:output.obj
 0001:0003ee3f       ?type_case_x@?$output_processor@_WV?$string_output_adapter@_W@__crt_stdio_output@@V?$standard_base@_WV?$string_output_adapter@_W@__crt_stdio_output@@@2@@__crt_stdio_output@@AAE_NXZ 1003fe3f f i libucrt:output.obj
 0001:0003ee47       ?unget@?$c_string_character_source@D@__crt_strtox@@QAEXD@Z 1003fe47 f i libucrt:output.obj
 0001:0003ee70       ?unget@?$c_string_character_source@_W@__crt_strtox@@QAEX_W@Z 1003fe70 f i libucrt:output.obj
 0001:0003ee9e       ?unsafe_value@?$cached@H@__crt_cached_ptd_host@@QAEHXZ 1003fe9e f i libucrt:output.obj
 0001:0003eea1       ?unsafe_value@?$cached@K@__crt_cached_ptd_host@@QAEKXZ 1003fea1 f i libucrt:output.obj
 0001:0003eea4       ?unset_flag@?$output_processor@DV?$stream_output_adapter@D@__crt_stdio_output@@V?$format_validation_base@DV?$stream_output_adapter@D@__crt_stdio_output@@@2@@__crt_stdio_output@@AAEXI@Z 1003fea4 f i libucrt:output.obj
 0001:0003eeb5       ?unset_flag@?$output_processor@DV?$stream_output_adapter@D@__crt_stdio_output@@V?$positional_parameter_base@DV?$stream_output_adapter@D@__crt_stdio_output@@@2@@__crt_stdio_output@@AAEXI@Z 1003feb5 f i libucrt:output.obj
 0001:0003eec6       ?unset_flag@?$output_processor@DV?$stream_output_adapter@D@__crt_stdio_output@@V?$standard_base@DV?$stream_output_adapter@D@__crt_stdio_output@@@2@@__crt_stdio_output@@AAEXI@Z 1003fec6 f i libucrt:output.obj
 0001:0003eed7       ?unset_flag@?$output_processor@DV?$string_output_adapter@D@__crt_stdio_output@@V?$format_validation_base@DV?$string_output_adapter@D@__crt_stdio_output@@@2@@__crt_stdio_output@@AAEXI@Z 1003fed7 f i libucrt:output.obj
 0001:0003eee8       ?unset_flag@?$output_processor@DV?$string_output_adapter@D@__crt_stdio_output@@V?$positional_parameter_base@DV?$string_output_adapter@D@__crt_stdio_output@@@2@@__crt_stdio_output@@AAEXI@Z 1003fee8 f i libucrt:output.obj
 0001:0003eef9       ?unset_flag@?$output_processor@DV?$string_output_adapter@D@__crt_stdio_output@@V?$standard_base@DV?$string_output_adapter@D@__crt_stdio_output@@@2@@__crt_stdio_output@@AAEXI@Z 1003fef9 f i libucrt:output.obj
 0001:0003ef0a       ?unset_flag@?$output_processor@_WV?$stream_output_adapter@_W@__crt_stdio_output@@V?$format_validation_base@_WV?$stream_output_adapter@_W@__crt_stdio_output@@@2@@__crt_stdio_output@@AAEXI@Z 1003ff0a f i libucrt:output.obj
 0001:0003ef1b       ?unset_flag@?$output_processor@_WV?$stream_output_adapter@_W@__crt_stdio_output@@V?$positional_parameter_base@_WV?$stream_output_adapter@_W@__crt_stdio_output@@@2@@__crt_stdio_output@@AAEXI@Z 1003ff1b f i libucrt:output.obj
 0001:0003ef2c       ?unset_flag@?$output_processor@_WV?$stream_output_adapter@_W@__crt_stdio_output@@V?$standard_base@_WV?$stream_output_adapter@_W@__crt_stdio_output@@@2@@__crt_stdio_output@@AAEXI@Z 1003ff2c f i libucrt:output.obj
 0001:0003ef3d       ?unset_flag@?$output_processor@_WV?$string_output_adapter@_W@__crt_stdio_output@@V?$format_validation_base@_WV?$string_output_adapter@_W@__crt_stdio_output@@@2@@__crt_stdio_output@@AAEXI@Z 1003ff3d f i libucrt:output.obj
 0001:0003ef4e       ?unset_flag@?$output_processor@_WV?$string_output_adapter@_W@__crt_stdio_output@@V?$positional_parameter_base@_WV?$string_output_adapter@_W@__crt_stdio_output@@@2@@__crt_stdio_output@@AAEXI@Z 1003ff4e f i libucrt:output.obj
 0001:0003ef5f       ?unset_flag@?$output_processor@_WV?$string_output_adapter@_W@__crt_stdio_output@@V?$standard_base@_WV?$string_output_adapter@_W@__crt_stdio_output@@@2@@__crt_stdio_output@@AAEXI@Z 1003ff5f f i libucrt:output.obj
 0001:0003ef70       ?update_field_width@?$positional_parameter_base@DV?$stream_output_adapter@D@__crt_stdio_output@@@__crt_stdio_output@@IAE_NXZ 1003ff70 f i libucrt:output.obj
 0001:0003f044       ?update_field_width@?$positional_parameter_base@DV?$string_output_adapter@D@__crt_stdio_output@@@__crt_stdio_output@@IAE_NXZ 10040044 f i libucrt:output.obj
 0001:0003f118       ?update_field_width@?$positional_parameter_base@_WV?$stream_output_adapter@_W@__crt_stdio_output@@@__crt_stdio_output@@IAE_NXZ 10040118 f i libucrt:output.obj
 0001:0003f1ed       ?update_field_width@?$positional_parameter_base@_WV?$string_output_adapter@_W@__crt_stdio_output@@@__crt_stdio_output@@IAE_NXZ 100401ed f i libucrt:output.obj
 0001:0003f2c2       ?update_field_width@?$standard_base@DV?$stream_output_adapter@D@__crt_stdio_output@@@__crt_stdio_output@@IAE_NXZ 100402c2 f i libucrt:output.obj
 0001:0003f2d2       ?update_field_width@?$standard_base@DV?$string_output_adapter@D@__crt_stdio_output@@@__crt_stdio_output@@IAE_NXZ 100402d2 f i libucrt:output.obj
 0001:0003f2e2       ?update_field_width@?$standard_base@_WV?$stream_output_adapter@_W@__crt_stdio_output@@@__crt_stdio_output@@IAE_NXZ 100402e2 f i libucrt:output.obj
 0001:0003f2f2       ?update_field_width@?$standard_base@_WV?$string_output_adapter@_W@__crt_stdio_output@@@__crt_stdio_output@@IAE_NXZ 100402f2 f i libucrt:output.obj
 0001:0003f310       ?update_locale@__crt_cached_ptd_host@@AAEXXZ 10040310 f i libucrt:output.obj
 0001:0003f320       ?update_locale_slow@__crt_cached_ptd_host@@AAEXXZ 10040320 f i libucrt:output.obj
 0001:0003f37b       ?update_precision@?$positional_parameter_base@DV?$stream_output_adapter@D@__crt_stdio_output@@@__crt_stdio_output@@IAE_NXZ 1004037b f i libucrt:output.obj
 0001:0003f44f       ?update_precision@?$positional_parameter_base@DV?$string_output_adapter@D@__crt_stdio_output@@@__crt_stdio_output@@IAE_NXZ 1004044f f i libucrt:output.obj
 0001:0003f523       ?update_precision@?$positional_parameter_base@_WV?$stream_output_adapter@_W@__crt_stdio_output@@@__crt_stdio_output@@IAE_NXZ 10040523 f i libucrt:output.obj
 0001:0003f5f8       ?update_precision@?$positional_parameter_base@_WV?$string_output_adapter@_W@__crt_stdio_output@@@__crt_stdio_output@@IAE_NXZ 100405f8 f i libucrt:output.obj
 0001:0003f6cd       ?update_precision@?$standard_base@DV?$stream_output_adapter@D@__crt_stdio_output@@@__crt_stdio_output@@IAE_NXZ 100406cd f i libucrt:output.obj
 0001:0003f6dd       ?update_precision@?$standard_base@DV?$string_output_adapter@D@__crt_stdio_output@@@__crt_stdio_output@@IAE_NXZ 100406dd f i libucrt:output.obj
 0001:0003f6ed       ?update_precision@?$standard_base@_WV?$stream_output_adapter@_W@__crt_stdio_output@@@__crt_stdio_output@@IAE_NXZ 100406ed f i libucrt:output.obj
 0001:0003f6fd       ?update_precision@?$standard_base@_WV?$string_output_adapter@_W@__crt_stdio_output@@@__crt_stdio_output@@IAE_NXZ 100406fd f i libucrt:output.obj
 0001:0003f70d       ?valid@?$cached@H@__crt_cached_ptd_host@@QBE_NXZ 1004070d f i libucrt:output.obj
 0001:0003f711       ?valid@?$cached@K@__crt_cached_ptd_host@@QBE_NXZ 10040711 f i libucrt:output.obj
 0001:0003f715       ?validate@?$c_string_character_source@D@__crt_strtox@@QBE_NXZ 10040715 f i libucrt:output.obj
 0001:0003f730       ?validate@?$c_string_character_source@_W@__crt_strtox@@QBE_NXZ 10040730 f i libucrt:output.obj
 0001:0003f74b       ?validate@?$stream_output_adapter@D@__crt_stdio_output@@QBE_NAAV__crt_cached_ptd_host@@@Z 1004074b f i libucrt:output.obj
 0001:0003f783       ?validate@?$stream_output_adapter@_W@__crt_stdio_output@@QBE_NAAV__crt_cached_ptd_host@@@Z 10040783 f i libucrt:output.obj
 0001:0003f7b4       ?validate@?$string_output_adapter@D@__crt_stdio_output@@QBE_NAAV__crt_cached_ptd_host@@@Z 100407b4 f i libucrt:output.obj
 0001:0003f7e5       ?validate@?$string_output_adapter@_W@__crt_stdio_output@@QBE_NAAV__crt_cached_ptd_host@@@Z 100407e5 f i libucrt:output.obj
 0001:0003f816       ?validate_and_store_parameter_data@?$positional_parameter_base@DV?$stream_output_adapter@D@__crt_stdio_output@@@__crt_stdio_output@@AAE_NAAUparameter_data@12@W4parameter_type@12@DW4length_modifier@2@@Z 10040816 f i libucrt:output.obj
 0001:0003f878       ?validate_and_store_parameter_data@?$positional_parameter_base@DV?$string_output_adapter@D@__crt_stdio_output@@@__crt_stdio_output@@AAE_NAAUparameter_data@12@W4parameter_type@12@DW4length_modifier@2@@Z 10040878 f i libucrt:output.obj
 0001:0003f8da       ?validate_and_store_parameter_data@?$positional_parameter_base@_WV?$stream_output_adapter@_W@__crt_stdio_output@@@__crt_stdio_output@@AAE_NAAUparameter_data@12@W4parameter_type@12@_WW4length_modifier@2@@Z 100408da f i libucrt:output.obj
 0001:0003f93e       ?validate_and_store_parameter_data@?$positional_parameter_base@_WV?$string_output_adapter@_W@__crt_stdio_output@@@__crt_stdio_output@@AAE_NAAUparameter_data@12@W4parameter_type@12@_WW4length_modifier@2@@Z 1004093e f i libucrt:output.obj
 0001:0003f9a2       ?validate_and_update_state_at_beginning_of_format_character@?$positional_parameter_base@DV?$stream_output_adapter@D@__crt_stdio_output@@@__crt_stdio_output@@IAE_NXZ 100409a2 f i libucrt:output.obj
 0001:0003fabb       ?validate_and_update_state_at_beginning_of_format_character@?$positional_parameter_base@DV?$string_output_adapter@D@__crt_stdio_output@@@__crt_stdio_output@@IAE_NXZ 10040abb f i libucrt:output.obj
 0001:0003fbd4       ?validate_and_update_state_at_beginning_of_format_character@?$positional_parameter_base@_WV?$stream_output_adapter@_W@__crt_stdio_output@@@__crt_stdio_output@@IAE_NXZ 10040bd4 f i libucrt:output.obj
 0001:0003fcf7       ?validate_and_update_state_at_beginning_of_format_character@?$positional_parameter_base@_WV?$string_output_adapter@_W@__crt_stdio_output@@@__crt_stdio_output@@IAE_NXZ 10040cf7 f i libucrt:output.obj
 0001:0003fe1a       ?validate_and_update_state_at_beginning_of_format_character@?$standard_base@DV?$stream_output_adapter@D@__crt_stdio_output@@@__crt_stdio_output@@IAE_NXZ 10040e1a f i libucrt:output.obj
 0001:0003fe1d       ?validate_and_update_state_at_beginning_of_format_character@?$standard_base@DV?$string_output_adapter@D@__crt_stdio_output@@@__crt_stdio_output@@IAE_NXZ 10040e1d f i libucrt:output.obj
 0001:0003fe20       ?validate_and_update_state_at_beginning_of_format_character@?$standard_base@_WV?$stream_output_adapter@_W@__crt_stdio_output@@@__crt_stdio_output@@IAE_NXZ 10040e20 f i libucrt:output.obj
 0001:0003fe23       ?validate_and_update_state_at_beginning_of_format_character@?$standard_base@_WV?$string_output_adapter@_W@__crt_stdio_output@@@__crt_stdio_output@@IAE_NXZ 10040e23 f i libucrt:output.obj
 0001:0003fe26       ?validate_and_update_state_at_end_of_format_string@?$format_validation_base@DV?$stream_output_adapter@D@__crt_stdio_output@@@__crt_stdio_output@@IAE_NXZ 10040e26 f i libucrt:output.obj
 0001:0003fe57       ?validate_and_update_state_at_end_of_format_string@?$format_validation_base@DV?$string_output_adapter@D@__crt_stdio_output@@@__crt_stdio_output@@IAE_NXZ 10040e57 f i libucrt:output.obj
 0001:0003fe88       ?validate_and_update_state_at_end_of_format_string@?$format_validation_base@_WV?$stream_output_adapter@_W@__crt_stdio_output@@@__crt_stdio_output@@IAE_NXZ 10040e88 f i libucrt:output.obj
 0001:0003feb9       ?validate_and_update_state_at_end_of_format_string@?$format_validation_base@_WV?$string_output_adapter@_W@__crt_stdio_output@@@__crt_stdio_output@@IAE_NXZ 10040eb9 f i libucrt:output.obj
 0001:0003feea       ?validate_and_update_state_at_end_of_format_string@?$positional_parameter_base@DV?$stream_output_adapter@D@__crt_stdio_output@@@__crt_stdio_output@@IAE_NXZ 10040eea f i libucrt:output.obj
 0001:0003ffa9       ?validate_and_update_state_at_end_of_format_string@?$positional_parameter_base@DV?$string_output_adapter@D@__crt_stdio_output@@@__crt_stdio_output@@IAE_NXZ 10040fa9 f i libucrt:output.obj
 0001:00040068       ?validate_and_update_state_at_end_of_format_string@?$positional_parameter_base@_WV?$stream_output_adapter@_W@__crt_stdio_output@@@__crt_stdio_output@@IAE_NXZ 10041068 f i libucrt:output.obj
 0001:00040127       ?validate_and_update_state_at_end_of_format_string@?$positional_parameter_base@_WV?$string_output_adapter@_W@__crt_stdio_output@@@__crt_stdio_output@@IAE_NXZ 10041127 f i libucrt:output.obj
 0001:000401e6       ?validate_and_update_state_at_end_of_format_string@?$standard_base@DV?$stream_output_adapter@D@__crt_stdio_output@@@__crt_stdio_output@@IBE_NXZ 100411e6 f i libucrt:output.obj
 0001:000401e9       ?validate_and_update_state_at_end_of_format_string@?$standard_base@DV?$string_output_adapter@D@__crt_stdio_output@@@__crt_stdio_output@@IBE_NXZ 100411e9 f i libucrt:output.obj
 0001:000401ec       ?validate_and_update_state_at_end_of_format_string@?$standard_base@_WV?$stream_output_adapter@_W@__crt_stdio_output@@@__crt_stdio_output@@IBE_NXZ 100411ec f i libucrt:output.obj
 0001:000401ef       ?validate_and_update_state_at_end_of_format_string@?$standard_base@_WV?$string_output_adapter@_W@__crt_stdio_output@@@__crt_stdio_output@@IBE_NXZ 100411ef f i libucrt:output.obj
 0001:000401f2       ?validate_state_for_type_case_a@?$positional_parameter_base@DV?$stream_output_adapter@D@__crt_stdio_output@@@__crt_stdio_output@@IAE_NXZ 100411f2 f i libucrt:output.obj
 0001:00040251       ?validate_state_for_type_case_a@?$positional_parameter_base@DV?$string_output_adapter@D@__crt_stdio_output@@@__crt_stdio_output@@IAE_NXZ 10041251 f i libucrt:output.obj
 0001:000402b0       ?validate_state_for_type_case_a@?$positional_parameter_base@_WV?$stream_output_adapter@_W@__crt_stdio_output@@@__crt_stdio_output@@IAE_NXZ 100412b0 f i libucrt:output.obj
 0001:0004030f       ?validate_state_for_type_case_a@?$positional_parameter_base@_WV?$string_output_adapter@_W@__crt_stdio_output@@@__crt_stdio_output@@IAE_NXZ 1004130f f i libucrt:output.obj
 0001:0004036e       ?validate_state_for_type_case_a@?$standard_base@DV?$stream_output_adapter@D@__crt_stdio_output@@@__crt_stdio_output@@IBE_NXZ 1004136e f i libucrt:output.obj
 0001:00040371       ?validate_state_for_type_case_a@?$standard_base@DV?$string_output_adapter@D@__crt_stdio_output@@@__crt_stdio_output@@IBE_NXZ 10041371 f i libucrt:output.obj
 0001:00040374       ?validate_state_for_type_case_a@?$standard_base@_WV?$stream_output_adapter@_W@__crt_stdio_output@@@__crt_stdio_output@@IBE_NXZ 10041374 f i libucrt:output.obj
 0001:00040377       ?validate_state_for_type_case_a@?$standard_base@_WV?$string_output_adapter@_W@__crt_stdio_output@@@__crt_stdio_output@@IBE_NXZ 10041377 f i libucrt:output.obj
 0001:0004037a       ?validate_stream_is_ansi_if_required@?$__acrt_stdio_char_traits@D@@SA_NQAU_iobuf@@@Z 1004137a f i libucrt:output.obj
 0001:00040401       ?validate_stream_is_ansi_if_required@?$__acrt_stdio_char_traits@_W@@SA_NQAU_iobuf@@@Z 10041401 f i libucrt:output.obj
 0001:00040404       ?wide_character_to_digit@__crt_strtox@@YAH_W@Z 10041404 f i libucrt:output.obj
 0001:000405a5       ?wide_null_string@?$output_processor@DV?$stream_output_adapter@D@__crt_stdio_output@@V?$format_validation_base@DV?$stream_output_adapter@D@__crt_stdio_output@@@2@@__crt_stdio_output@@CAPA_WXZ 100415a5 f i libucrt:output.obj
 0001:000405ab       ?wide_null_string@?$output_processor@DV?$stream_output_adapter@D@__crt_stdio_output@@V?$positional_parameter_base@DV?$stream_output_adapter@D@__crt_stdio_output@@@2@@__crt_stdio_output@@CAPA_WXZ 100415ab f i libucrt:output.obj
 0001:000405b1       ?wide_null_string@?$output_processor@DV?$stream_output_adapter@D@__crt_stdio_output@@V?$standard_base@DV?$stream_output_adapter@D@__crt_stdio_output@@@2@@__crt_stdio_output@@CAPA_WXZ 100415b1 f i libucrt:output.obj
 0001:000405b7       ?wide_null_string@?$output_processor@DV?$string_output_adapter@D@__crt_stdio_output@@V?$format_validation_base@DV?$string_output_adapter@D@__crt_stdio_output@@@2@@__crt_stdio_output@@CAPA_WXZ 100415b7 f i libucrt:output.obj
 0001:000405bd       ?wide_null_string@?$output_processor@DV?$string_output_adapter@D@__crt_stdio_output@@V?$positional_parameter_base@DV?$string_output_adapter@D@__crt_stdio_output@@@2@@__crt_stdio_output@@CAPA_WXZ 100415bd f i libucrt:output.obj
 0001:000405c3       ?wide_null_string@?$output_processor@DV?$string_output_adapter@D@__crt_stdio_output@@V?$standard_base@DV?$string_output_adapter@D@__crt_stdio_output@@@2@@__crt_stdio_output@@CAPA_WXZ 100415c3 f i libucrt:output.obj
 0001:000405c9       ?wide_null_string@?$output_processor@_WV?$stream_output_adapter@_W@__crt_stdio_output@@V?$format_validation_base@_WV?$stream_output_adapter@_W@__crt_stdio_output@@@2@@__crt_stdio_output@@CAPA_WXZ 100415c9 f i libucrt:output.obj
 0001:000405cf       ?wide_null_string@?$output_processor@_WV?$stream_output_adapter@_W@__crt_stdio_output@@V?$positional_parameter_base@_WV?$stream_output_adapter@_W@__crt_stdio_output@@@2@@__crt_stdio_output@@CAPA_WXZ 100415cf f i libucrt:output.obj
 0001:000405d5       ?wide_null_string@?$output_processor@_WV?$stream_output_adapter@_W@__crt_stdio_output@@V?$standard_base@_WV?$stream_output_adapter@_W@__crt_stdio_output@@@2@@__crt_stdio_output@@CAPA_WXZ 100415d5 f i libucrt:output.obj
 0001:000405db       ?wide_null_string@?$output_processor@_WV?$string_output_adapter@_W@__crt_stdio_output@@V?$format_validation_base@_WV?$string_output_adapter@_W@__crt_stdio_output@@@2@@__crt_stdio_output@@CAPA_WXZ 100415db f i libucrt:output.obj
 0001:000405e1       ?wide_null_string@?$output_processor@_WV?$string_output_adapter@_W@__crt_stdio_output@@V?$positional_parameter_base@_WV?$string_output_adapter@_W@__crt_stdio_output@@@2@@__crt_stdio_output@@CAPA_WXZ 100415e1 f i libucrt:output.obj
 0001:000405e7       ?wide_null_string@?$output_processor@_WV?$string_output_adapter@_W@__crt_stdio_output@@V?$standard_base@_WV?$string_output_adapter@_W@__crt_stdio_output@@@2@@__crt_stdio_output@@CAPA_WXZ 100415e7 f i libucrt:output.obj
 0001:000405ed       ?write_character@?$output_adapter_common@DV?$stream_output_adapter@D@__crt_stdio_output@@@__crt_stdio_output@@QBEXDQAHAAV__crt_cached_ptd_host@@@Z 100415ed f i libucrt:output.obj
 0001:0004060f       ?write_character@?$output_adapter_common@_WV?$stream_output_adapter@_W@__crt_stdio_output@@@__crt_stdio_output@@QBEX_WQAHAAV__crt_cached_ptd_host@@@Z 1004160f f i libucrt:output.obj
 0001:00040631       ?write_character@?$string_output_adapter@D@__crt_stdio_output@@QBE_NDQAHAAV__crt_cached_ptd_host@@@Z 10041631 f i libucrt:output.obj
 0001:00040673       ?write_character@?$string_output_adapter@_W@__crt_stdio_output@@QBE_N_WQAHAAV__crt_cached_ptd_host@@@Z 10041673 f i libucrt:output.obj
 0001:000406b8       ?write_character_without_count_update@?$stream_output_adapter@D@__crt_stdio_output@@QBE_NDAAV__crt_cached_ptd_host@@@Z 100416b8 f i libucrt:output.obj
 0001:000406f2       ?write_character_without_count_update@?$stream_output_adapter@_W@__crt_stdio_output@@QBE_N_WAAV__crt_cached_ptd_host@@@Z 100416f2 f i libucrt:output.obj
 0001:0004072f       ?write_stored_string_tchar@?$output_processor@DV?$stream_output_adapter@D@__crt_stdio_output@@V?$format_validation_base@DV?$stream_output_adapter@D@__crt_stdio_output@@@2@@__crt_stdio_output@@AAE_ND@Z 1004172f f i libucrt:output.obj
 0001:000407d2       ?write_stored_string_tchar@?$output_processor@DV?$stream_output_adapter@D@__crt_stdio_output@@V?$positional_parameter_base@DV?$stream_output_adapter@D@__crt_stdio_output@@@2@@__crt_stdio_output@@AAE_ND@Z 100417d2 f i libucrt:output.obj
 0001:00040875       ?write_stored_string_tchar@?$output_processor@DV?$stream_output_adapter@D@__crt_stdio_output@@V?$standard_base@DV?$stream_output_adapter@D@__crt_stdio_output@@@2@@__crt_stdio_output@@AAE_ND@Z 10041875 f i libucrt:output.obj
 0001:00040918       ?write_stored_string_tchar@?$output_processor@DV?$string_output_adapter@D@__crt_stdio_output@@V?$format_validation_base@DV?$string_output_adapter@D@__crt_stdio_output@@@2@@__crt_stdio_output@@AAE_ND@Z 10041918 f i libucrt:output.obj
 0001:000409bb       ?write_stored_string_tchar@?$output_processor@DV?$string_output_adapter@D@__crt_stdio_output@@V?$positional_parameter_base@DV?$string_output_adapter@D@__crt_stdio_output@@@2@@__crt_stdio_output@@AAE_ND@Z 100419bb f i libucrt:output.obj
 0001:00040a5e       ?write_stored_string_tchar@?$output_processor@DV?$string_output_adapter@D@__crt_stdio_output@@V?$standard_base@DV?$string_output_adapter@D@__crt_stdio_output@@@2@@__crt_stdio_output@@AAE_ND@Z 10041a5e f i libucrt:output.obj
 0001:00040b01       ?write_stored_string_tchar@?$output_processor@_WV?$stream_output_adapter@_W@__crt_stdio_output@@V?$format_validation_base@_WV?$stream_output_adapter@_W@__crt_stdio_output@@@2@@__crt_stdio_output@@AAE_N_W@Z 10041b01 f i libucrt:output.obj
 0001:00040bb1       ?write_stored_string_tchar@?$output_processor@_WV?$stream_output_adapter@_W@__crt_stdio_output@@V?$positional_parameter_base@_WV?$stream_output_adapter@_W@__crt_stdio_output@@@2@@__crt_stdio_output@@AAE_N_W@Z 10041bb1 f i libucrt:output.obj
 0001:00040c61       ?write_stored_string_tchar@?$output_processor@_WV?$stream_output_adapter@_W@__crt_stdio_output@@V?$standard_base@_WV?$stream_output_adapter@_W@__crt_stdio_output@@@2@@__crt_stdio_output@@AAE_N_W@Z 10041c61 f i libucrt:output.obj
 0001:00040d11       ?write_stored_string_tchar@?$output_processor@_WV?$string_output_adapter@_W@__crt_stdio_output@@V?$format_validation_base@_WV?$string_output_adapter@_W@__crt_stdio_output@@@2@@__crt_stdio_output@@AAE_N_W@Z 10041d11 f i libucrt:output.obj
 0001:00040deb       ?write_stored_string_tchar@?$output_processor@_WV?$string_output_adapter@_W@__crt_stdio_output@@V?$positional_parameter_base@_WV?$string_output_adapter@_W@__crt_stdio_output@@@2@@__crt_stdio_output@@AAE_N_W@Z 10041deb f i libucrt:output.obj
 0001:00040ec5       ?write_stored_string_tchar@?$output_processor@_WV?$string_output_adapter@_W@__crt_stdio_output@@V?$standard_base@_WV?$string_output_adapter@_W@__crt_stdio_output@@@2@@__crt_stdio_output@@AAE_N_W@Z 10041ec5 f i libucrt:output.obj
 0001:00040f9f       ?write_string@?$stream_output_adapter@D@__crt_stdio_output@@QBEXQBDHQAHAAV__crt_cached_ptd_host@@@Z 10041f9f f i libucrt:output.obj
 0001:00040fcb       ?write_string@?$stream_output_adapter@_W@__crt_stdio_output@@QBEXQB_WHQAHAAV__crt_cached_ptd_host@@@Z 10041fcb f i libucrt:output.obj
 0001:00040ff7       ?write_string@?$string_output_adapter@D@__crt_stdio_output@@QBEXQBDHQAHAAV__crt_cached_ptd_host@@@Z 10041ff7 f i libucrt:output.obj
 0001:0004105e       ?write_string@?$string_output_adapter@_W@__crt_stdio_output@@QBEXQB_WHQAHAAV__crt_cached_ptd_host@@@Z 1004205e f i libucrt:output.obj
 0001:000410cf       ?write_string_impl@?$output_adapter_common@DV?$stream_output_adapter@D@__crt_stdio_output@@@__crt_stdio_output@@IBEXQBDHQAHAAV__crt_cached_ptd_host@@@Z 100420cf f i libucrt:output.obj
 0001:0004114e       ?write_string_impl@?$output_adapter_common@_WV?$stream_output_adapter@_W@__crt_stdio_output@@@__crt_stdio_output@@IBEXQB_WHQAHAAV__crt_cached_ptd_host@@@Z 1004214e f i libucrt:output.obj
 0001:000411d0       ___acrt_isleadbyte_l_noupdate 100421d0 f i libucrt:output.obj
 0001:000411ee       ___acrt_locale_get_ctype_array_value 100421ee f i libucrt:output.obj
 0001:00041210       ___ascii_toupper           10042210 f i libucrt:output.obj
 0001:00041227       ___ascii_towupper          10042227 f i libucrt:output.obj
 0001:0004123e       ___stdio_common_vfprintf   1004223e f   libucrt:output.obj
 0001:000412e2       ___stdio_common_vfprintf_p 100422e2 f   libucrt:output.obj
 0001:00041386       ___stdio_common_vfprintf_s 10042386 f   libucrt:output.obj
 0001:0004142a       ___stdio_common_vfwprintf  1004242a f   libucrt:output.obj
 0001:000414ce       ___stdio_common_vfwprintf_p 100424ce f   libucrt:output.obj
 0001:00041572       ___stdio_common_vfwprintf_s 10042572 f   libucrt:output.obj
 0001:00041616       ___stdio_common_vsnprintf_s 10042616 f   libucrt:output.obj
 0001:0004165a       ___stdio_common_vsnwprintf_s 1004265a f   libucrt:output.obj
 0001:0004169e       ___stdio_common_vsprintf   1004269e f   libucrt:output.obj
 0001:000416df       ___stdio_common_vsprintf_p 100426df f   libucrt:output.obj
 0001:00041720       ___stdio_common_vsprintf_s 10042720 f   libucrt:output.obj
 0001:00041761       ___stdio_common_vswprintf  10042761 f   libucrt:output.obj
 0001:000417a2       ___stdio_common_vswprintf_p 100427a2 f   libucrt:output.obj
 0001:000417e3       ___stdio_common_vswprintf_s 100427e3 f   libucrt:output.obj
 0001:00041824       __ctype_fast_check_internal 10042824 f i libucrt:output.obj
 0001:0004183e       __isdigit_fast_internal    1004283e f i libucrt:output.obj
 0001:00041858       __tolower_fast_internal    10042858 f i libucrt:output.obj
 0001:00041871       _calloc                    10042871 f   libucrt:calloc.obj
 0001:0004187c       _free                      1004287c f   libucrt:free.obj
 0001:00042259       __aligned_free             10043259 f   libucrt:align.obj
 0001:00042273       __aligned_malloc           10043273 f   libucrt:align.obj
 0001:000422d8       __aligned_msize            100432d8 f   libucrt:align.obj
 0001:00042321       __aligned_offset_malloc    10043321 f   libucrt:align.obj
 0001:000423aa       __aligned_offset_realloc   100433aa f   libucrt:align.obj
 0001:000425a2       __aligned_offset_recalloc  100435a2 f   libucrt:align.obj
 0001:0004284e       __aligned_realloc          1004384e f   libucrt:align.obj
 0001:000429f5       __aligned_recalloc         100439f5 f   libucrt:align.obj
 0001:00042cd7       __get_sys_err_msg          10043cd7 f i libucrt:perror.obj
 0001:00042d2f       _perror                    10043d2f f   libucrt:perror.obj
 0001:00042d60       __libm_sse2_pow_precise    10043d60 f   libucrt:pow_sse2_precise.obj
 0001:000438b0       __libm_sse2_exp_precise    100448b0 f   libucrt:exp_sse2_precise.obj
 0001:00043b90       _malloc                    10044b90 f   libucrt:malloc.obj
 0001:00043ba0       __CIsinh                   10044ba0 f   libucrt:87ctrigh.obj
 0001:00043bb0       __CIcosh                   10044bb0 f   libucrt:87ctrigh.obj
 0001:00043bc0       __CItanh                   10044bc0 f   libucrt:87ctrigh.obj
 0001:00043bd0       __libm_sse2_log_precise    10044bd0 f   libucrt:log_sse2_precise.obj
 0001:00043e60       _ceil                      10044e60 f   libucrt:ceil_pentium4.obj
 0001:00043ea0       __ceil_pentium4            10044ea0 f   libucrt:ceil_pentium4.obj
 0001:00043f7d       _rand                      10044f7d f   libucrt:rand.obj
 0001:00043f9e       _srand                     10044f9e f   libucrt:rand.obj
 0001:00044274       ??0__crt_stdio_stream@@QAE@QAU__crt_stdio_stream_data@@@Z 10045274 f i libucrt:fflush.obj
 0001:00044380       ?__acrt_stdio_reset_buffer@@YAXV__crt_stdio_stream@@@Z 10045380 f i libucrt:fflush.obj
 0001:00044462       ?has_all_of@__crt_stdio_stream@@QBE_NJ@Z 10045462 f i libucrt:fflush.obj
 0001:000444ca       ___acrt_stdio_flush_nolock 100454ca f   libucrt:fflush.obj
 0001:00044533       __fflush_nolock            10045533 f   libucrt:fflush.obj
 0001:00044598       __flushall                 10045598 f   libucrt:fflush.obj
 0001:000445a1       _fflush                    100455a1 f   libucrt:fflush.obj
 0001:00044600       __libm_sse2_log10_precise  10045600 f   libucrt:log10_sse2_precise.obj
 0001:000449d5       __fclose_nolock            100459d5 f   libucrt:fclose.obj
 0001:00044a05       _fclose                    10045a05 f   libucrt:fclose.obj
 0001:00044a35       ?has_any_buffer@__crt_stdio_stream@@QBE_NXZ 10045a35 f i libucrt:fread.obj
 0001:00044a44       ?has_any_of@__crt_stdio_stream@@QBE_NJ@Z 10045a44 f i libucrt:fread.obj
 0001:00044a59       __fread_nolock             10045a59 f   libucrt:fread.obj
 0001:00044a76       __fread_nolock_s           10045a76 f   libucrt:fread.obj
 0001:00044c5c       _fread                     10045c5c f   libucrt:fread.obj
 0001:00044c79       _fread_s                   10045c79 f   libucrt:fread.obj
 0001:00044ec2       ?has_big_buffer@__crt_stdio_stream@@QBE_NXZ 10045ec2 f i libucrt:fwrite.obj
 0001:00044ece       __fwrite_internal          10045ece f   libucrt:fwrite.obj
 0001:00044f45       __fwrite_nolock            10045f45 f   libucrt:fwrite.obj
 0001:00044f7f       __fwrite_nolock_internal   10045f7f f   libucrt:fwrite.obj
 0001:00045129       _fwrite                    10046129 f   libucrt:fwrite.obj
 0001:00045163       _strtok                    10046163 f   libucrt:strtok.obj
 0001:00045190       __libm_sse2_atan_precise   10046190 f   libucrt:atan_sse2_precise.obj
 0001:00045480       _floor                     10046480 f   libucrt:floor_pentium4.obj
 0001:000454c0       __floor_pentium4           100464c0 f   libucrt:floor_pentium4.obj
 0001:0004557d       ?should_round_up@__crt_strtox@@YA_N_N000@Z 1004657d f i libucrt:fpexcept.obj
 0001:000455ca       __errcode                  100465ca f   libucrt:fpexcept.obj
 0001:000455fe       __except1                  100465fe f   libucrt:fpexcept.obj
 0001:000456cc       __except2                  100466cc f   libucrt:fpexcept.obj
 0001:000457d4       __handle_exc               100467d4 f   libucrt:fpexcept.obj
 0001:00045a4d       __handle_qnan2             10046a4d f   libucrt:fpexcept.obj
 0001:00045a5a       __raise_exc                10046a5a f   libucrt:fpexcept.obj
 0001:00045a7d       __raise_exc_ex             10046a7d f   libucrt:fpexcept.obj
 0001:00045d73       __raise_excf               10046d73 f   libucrt:fpexcept.obj
 0001:00045d96       __set_errno_from_matherr   10046d96 f   libucrt:fpexcept.obj
 0001:00045dc5       __umatherr                 10046dc5 f   libucrt:fpexcept.obj
 0001:00045e65       __initterm                 10046e65 f   libucrt:initterm.obj
 0001:00045e90       __initterm_e               10046e90 f   libucrt:initterm.obj
 0001:00045ee2       __seh_filter_dll           10046ee2 f   libucrt:exception_filter.obj
 0001:00045f02       __seh_filter_exe           10046f02 f   libucrt:exception_filter.obj
 0001:00046048       ??$?RE@__crt_internal_free_policy@@QBEXQBE@Z 10047048 f i libucrt:argv_parsing.obj
 0001:0004605a       ??$?RPAD@__crt_internal_free_policy@@QBEXQBQAD@Z 1004705a f i libucrt:argv_parsing.obj
 0001:0004606c       ??$?RPA_W@__crt_internal_free_policy@@QBEXQBQA_W@Z 1004706c f i libucrt:argv_parsing.obj
 0001:000462f1       ??$get_module_file_name@$$TAAY0BAF@DH@?$__crt_char_traits@D@@SAK$$QA$$TAAY0BAF@D$$QAH@Z 100472f1 f i libucrt:argv_parsing.obj
 0001:0004630d       ??$get_module_file_name@$$TAAY0BAF@_WH@?$__crt_char_traits@_W@@SAK$$QA$$TAAY0BAF@_W$$QAH@Z 1004730d f i libucrt:argv_parsing.obj
 0001:0004663c       ??$set_program_name@PAD@?$__crt_char_traits@D@@SAX$$QAPAD@Z 1004763c f i libucrt:argv_parsing.obj
 0001:0004664d       ??$set_program_name@PA_W@?$__crt_char_traits@_W@@SAX$$QAPA_W@Z 1004764d f i libucrt:argv_parsing.obj
 0001:0004667e       ??0?$__crt_unique_heap_ptr@EU__crt_internal_free_policy@@@@QAE@QAE@Z 1004767e f i libucrt:argv_parsing.obj
 0001:0004668e       ??0?$__crt_unique_heap_ptr@PADU__crt_internal_free_policy@@@@QAE@QAPAD@Z 1004768e f i libucrt:argv_parsing.obj
 0001:0004669e       ??0?$__crt_unique_heap_ptr@PA_WU__crt_internal_free_policy@@@@QAE@QAPA_W@Z 1004769e f i libucrt:argv_parsing.obj
 0001:000466ae       ??1?$__crt_unique_heap_ptr@EU__crt_internal_free_policy@@@@QAE@XZ 100476ae f i libucrt:argv_parsing.obj
 0001:000466c0       ??1?$__crt_unique_heap_ptr@PADU__crt_internal_free_policy@@@@QAE@XZ 100476c0 f i libucrt:argv_parsing.obj
 0001:000466d2       ??1?$__crt_unique_heap_ptr@PA_WU__crt_internal_free_policy@@@@QAE@XZ 100476d2 f i libucrt:argv_parsing.obj
 0001:000466e4       ??B?$__crt_unique_heap_ptr@EU__crt_internal_free_policy@@@@QBE_NXZ 100476e4 f i libucrt:argv_parsing.obj
 0001:00046717       ?detach@?$__crt_unique_heap_ptr@EU__crt_internal_free_policy@@@@QAEPAEXZ 10047717 f i libucrt:argv_parsing.obj
 0001:0004671d       ?detach@?$__crt_unique_heap_ptr@PADU__crt_internal_free_policy@@@@QAEPAPADXZ 1004771d f i libucrt:argv_parsing.obj
 0001:00046723       ?detach@?$__crt_unique_heap_ptr@PA_WU__crt_internal_free_policy@@@@QAEPAPA_WXZ 10047723 f i libucrt:argv_parsing.obj
 0001:00046747       ?get@?$__crt_unique_heap_ptr@EU__crt_internal_free_policy@@@@QBEPAEXZ 10047747 f i libucrt:argv_parsing.obj
 0001:0004674a       ?get@?$__crt_unique_heap_ptr@PADU__crt_internal_free_policy@@@@QBEPAPADXZ 1004774a f i libucrt:argv_parsing.obj
 0001:0004674d       ?get@?$__crt_unique_heap_ptr@PA_WU__crt_internal_free_policy@@@@QBEPAPA_WXZ 1004774d f i libucrt:argv_parsing.obj
 0001:00046750       ?get_address_of@?$__crt_unique_heap_ptr@PADU__crt_internal_free_policy@@@@QAEPAPAPADXZ 10047750 f i libucrt:argv_parsing.obj
 0001:00046753       ?get_address_of@?$__crt_unique_heap_ptr@PA_WU__crt_internal_free_policy@@@@QAEPAPAPA_WXZ 10047753 f i libucrt:argv_parsing.obj
 0001:0004676e       ?is_valid@?$__crt_unique_heap_ptr@EU__crt_internal_free_policy@@@@QBE_NXZ 1004776e f i libucrt:argv_parsing.obj
 0001:00046775       ?release@?$__crt_unique_heap_ptr@EU__crt_internal_free_policy@@@@QAEXXZ 10047775 f i libucrt:argv_parsing.obj
 0001:00046787       ?release@?$__crt_unique_heap_ptr@PADU__crt_internal_free_policy@@@@QAEXXZ 10047787 f i libucrt:argv_parsing.obj
 0001:00046799       ?release@?$__crt_unique_heap_ptr@PA_WU__crt_internal_free_policy@@@@QAEXXZ 10047799 f i libucrt:argv_parsing.obj
 0001:000467c5       ___acrt_allocate_buffer_for_argv 100477c5 f   libucrt:argv_parsing.obj
 0001:00046814       __configure_narrow_argv    10047814 f   libucrt:argv_parsing.obj
 0001:0004681f       __configure_wide_argv      1004781f f   libucrt:argv_parsing.obj
 0001:0004682a       __set_pgmptr               1004782a f i libucrt:argv_parsing.obj
 0001:00046839       __set_wpgmptr              10047839 f i libucrt:argv_parsing.obj
 0001:00046c52       ??$get_environment_from_os@$$V@?$__crt_char_traits@D@@SAPADXZ 10047c52 f i libucrt:environment_initialization.obj
 0001:00046c57       ??$get_environment_from_os@$$V@?$__crt_char_traits@_W@@SAPA_WXZ 10047c57 f i libucrt:environment_initialization.obj
 0001:00046d60       ??$set_variable_in_environment_nolock@PADH@?$__crt_char_traits@D@@SAH$$QAPAD$$QAH@Z 10047d60 f i libucrt:environment_initialization.obj
 0001:00046d78       ??$set_variable_in_environment_nolock@PA_WH@?$__crt_char_traits@_W@@SAH$$QAPA_W$$QAH@Z 10047d78 f i libucrt:environment_initialization.obj
 0001:00046d90       ??$tcscpy_s@PADABIAAPAD@?$__crt_char_traits@D@@SAH$$QAPADABIAAPAD@Z 10047d90 f i libucrt:environment_initialization.obj
 0001:00046dae       ??$tcscpy_s@PA_WABIAAPA_W@?$__crt_char_traits@_W@@SAH$$QAPA_WABIAAPA_W@Z 10047dae f i libucrt:environment_initialization.obj
 0001:00046dcc       ??$uninitialize@A6AXAAPAPAD@_E@?$dual_state_global@PAPAD@__crt_state_management@@QAEXA6AXAAPAPAD@_E@Z 10047dcc f i libucrt:environment_initialization.obj
 0001:00046e24       ??$uninitialize@A6AXAAPAPA_W@_E@?$dual_state_global@PAPA_W@__crt_state_management@@QAEXA6AXAAPAPA_W@_E@Z 10047e24 f i libucrt:environment_initialization.obj
 0001:00046eb2       ??B?$__crt_unique_heap_ptr@PADU__crt_internal_free_policy@@@@QBE_NXZ 10047eb2 f i libucrt:environment_initialization.obj
 0001:00046eb9       ??B?$__crt_unique_heap_ptr@PA_WU__crt_internal_free_policy@@@@QBE_NXZ 10047eb9 f i libucrt:environment_initialization.obj
 0001:00046ec0       ?__crt_compute_required_transform_buffer_count@@YAIIQBD@Z 10047ec0 f i libucrt:environment_initialization.obj
 0001:00046edc       ?__crt_compute_required_transform_buffer_count@@YAIIQB_W@Z 10047edc f i libucrt:environment_initialization.obj
 0001:00046efa       ?__crt_transform_string@@YAIIQBDQA_WI@Z 10047efa f i libucrt:environment_initialization.obj
 0001:00046f19       ?__crt_transform_string@@YAIIQB_WQADI@Z 10047f19 f i libucrt:environment_initialization.obj
 0001:00046f3b       ?detach@?$__crt_unique_heap_ptr@DU__crt_internal_free_policy@@@@QAEPADXZ 10047f3b f i libucrt:environment_initialization.obj
 0001:00046f65       ?initialize@?$dual_state_global@PAPAD@__crt_state_management@@QAEXQAPAD@Z 10047f65 f i libucrt:environment_initialization.obj
 0001:00046f81       ?initialize@?$dual_state_global@PAPA_W@__crt_state_management@@QAEXQAPA_W@Z 10047f81 f i libucrt:environment_initialization.obj
 0001:00046f9d       ?is_valid@?$__crt_unique_heap_ptr@PADU__crt_internal_free_policy@@@@QBE_NXZ 10047f9d f i libucrt:environment_initialization.obj
 0001:00046fa4       ?is_valid@?$__crt_unique_heap_ptr@PA_WU__crt_internal_free_policy@@@@QBE_NXZ 10047fa4 f i libucrt:environment_initialization.obj
 0001:00046fb3       ___dcrt_get_or_create_narrow_environment_nolock 10047fb3 f   libucrt:environment_initialization.obj
 0001:00046fb8       ___dcrt_get_or_create_wide_environment_nolock 10047fb8 f   libucrt:environment_initialization.obj
 0001:00046fbd       ___dcrt_uninitialize_environments_nolock 10047fbd f   libucrt:environment_initialization.obj
 0001:0004700e       ___p__environ              1004800e f   libucrt:environment_initialization.obj
 0001:00047014       ___p__wenviron             10048014 f   libucrt:environment_initialization.obj
 0001:0004701a       __get_initial_narrow_environment 1004801a f   libucrt:environment_initialization.obj
 0001:0004702e       __get_initial_wide_environment 1004802e f   libucrt:environment_initialization.obj
 0001:00047042       __initialize_narrow_environment 10048042 f   libucrt:environment_initialization.obj
 0001:00047047       __initialize_wide_environment 10048047 f   libucrt:environment_initialization.obj
 0001:0004704c       ??$?B$$A6AXXZ@__crt_fast_encoded_nullptr_t@@QBEP6AXXZXZ 1004804c f i libucrt:onexit.obj
 0001:00047052       ??$?BP6AXXZ@__crt_fast_encoded_nullptr_t@@QBEPAP6AXXZXZ 10048052 f i libucrt:onexit.obj
 0001:00047058       ??$?RP6AXXZ@__crt_internal_free_policy@@QBEXQBQ6AXXZ@Z 10048058 f i libucrt:onexit.obj
 0001:0004719b       ??$__crt_fast_decode_pointer@P6AXXZ@@YAP6AXXZQ6AXXZ@Z 1004819b f i libucrt:onexit.obj
 0001:000471b1       ??$__crt_fast_decode_pointer@PAP6AXXZ@@YAPAP6AXXZQAP6AXXZ@Z 100481b1 f i libucrt:onexit.obj
 0001:000471c7       ??$__crt_fast_encode_pointer@P6AHXZ@@YAP6AHXZQ6AHXZ@Z 100481c7 f i libucrt:onexit.obj
 0001:000471e6       ??$__crt_fast_encode_pointer@P6AXXZ@@YAP6AXXZQ6AXXZ@Z 100481e6 f i libucrt:onexit.obj
 0001:00047205       ??$__crt_fast_encode_pointer@PAP6AXXZ@@YAPAP6AXXZQAP6AXXZ@Z 10048205 f i libucrt:onexit.obj
 0001:00047292       ??0?$__crt_unique_heap_ptr@P6AXXZU__crt_internal_free_policy@@@@QAE@QAP6AXXZ@Z 10048292 f i libucrt:onexit.obj
 0001:000472a2       ??1?$__crt_unique_heap_ptr@P6AXXZU__crt_internal_free_policy@@@@QAE@XZ 100482a2 f i libucrt:onexit.obj
 0001:000472b4       ??1scoped_global_state_reset@__crt_state_management@@QAE@XZ 100482b4 f i libucrt:onexit.obj
 0001:000474b7       ?detach@?$__crt_unique_heap_ptr@P6AXXZU__crt_internal_free_policy@@@@QAEPAP6AXXZXZ 100484b7 f i libucrt:onexit.obj
 0001:000474bd       ?release@?$__crt_unique_heap_ptr@P6AXXZU__crt_internal_free_policy@@@@QAEXXZ 100484bd f i libucrt:onexit.obj
 0001:000474cf       __crt_at_quick_exit        100484cf f   libucrt:onexit.obj
 0001:000474e5       __crt_atexit               100484e5 f   libucrt:onexit.obj
 0001:000474fb       __execute_onexit_table     100484fb f   libucrt:onexit.obj
 0001:00047539       __initialize_onexit_table  10048539 f   libucrt:onexit.obj
 0001:00047562       __register_onexit_function 10048562 f   libucrt:onexit.obj
 0001:00047671       ??$?BX@__crt_fast_encoded_nullptr_t@@QBEPAXXZ 10048671 f i libucrt:initialization.obj
 0001:00047677       ??$__crt_fast_encode_pointer@PAX@@YAPAXQAX@Z 10048677 f i libucrt:initialization.obj
 0001:000476e8       ?__acrt_stdio_is_initialized@@YA_NXZ 100486e8 f i libucrt:initialization.obj
 0001:000476f3       ?initialize@?$dual_state_global@PAU__crt_locale_data@@@__crt_state_management@@QAEXQAU__crt_locale_data@@@Z 100486f3 f i libucrt:initialization.obj
 0001:0004770f       ___acrt_initialize         1004870f f   libucrt:initialization.obj
 0001:00047721       ___acrt_thread_attach      10048721 f   libucrt:initialization.obj
 0001:0004772c       ___acrt_thread_detach      1004872c f   libucrt:initialization.obj
 0001:00047734       ___acrt_uninitialize       10048734 f   libucrt:initialization.obj
 0001:00047764       ___acrt_uninitialize_critical 10048764 f   libucrt:initialization.obj
 0001:0004778c       __get_terminate            1004878c f   libucrt:terminate.obj
 0001:0004779e       _set_terminate             1004879e f   libucrt:terminate.obj
 0001:000477be       _terminate                 100487be f   libucrt:terminate.obj
 0001:000477fa       ?get_doserrno@__crt_cached_ptd_host@@QAEAAU?$cached@K@1@XZ 100487fa f i libucrt:write.obj
 0001:000477fe       ?set@?$cached@K@__crt_cached_ptd_host@@QAEKK@Z 100487fe f i libucrt:write.obj
 0001:0004800d       __isleadbyte_fast_internal 1004900d f i libucrt:write.obj
 0001:0004802b       __utf8_no_of_trailbytes    1004902b f i libucrt:write.obj
 0001:0004803c       __write                    1004903c f   libucrt:write.obj
 0001:0004803c       _write                     1004903c f   libucrt:write.obj
 0001:00048073       __write_internal           10049073 f   libucrt:write.obj
 0001:0004817b       __write_nolock             1004917b f   libucrt:write.obj
 0001:000483d5       _strcpy_s                  100493d5 f   libucrt:strcpy_s.obj
 0001:0004842f       __set_abort_behavior       1004942f f   libucrt:abort.obj
 0001:00048450       _abort                     10049450 f   libucrt:abort.obj
 0001:00048494       ??$is_overflow_condition@_K@__crt_strtox@@YA_NI_K@Z 10049494 f i libucrt:atox.obj
 0001:000484d5       ??$make_c_string_character_source@D$$T@__crt_strtox@@YA?AV?$c_string_character_source@D@0@QBD$$T@Z 100494d5 f i libucrt:atox.obj
 0001:000484f0       ??$make_c_string_character_source@_W$$T@__crt_strtox@@YA?AV?$c_string_character_source@_W@0@QB_W$$T@Z 100494f0 f i libucrt:atox.obj
 0001:0004850b       ??$parse_integer@KV?$c_string_character_source@D@__crt_strtox@@$00@__crt_strtox@@YAKAAV__crt_cached_ptd_host@@V?$c_string_character_source@D@0@H_N@Z 1004950b f i libucrt:atox.obj
 0001:00048752       ??$parse_integer@KV?$c_string_character_source@_W@__crt_strtox@@$00@__crt_strtox@@YAKAAV__crt_cached_ptd_host@@V?$c_string_character_source@_W@0@H_N@Z 10049752 f i libucrt:atox.obj
 0001:00048d5c       ??$parse_integer@_KV?$c_string_character_source@D@__crt_strtox@@$00@__crt_strtox@@YA_KAAV__crt_cached_ptd_host@@V?$c_string_character_source@D@0@H_N@Z 10049d5c f i libucrt:atox.obj
 0001:00049024       ??$parse_integer@_KV?$c_string_character_source@_W@__crt_strtox@@$00@__crt_strtox@@YA_KAAV__crt_cached_ptd_host@@V?$c_string_character_source@_W@0@H_N@Z 1004a024 f i libucrt:atox.obj
 0001:000496aa       ??$parse_integer_from_string@JD$$T@__crt_strtox@@YAJQBD$$THQAU__crt_locale_pointers@@@Z 1004a6aa f i libucrt:atox.obj
 0001:000496f1       ??$parse_integer_from_string@J_W$$T@__crt_strtox@@YAJQB_W$$THQAU__crt_locale_pointers@@@Z 1004a6f1 f i libucrt:atox.obj
 0001:00049738       ??$parse_integer_from_string@_JD$$T@__crt_strtox@@YA_JQBD$$THQAU__crt_locale_pointers@@@Z 1004a738 f i libucrt:atox.obj
 0001:00049785       ??$parse_integer_from_string@_J_W$$T@__crt_strtox@@YA_JQB_W$$THQAU__crt_locale_pointers@@@Z 1004a785 f i libucrt:atox.obj
 0001:000497d2       ?is_space@__crt_strtox@@YA_NDQAU__crt_locale_pointers@@@Z 1004a7d2 f i libucrt:atox.obj
 0001:000497f0       ?is_space@__crt_strtox@@YA_N_WPAU__crt_locale_pointers@@@Z 1004a7f0 f i libucrt:atox.obj
 0001:00049808       ?maximum_signed_value@__crt_strtox@@YA_J_K@Z 1004a808 f i libucrt:atox.obj
 0001:00049811       ?minimum_signed_value@__crt_strtox@@YA_J_K@Z 1004a811 f i libucrt:atox.obj
 0001:00049819       ___acrt_get_locale_data_prefix 1004a819 f i libucrt:atox.obj
 0001:00049825       __atoi64                   1004a825 f   libucrt:atox.obj
 0001:0004986a       __atoi64_l                 1004a86a f   libucrt:atox.obj
 0001:000498b0       __atoi_l                   1004a8b0 f   libucrt:atox.obj
 0001:000498f0       __atol_l                   1004a8f0 f   libucrt:atox.obj
 0001:00049930       __atoll_l                  1004a930 f   libucrt:atox.obj
 0001:00049976       __chvalidchk_l             1004a976 f i libucrt:atox.obj
 0001:0004999e       __ischartype_l             1004a99e f i libucrt:atox.obj
 0001:000499f5       __wtoi                     1004a9f5 f   libucrt:atox.obj
 0001:00049a34       __wtoi64                   1004aa34 f   libucrt:atox.obj
 0001:00049a79       __wtoi64_l                 1004aa79 f   libucrt:atox.obj
 0001:00049abf       __wtoi_l                   1004aabf f   libucrt:atox.obj
 0001:00049aff       __wtol                     1004aaff f   libucrt:atox.obj
 0001:00049b3e       __wtol_l                   1004ab3e f   libucrt:atox.obj
 0001:00049b7e       __wtoll                    1004ab7e f   libucrt:atox.obj
 0001:00049bc3       __wtoll_l                  1004abc3 f   libucrt:atox.obj
 0001:00049c09       _atoi                      1004ac09 f   libucrt:atox.obj
 0001:00049c48       _atol                      1004ac48 f   libucrt:atox.obj
 0001:00049c87       _atoll                     1004ac87 f   libucrt:atox.obj
 0001:00049cd0       _strncmp                   1004acd0 f   libucrt:strncmp.obj
 0001:00049d48       _wcsncmp                   1004ad48 f   libucrt:wcsncmp.obj
 0001:00049d90       __CIcos                    1004ad90 f   libucrt:cos_impl.obj
 0001:00049dcb       __CIcos_default            1004adcb f   libucrt:cos_impl.obj
 0001:00049ddf       __cos_default              1004addf     libucrt:cos_impl.obj
 0001:00049e80       __CIsin                    1004ae80 f   libucrt:sin_impl.obj
 0001:00049ebb       __CIsin_default            1004aebb f   libucrt:sin_impl.obj
 0001:00049ecf       __sin_default              1004aecf     libucrt:sin_impl.obj
 0001:00049f62       ___libm_error_support      1004af62 f   libucrt:libm_error.obj
 0001:0004a156       ___libm_setusermatherr     1004b156 f   libucrt:libm_error.obj
 0001:0004a180       _sqrt                      1004b180 f   libucrt:sqrt.obj
 0001:0004a18e       ??$__crt_fast_decode_pointer@P6AXPB_W00II@Z@@YAP6AXPB_W00II@ZQ6AX000II@Z@Z 1004b18e f i libucrt:invalid_parameter.obj
 0001:0004a1a4       ??$__crt_fast_encode_pointer@P6AXPB_W00II@Z@@YAP6AXPB_W00II@ZQ6AX000II@Z@Z 1004b1a4 f i libucrt:invalid_parameter.obj
 0001:0004a1c3       ??$initialize_from_array@$$BY00Q6AXPB_W00II@Z@?$dual_state_global@P6AXPB_W00II@Z@__crt_state_management@@QAAXAAY00Q6AXPB_W00II@Z@Z 1004b1c3 f i libucrt:invalid_parameter.obj
 0001:0004a1d4       ?check_synchronize_global_state_index@__crt_cached_ptd_host@@AAEIXZ 1004b1d4 f i libucrt:invalid_parameter.obj
 0001:0004a1fd       ?dangerous_get_state_array@?$dual_state_global@P6AXPB_W00II@Z@__crt_state_management@@QAEPAP6AXPB_W00II@ZXZ 1004b1fd f i libucrt:invalid_parameter.obj
 0001:0004a200       ?get_current_global_state_index@__crt_cached_ptd_host@@QAEIXZ 1004b200 f i libucrt:invalid_parameter.obj
 0001:0004a205       ?get_raw_ptd_noexit@__crt_cached_ptd_host@@QAEPAU__acrt_ptd@@XZ 1004b205 f i libucrt:invalid_parameter.obj
 0001:0004a210       ?try_synchronize_per_thread_data@__crt_cached_ptd_host@@AAEPAU__acrt_ptd@@XZ 1004b210 f i libucrt:invalid_parameter.obj
 0001:0004a21b       ?value@?$dual_state_global@P6AXPB_W00II@Z@__crt_state_management@@QAEAAP6AXPB_W00II@ZAAV__crt_cached_ptd_host@@@Z 1004b21b f i libucrt:invalid_parameter.obj
 0001:0004a233       ?value@?$dual_state_global@P6AXPB_W00II@Z@__crt_state_management@@QAEAAP6AXPB_W00II@ZXZ 1004b233 f i libucrt:invalid_parameter.obj
 0001:0004a236       ___acrt_call_reportfault   1004b236 f   libucrt:invalid_parameter.obj
 0001:0004a36f       ___acrt_initialize_invalid_parameter_handler 1004b36f f   libucrt:invalid_parameter.obj
 0001:0004a37e       __get_invalid_parameter_handler 1004b37e f   libucrt:invalid_parameter.obj
 0001:0004a391       __get_thread_local_invalid_parameter_handler 1004b391 f   libucrt:invalid_parameter.obj
 0001:0004a3a2       __invalid_parameter        1004b3a2 f   libucrt:invalid_parameter.obj
 0001:0004a3d9       __invalid_parameter_internal 1004b3d9 f   libucrt:invalid_parameter.obj
 0001:0004a456       __invalid_parameter_noinfo 1004b456 f   libucrt:invalid_parameter.obj
 0001:0004a466       __invalid_parameter_noinfo_noreturn 1004b466 f   libucrt:invalid_parameter.obj
 0001:0004a483       __invoke_watson            1004b483 f   libucrt:invalid_parameter.obj
 0001:0004a4b7       __set_invalid_parameter_handler 1004b4b7 f   libucrt:invalid_parameter.obj
 0001:0004a4e7       __set_thread_local_invalid_parameter_handler 1004b4e7 f   libucrt:invalid_parameter.obj
 0001:0004a52f       __chdrive                  1004b52f f   libucrt:drive.obj
 0001:0004a5ad       __getdrive                 1004b5ad f   libucrt:drive.obj
 0001:0004a651       ___acrt_errno_from_os_error 1004b651 f   libucrt:errno.obj
 0001:0004a694       ___acrt_errno_map_os_error 1004b694 f   libucrt:errno.obj
 0001:0004a6b7       ___acrt_errno_map_os_error_ptd 1004b6b7 f   libucrt:errno.obj
 0001:0004a6db       ___doserrno                1004b6db f   libucrt:errno.obj
 0001:0004a6ee       __errno                    1004b6ee f   libucrt:errno.obj
 0001:0004a701       __get_doserrno             1004b701 f   libucrt:errno.obj
 0001:0004a726       __get_errno                1004b726 f   libucrt:errno.obj
 0001:0004a74b       __set_doserrno             1004b74b f   libucrt:errno.obj
 0001:0004a76c       __set_errno                1004b76c f   libucrt:errno.obj
 0001:0004a793       __free_base                1004b793 f   libucrt:free_base.obj
 0001:0004a7cd       __malloc_base              1004b7cd f   libucrt:malloc_base.obj
 0001:0004a81b       ??$?0$0BAE@@?$__crt_win32_buffer@_WU__crt_win32_buffer_internal_dynamic_resizing@@@@QAE@AAY0BAE@_W@Z 1004b81b f i libucrt:fullpath.obj
 0001:0004a841       ??$__acrt_convert_wcs_mbs_cp@_WDV<lambda_0fec1a7b3f42a53036604e18c2d5e07e>@@U__crt_win32_buffer_no_resizing@@@@YAHQB_WAAV?$__crt_win32_buffer@DU__crt_win32_buffer_no_resizing@@@@ABV<lambda_0fec1a7b3f42a53036604e18c2d5e07e>@@I@Z 1004b841 f i libucrt:fullpath.obj
 0001:0004a903       ??$__acrt_convert_wcs_mbs_cp@_WDV<lambda_fecc33a432ccb74a901dff60d61ca385>@@U__crt_win32_buffer_public_dynamic_resizing@@@@YAHQB_WAAV?$__crt_win32_buffer@DU__crt_win32_buffer_public_dynamic_resizing@@@@ABV<lambda_fecc33a432ccb74a901dff60d61ca385>@@I@Z 1004b903 f i libucrt:fullpath.obj
 0001:0004a9c9       ??$__acrt_get_full_path_name_narrow_acp_or_utf8@U__crt_win32_buffer_no_resizing@@@@YAHQBDAAV?$__crt_win32_buffer@DU__crt_win32_buffer_no_resizing@@@@@Z 1004b9c9 f i libucrt:fullpath.obj
 0001:0004aad0       ??$__acrt_get_full_path_name_narrow_acp_or_utf8@U__crt_win32_buffer_public_dynamic_resizing@@@@YAHQBDAAV?$__crt_win32_buffer@DU__crt_win32_buffer_public_dynamic_resizing@@@@@Z 1004bad0 f i libucrt:fullpath.obj
 0001:0004abd7       ??$__acrt_get_full_path_name_wide@U__crt_win32_buffer_internal_dynamic_resizing@@@@YAHQB_WAAV?$__crt_win32_buffer@_WU__crt_win32_buffer_internal_dynamic_resizing@@@@@Z 1004bbd7 f i libucrt:fullpath.obj
 0001:0004abf1       ??$__acrt_get_full_path_name_wide@U__crt_win32_buffer_no_resizing@@@@YAHQB_WAAV?$__crt_win32_buffer@_WU__crt_win32_buffer_no_resizing@@@@@Z 1004bbf1 f i libucrt:fullpath.obj
 0001:0004ac0b       ??$__acrt_get_full_path_name_wide@U__crt_win32_buffer_public_dynamic_resizing@@@@YAHQB_WAAV?$__crt_win32_buffer@_WU__crt_win32_buffer_public_dynamic_resizing@@@@@Z 1004bc0b f i libucrt:fullpath.obj
 0001:0004ac25       ??$__acrt_wcs_to_mbs_cp@U__crt_win32_buffer_no_resizing@@@@YAHQB_WAAV?$__crt_win32_buffer@DU__crt_win32_buffer_no_resizing@@@@I@Z 1004bc25 f i libucrt:fullpath.obj
 0001:0004ac42       ??$__acrt_wcs_to_mbs_cp@U__crt_win32_buffer_public_dynamic_resizing@@@@YAHQB_WAAV?$__crt_win32_buffer@DU__crt_win32_buffer_public_dynamic_resizing@@@@I@Z 1004bc42 f i libucrt:fullpath.obj
 0001:0004ac5f       ??$call_win32_function@V<lambda_0d87af4cf61654f651d26e3c6a4f13fc>@@@?$__crt_win32_buffer@_WU__crt_win32_buffer_public_dynamic_resizing@@@@QAEHABV<lambda_0d87af4cf61654f651d26e3c6a4f13fc>@@@Z 1004bc5f f i libucrt:fullpath.obj
 0001:0004acc5       ??$call_win32_function@V<lambda_33d632c04396b3de813369f94278cf6d>@@@?$__crt_win32_buffer@_WU__crt_win32_buffer_no_resizing@@@@QAEHABV<lambda_33d632c04396b3de813369f94278cf6d>@@@Z 1004bcc5 f i libucrt:fullpath.obj
 0001:0004ad2b       ??$call_win32_function@V<lambda_44f1df80ccead0226c26eac3423fba1d>@@@?$__crt_win32_buffer@_WU__crt_win32_buffer_internal_dynamic_resizing@@@@QAEHABV<lambda_44f1df80ccead0226c26eac3423fba1d>@@@Z 1004bd2b f i libucrt:fullpath.obj
 0001:0004aec9       ??$get_full_path_name@ABQBDAAV?$__crt_win32_buffer@DU__crt_win32_buffer_no_resizing@@@@@?$__crt_char_traits@D@@SAHABQBDAAV?$__crt_win32_buffer@DU__crt_win32_buffer_no_resizing@@@@@Z 1004bec9 f i libucrt:fullpath.obj
 0001:0004aedf       ??$get_full_path_name@ABQBDAAV?$__crt_win32_buffer@DU__crt_win32_buffer_public_dynamic_resizing@@@@@?$__crt_char_traits@D@@SAHABQBDAAV?$__crt_win32_buffer@DU__crt_win32_buffer_public_dynamic_resizing@@@@@Z 1004bedf f i libucrt:fullpath.obj
 0001:0004aef5       ??$get_full_path_name@ABQB_WAAV?$__crt_win32_buffer@_WU__crt_win32_buffer_no_resizing@@@@@?$__crt_char_traits@_W@@SAHABQB_WAAV?$__crt_win32_buffer@_WU__crt_win32_buffer_no_resizing@@@@@Z 1004bef5 f i libucrt:fullpath.obj
 0001:0004af0b       ??$get_full_path_name@ABQB_WAAV?$__crt_win32_buffer@_WU__crt_win32_buffer_public_dynamic_resizing@@@@@?$__crt_char_traits@_W@@SAHABQB_WAAV?$__crt_win32_buffer@_WU__crt_win32_buffer_public_dynamic_resizing@@@@@Z 1004bf0b f i libucrt:fullpath.obj
 0001:0004af21       ??$tgetcwd@ABQADH@?$__crt_char_traits@D@@SAPADABQAD$$QAH@Z 1004bf21 f i libucrt:fullpath.obj
 0001:0004af39       ??$tgetcwd@ABQA_WH@?$__crt_char_traits@_W@@SAPA_WABQA_W$$QAH@Z 1004bf39 f i libucrt:fullpath.obj
 0001:0004af51       ??0<lambda_0d87af4cf61654f651d26e3c6a4f13fc>@@QAE@ABQB_W@Z 1004bf51 f i libucrt:fullpath.obj
 0001:0004af63       ??0<lambda_33d632c04396b3de813369f94278cf6d>@@QAE@ABQB_W@Z 1004bf63 f i libucrt:fullpath.obj
 0001:0004af75       ??0<lambda_44f1df80ccead0226c26eac3423fba1d>@@QAE@ABQB_W@Z 1004bf75 f i libucrt:fullpath.obj
 0001:0004af87       ??0?$__crt_win32_buffer@DU__crt_win32_buffer_no_resizing@@@@QAE@QADI@Z 1004bf87 f i libucrt:fullpath.obj
 0001:0004afab       ??0?$__crt_win32_buffer@DU__crt_win32_buffer_public_dynamic_resizing@@@@QAE@ABV__crt_win32_buffer_debug_info@@@Z 1004bfab f i libucrt:fullpath.obj
 0001:0004afc3       ??0?$__crt_win32_buffer@_WU__crt_win32_buffer_no_resizing@@@@QAE@QA_WI@Z 1004bfc3 f i libucrt:fullpath.obj
 0001:0004afe7       ??0?$__crt_win32_buffer@_WU__crt_win32_buffer_public_dynamic_resizing@@@@QAE@ABV__crt_win32_buffer_debug_info@@@Z 1004bfe7 f i libucrt:fullpath.obj
 0001:0004afff       ??0__crt_win32_buffer_debug_info@@QAE@HPBDH@Z 1004bfff f i libucrt:fullpath.obj
 0001:0004b004       ??1?$__crt_win32_buffer@DU__crt_win32_buffer_no_resizing@@@@QAE@XZ 1004c004 f i libucrt:fullpath.obj
 0001:0004b00f       ??1?$__crt_win32_buffer@DU__crt_win32_buffer_public_dynamic_resizing@@@@QAE@XZ 1004c00f f i libucrt:fullpath.obj
 0001:0004b014       ??1?$__crt_win32_buffer@_WU__crt_win32_buffer_no_resizing@@@@QAE@XZ 1004c014 f i libucrt:fullpath.obj
 0001:0004b01f       ??1?$__crt_win32_buffer@_WU__crt_win32_buffer_public_dynamic_resizing@@@@QAE@XZ 1004c01f f i libucrt:fullpath.obj
 0001:0004b024       ??R<lambda_0d87af4cf61654f651d26e3c6a4f13fc>@@QBEKPA_WK@Z 1004c024 f i libucrt:fullpath.obj
 0001:0004b03d       ??R<lambda_0fec1a7b3f42a53036604e18c2d5e07e>@@QBEHIQB_WQADI@Z 1004c03d f i libucrt:fullpath.obj
 0001:0004b061       ??R<lambda_33d632c04396b3de813369f94278cf6d>@@QBEKPA_WK@Z 1004c061 f i libucrt:fullpath.obj
 0001:0004b07a       ??R<lambda_44f1df80ccead0226c26eac3423fba1d>@@QBEKPA_WK@Z 1004c07a f i libucrt:fullpath.obj
 0001:0004b093       ??R<lambda_fecc33a432ccb74a901dff60d61ca385>@@QBEHIQB_WQADI@Z 1004c093 f i libucrt:fullpath.obj
 0001:0004b0b7       ?_deallocate@?$__crt_win32_buffer@DU__crt_win32_buffer_no_resizing@@@@AAEXXZ 1004c0b7 f i libucrt:fullpath.obj
 0001:0004b0c2       ?_deallocate@?$__crt_win32_buffer@DU__crt_win32_buffer_public_dynamic_resizing@@@@AAEXXZ 1004c0c2 f i libucrt:fullpath.obj
 0001:0004b0dc       ?_deallocate@?$__crt_win32_buffer@_WU__crt_win32_buffer_no_resizing@@@@AAEXXZ 1004c0dc f i libucrt:fullpath.obj
 0001:0004b0e7       ?_deallocate@?$__crt_win32_buffer@_WU__crt_win32_buffer_public_dynamic_resizing@@@@AAEXXZ 1004c0e7 f i libucrt:fullpath.obj
 0001:0004b101       ?_reset_no_dealloc@?$__crt_win32_buffer@DU__crt_win32_buffer_public_dynamic_resizing@@@@AAEXXZ 1004c101 f i libucrt:fullpath.obj
 0001:0004b111       ?_reset_no_dealloc@?$__crt_win32_buffer@_WU__crt_win32_buffer_public_dynamic_resizing@@@@AAEXXZ 1004c111 f i libucrt:fullpath.obj
 0001:0004b121       ?allocate@?$__crt_win32_buffer@DU__crt_win32_buffer_no_resizing@@@@QAEHI@Z 1004c121 f i libucrt:fullpath.obj
 0001:0004b148       ?allocate@?$__crt_win32_buffer@DU__crt_win32_buffer_public_dynamic_resizing@@@@QAEHI@Z 1004c148 f i libucrt:fullpath.obj
 0001:0004b184       ?allocate@?$__crt_win32_buffer@_WU__crt_win32_buffer_no_resizing@@@@QAEHI@Z 1004c184 f i libucrt:fullpath.obj
 0001:0004b1ab       ?allocate@?$__crt_win32_buffer@_WU__crt_win32_buffer_public_dynamic_resizing@@@@QAEHI@Z 1004c1ab f i libucrt:fullpath.obj
 0001:0004b1ea       ?allocate@__crt_win32_buffer_no_resizing@@SAHQAPAXIABV__crt_win32_buffer_empty_debug_info@@@Z 1004c1ea f i libucrt:fullpath.obj
 0001:0004b1f7       ?allocate@__crt_win32_buffer_public_dynamic_resizing@@SAHQAPAXIABV__crt_win32_buffer_debug_info@@@Z 1004c1f7 f i libucrt:fullpath.obj
 0001:0004b216       ?capacity@?$__crt_win32_buffer@DU__crt_win32_buffer_no_resizing@@@@QBEIXZ 1004c216 f i libucrt:fullpath.obj
 0001:0004b21a       ?capacity@?$__crt_win32_buffer@DU__crt_win32_buffer_public_dynamic_resizing@@@@QBEIXZ 1004c21a f i libucrt:fullpath.obj
 0001:0004b21e       ?data@?$__crt_win32_buffer@DU__crt_win32_buffer_no_resizing@@@@QAEPADXZ 1004c21e f i libucrt:fullpath.obj
 0001:0004b222       ?data@?$__crt_win32_buffer@DU__crt_win32_buffer_public_dynamic_resizing@@@@QAEPADXZ 1004c222 f i libucrt:fullpath.obj
 0001:0004b226       ?deallocate@__crt_win32_buffer_no_resizing@@SAXQAXABV__crt_win32_buffer_empty_debug_info@@@Z 1004c226 f i libucrt:fullpath.obj
 0001:0004b229       ?deallocate@__crt_win32_buffer_public_dynamic_resizing@@SAXQAXABV__crt_win32_buffer_debug_info@@@Z 1004c229 f i libucrt:fullpath.obj
 0001:0004b239       ?debug_info@?$__crt_win32_buffer@DU__crt_win32_buffer_no_resizing@@@@QBEABV__crt_win32_buffer_empty_debug_info@@XZ 1004c239 f i libucrt:fullpath.obj
 0001:0004b23c       ?debug_info@?$__crt_win32_buffer@DU__crt_win32_buffer_public_dynamic_resizing@@@@QBEABV__crt_win32_buffer_debug_info@@XZ 1004c23c f i libucrt:fullpath.obj
 0001:0004b23f       ?debug_info@?$__crt_win32_buffer@_WU__crt_win32_buffer_no_resizing@@@@QBEABV__crt_win32_buffer_empty_debug_info@@XZ 1004c23f f i libucrt:fullpath.obj
 0001:0004b242       ?debug_info@?$__crt_win32_buffer@_WU__crt_win32_buffer_public_dynamic_resizing@@@@QBEABV__crt_win32_buffer_debug_info@@XZ 1004c242 f i libucrt:fullpath.obj
 0001:0004b245       ?detach@?$__crt_win32_buffer@DU__crt_win32_buffer_public_dynamic_resizing@@@@QAEPADXZ 1004c245 f i libucrt:fullpath.obj
 0001:0004b292       ?detach@?$__crt_win32_buffer@_WU__crt_win32_buffer_public_dynamic_resizing@@@@QAEPA_WXZ 1004c292 f i libucrt:fullpath.obj
 0001:0004b2e0       ?set_to_nullptr@?$__crt_win32_buffer@DU__crt_win32_buffer_no_resizing@@@@QAEXXZ 1004c2e0 f i libucrt:fullpath.obj
 0001:0004b2f4       ?set_to_nullptr@?$__crt_win32_buffer@DU__crt_win32_buffer_public_dynamic_resizing@@@@QAEXXZ 1004c2f4 f i libucrt:fullpath.obj
 0001:0004b30b       ?size@?$__crt_win32_buffer@DU__crt_win32_buffer_no_resizing@@@@QAEXI@Z 1004c30b f i libucrt:fullpath.obj
 0001:0004b31a       ?size@?$__crt_win32_buffer@DU__crt_win32_buffer_public_dynamic_resizing@@@@QAEXI@Z 1004c31a f i libucrt:fullpath.obj
 0001:0004b329       __fullpath                 1004c329 f   libucrt:fullpath.obj
 0001:0004b347       __wfullpath                1004c347 f   libucrt:fullpath.obj
 0001:0004b3e6       _wcspbrk                   1004c3e6 f   libucrt:wcspbrk.obj
 0001:0004b434       ___ascii_wcsicmp           1004c434 f   libucrt:wcsicmp.obj
 0001:0004b471       __towlower_fast_internal   1004c471 f i libucrt:wcsicmp.obj
 0001:0004b49c       __towlower_internal        1004c49c f i libucrt:wcsicmp.obj
 0001:0004b4db       __wcsicmp                  1004c4db f   libucrt:wcsicmp.obj
 0001:0004b524       __wcsicmp_l                1004c524 f   libucrt:wcsicmp.obj
 0001:0004b644       ___acrt_MultiByteToWideChar 1004c644 f   libucrt:multibytetowidechar.obj
 0001:0004b6c0       ??$?RU__acrt_ptd@@@__crt_internal_free_policy@@QBEXQBU__acrt_ptd@@@Z 1004c6c0 f i libucrt:per_thread_data.obj
 0001:0004b9ac       ??0?$__crt_unique_heap_ptr@U__acrt_ptd@@U__crt_internal_free_policy@@@@QAE@QAU__acrt_ptd@@@Z 1004c9ac f i libucrt:per_thread_data.obj
 0001:0004b9bc       ??1?$__crt_unique_heap_ptr@U__acrt_ptd@@U__crt_internal_free_policy@@@@QAE@XZ 1004c9bc f i libucrt:per_thread_data.obj
 0001:0004b9ce       ??B?$__crt_unique_heap_ptr@U__acrt_ptd@@U__crt_internal_free_policy@@@@QBE_NXZ 1004c9ce f i libucrt:per_thread_data.obj
 0001:0004bb1c       ?dangerous_get_state_array@?$dual_state_global@PAU__crt_locale_data@@@__crt_state_management@@QAEPAPAU__crt_locale_data@@XZ 1004cb1c f i libucrt:per_thread_data.obj
 0001:0004bc12       ?detach@?$__crt_unique_heap_ptr@U__acrt_ptd@@U__crt_internal_free_policy@@@@QAEPAU__acrt_ptd@@XZ 1004cc12 f i libucrt:per_thread_data.obj
 0001:0004bc18       ?get@?$__crt_unique_heap_ptr@U__acrt_ptd@@U__crt_internal_free_policy@@@@QBEPAU__acrt_ptd@@XZ 1004cc18 f i libucrt:per_thread_data.obj
 0001:0004bdfd       ?is_valid@?$__crt_unique_heap_ptr@U__acrt_ptd@@U__crt_internal_free_policy@@@@QBE_NXZ 1004cdfd f i libucrt:per_thread_data.obj
 0001:0004be04       ?release@?$__crt_unique_heap_ptr@U__acrt_ptd@@U__crt_internal_free_policy@@@@QAEXXZ 1004ce04 f i libucrt:per_thread_data.obj
 0001:0004be78       ?value@?$dual_state_global@PAU__crt_locale_data@@@__crt_state_management@@QAEAAPAU__crt_locale_data@@XZ 1004ce78 f i libucrt:per_thread_data.obj
 0001:0004be7b       ___acrt_freeptd            1004ce7b f   libucrt:per_thread_data.obj
 0001:0004bea7       ___acrt_getptd             1004cea7 f   libucrt:per_thread_data.obj
 0001:0004bf62       ___acrt_getptd_head        1004cf62 f   libucrt:per_thread_data.obj
 0001:0004bff8       ___acrt_getptd_noexit      1004cff8 f   libucrt:per_thread_data.obj
 0001:0004c0a9       ___acrt_getptd_noexit_explicit 1004d0a9 f   libucrt:per_thread_data.obj
 0001:0004c14c       ___acrt_initialize_ptd     1004d14c f   libucrt:per_thread_data.obj
 0001:0004c178       ___acrt_uninitialize_ptd   1004d178 f   libucrt:per_thread_data.obj
 0001:0004c192       ___threadhandle            1004d192 f   libucrt:per_thread_data.obj
 0001:0004c198       ___threadid                1004d198 f   libucrt:per_thread_data.obj
 0001:0004c1ab       ??$?B$$A6GHPA_WKJ@Z@__crt_fast_encoded_nullptr_t@@QBEP6GHPA_WKJ@ZXZ 1004d1ab f i libucrt:winapi_thunks.obj
 0001:0004c253       ??$__crt_fast_decode_pointer@P6GHPA_WKJ@Z@@YAP6GHPA_WKJ@ZQ6GH0KJ@Z@Z 1004d253 f i libucrt:winapi_thunks.obj
 0001:0004c269       ??$__crt_fast_decode_pointer@PAX@@YAPAXQAX@Z 1004d269 f i libucrt:winapi_thunks.obj
 0001:0004c27f       ??$__crt_fast_encode_pointer@P6GHPA_WKJ@Z@@YAP6GHPA_WKJ@ZQ6GH0KJ@Z@Z 1004d27f f i libucrt:winapi_thunks.obj
 0001:0004c90f       _GetCurrentThreadEffectiveToken 1004d90f f i libucrt:winapi_thunks.obj
 0001:0004c913       ___acrt_AppPolicyGetProcessTerminationMethodInternal@4 1004d913 f   libucrt:winapi_thunks.obj
 0001:0004c953       ___acrt_AppPolicyGetShowDeveloperDiagnosticInternal@4 1004d953 f   libucrt:winapi_thunks.obj
 0001:0004c993       ___acrt_AppPolicyGetThreadInitializationTypeInternal@4 1004d993 f   libucrt:winapi_thunks.obj
 0001:0004c9d3       ___acrt_AppPolicyGetWindowingModelInternal@4 1004d9d3 f   libucrt:winapi_thunks.obj
 0001:0004ca13       ___acrt_AreFileApisANSI@0  1004da13 f   libucrt:winapi_thunks.obj
 0001:0004ca32       ___acrt_CompareStringEx@36 1004da32 f   libucrt:winapi_thunks.obj
 0001:0004ca8f       ___acrt_EnumSystemLocalesEx@16 1004da8f f   libucrt:winapi_thunks.obj
 0001:0004cae3       ___acrt_FlsAlloc@4         1004dae3 f   libucrt:winapi_thunks.obj
 0001:0004cb22       ___acrt_FlsFree@4          1004db22 f   libucrt:winapi_thunks.obj
 0001:0004cb61       ___acrt_FlsGetValue@4      1004db61 f   libucrt:winapi_thunks.obj
 0001:0004cba0       ___acrt_FlsSetValue@8      1004dba0 f   libucrt:winapi_thunks.obj
 0001:0004cbe2       ___acrt_GetDateFormatEx@28 1004dbe2 f   libucrt:winapi_thunks.obj
 0001:0004cc39       ___acrt_GetEnabledXStateFeatures@0 1004dc39 f   libucrt:winapi_thunks.obj
 0001:0004cc6d       ___acrt_GetLocaleInfoEx@16 1004dc6d f   libucrt:winapi_thunks.obj
 0001:0004ccac       ___acrt_GetSystemTimePreciseAsFileTime@4 1004dcac f   libucrt:winapi_thunks.obj
 0001:0004cceb       ___acrt_GetTimeFormatEx@24 1004dceb f   libucrt:winapi_thunks.obj
 0001:0004cd30       ___acrt_GetUserDefaultLocaleName@8 1004dd30 f   libucrt:winapi_thunks.obj
 0001:0004cd6c       ___acrt_GetXStateFeaturesMask@8 1004dd6c f   libucrt:winapi_thunks.obj
 0001:0004cdac       ___acrt_InitializeCriticalSectionEx@12 1004ddac f   libucrt:winapi_thunks.obj
 0001:0004cdf7       ___acrt_IsValidLocaleName@4 1004ddf7 f   libucrt:winapi_thunks.obj
 0001:0004ce2f       ___acrt_LCIDToLocaleName@16 1004de2f f   libucrt:winapi_thunks.obj
 0001:0004ce6e       ___acrt_LCMapStringEx@36   1004de6e f   libucrt:winapi_thunks.obj
 0001:0004cecb       ___acrt_LocaleNameToLCID@8 1004decb f   libucrt:winapi_thunks.obj
 0001:0004cefc       ___acrt_LocateXStateFeature@12 1004defc f   libucrt:winapi_thunks.obj
 0001:0004cf2b       ___acrt_MessageBoxA@16     1004df2b f   libucrt:winapi_thunks.obj
 0001:0004cf5d       ___acrt_MessageBoxW@16     1004df5d f   libucrt:winapi_thunks.obj
 0001:0004cf8f       ___acrt_RoInitialize@4     1004df8f f   libucrt:winapi_thunks.obj
 0001:0004cfca       ___acrt_RoUninitialize@0   1004dfca f   libucrt:winapi_thunks.obj
 0001:0004cff8       ___acrt_RtlGenRandom@8     1004dff8 f   libucrt:winapi_thunks.obj
 0001:0004d038       ___acrt_SetThreadStackGuarantee@4 1004e038 f   libucrt:winapi_thunks.obj
 0001:0004d073       ___acrt_can_show_message_box 1004e073 f   libucrt:winapi_thunks.obj
 0001:0004d09a       ___acrt_can_use_vista_locale_apis 1004e09a f   libucrt:winapi_thunks.obj
 0001:0004d0a5       ___acrt_can_use_xstate_apis 1004e0a5 f   libucrt:winapi_thunks.obj
 0001:0004d0b0       ___acrt_eagerly_load_locale_apis 1004e0b0 f   libucrt:winapi_thunks.obj
 0001:0004d0e7       ___acrt_get_parent_window  1004e0e7 f   libucrt:winapi_thunks.obj
 0001:0004d14f       ___acrt_initialize_winapi_thunks 1004e14f f   libucrt:winapi_thunks.obj
 0001:0004d163       ___acrt_is_interactive     1004e163 f   libucrt:winapi_thunks.obj
 0001:0004d202       ___acrt_uninitialize_winapi_thunks 1004e202 f   libucrt:winapi_thunks.obj
 0001:0004d238       ?value@?$dual_state_global@PAU__crt_multibyte_data@@@__crt_state_management@@QAEAAPAU__crt_multibyte_data@@XZ 1004e238 f i libucrt:locale_update.obj
 0001:0004d23b       ?value_explicit@?$dual_state_global@PAU__crt_locale_data@@@__crt_state_management@@QAEAAPAU__crt_locale_data@@I@Z 1004e23b f i libucrt:locale_update.obj
 0001:0004d24a       ?value_explicit@?$dual_state_global@PAU__crt_multibyte_data@@@__crt_state_management@@QAEAAPAU__crt_multibyte_data@@I@Z 1004e24a f i libucrt:locale_update.obj
 0001:0004d259       ___acrt_should_sync_with_global_locale 1004e259 f i libucrt:locale_update.obj
 0001:0004d275       ___acrt_update_locale_info 1004e275 f   libucrt:locale_update.obj
 0001:0004d2a2       ___acrt_update_locale_info_explicit 1004e2a2 f   libucrt:locale_update.obj
 0001:0004d2d3       ___acrt_update_multibyte_info 1004e2d3 f   libucrt:locale_update.obj
 0001:0004d300       ___acrt_update_multibyte_info_explicit 1004e300 f   libucrt:locale_update.obj
 0001:0004d331       ??$?RU__crt_lowio_handle_data@@@__crt_internal_free_policy@@QBEXQBU__crt_lowio_handle_data@@@Z 1004e331 f i libucrt:osfinfo.obj
 0001:0004d343       ??0?$__crt_unique_heap_ptr@U__crt_lowio_handle_data@@U__crt_internal_free_policy@@@@QAE@QAU__crt_lowio_handle_data@@@Z 1004e343 f i libucrt:osfinfo.obj
 0001:0004d353       ??1?$__crt_unique_heap_ptr@U__crt_lowio_handle_data@@U__crt_internal_free_policy@@@@QAE@XZ 1004e353 f i libucrt:osfinfo.obj
 0001:0004d365       ??B?$__crt_unique_heap_ptr@U__crt_lowio_handle_data@@U__crt_internal_free_policy@@@@QBE_NXZ 1004e365 f i libucrt:osfinfo.obj
 0001:0004d36c       ?detach@?$__crt_unique_heap_ptr@U__crt_lowio_handle_data@@U__crt_internal_free_policy@@@@QAEPAU__crt_lowio_handle_data@@XZ 1004e36c f i libucrt:osfinfo.obj
 0001:0004d372       ?get@?$__crt_unique_heap_ptr@U__crt_lowio_handle_data@@U__crt_internal_free_policy@@@@QBEPAU__crt_lowio_handle_data@@XZ 1004e372 f i libucrt:osfinfo.obj
 0001:0004d375       ?is_valid@?$__crt_unique_heap_ptr@U__crt_lowio_handle_data@@U__crt_internal_free_policy@@@@QBE_NXZ 1004e375 f i libucrt:osfinfo.obj
 0001:0004d37c       ?release@?$__crt_unique_heap_ptr@U__crt_lowio_handle_data@@U__crt_internal_free_policy@@@@QAEXXZ 1004e37c f i libucrt:osfinfo.obj
 0001:0004d38e       ___acrt_lowio_create_handle_array 1004e38e f   libucrt:osfinfo.obj
 0001:0004d409       ___acrt_lowio_destroy_handle_array 1004e409 f   libucrt:osfinfo.obj
 0001:0004d43e       ___acrt_lowio_ensure_fh_exists 1004e43e f   libucrt:osfinfo.obj
 0001:0004d4dc       ___acrt_lowio_lock_fh      1004e4dc f   libucrt:osfinfo.obj
 0001:0004d4ff       ___acrt_lowio_set_os_handle 1004e4ff f   libucrt:osfinfo.obj
 0001:0004d591       ___acrt_lowio_unlock_fh    1004e591 f   libucrt:osfinfo.obj
 0001:0004d5b4       __alloc_osfhnd             1004e5b4 f   libucrt:osfinfo.obj
 0001:0004d6c7       __free_osfhnd              1004e6c7 f   libucrt:osfinfo.obj
 0001:0004d758       __get_osfhandle            1004e758 f   libucrt:osfinfo.obj
 0001:0004d7c2       __open_osfhandle           1004e7c2 f   libucrt:osfinfo.obj
 0001:0004dc25       ?__crt_time_is_day_valid@@YA_NHHH@Z 1004ec25 f i libucrt:loctotime.obj
 0001:0004dc68       ___loctotime32_t           1004ec68 f   libucrt:loctotime.obj
 0001:0004dc73       ___loctotime64_t           1004ec73 f   libucrt:loctotime.obj
 0001:0004dc81       ??$?RU__crt_locale_data@@@__crt_internal_free_policy@@QBEXQBU__crt_locale_data@@@Z 1004ec81 f i libucrt:wsetlocale.obj
 0001:0004dc93       ??$?RU__crt_locale_pointers@@@__crt_internal_free_policy@@QBEXQBU__crt_locale_pointers@@@Z 1004ec93 f i libucrt:wsetlocale.obj
 0001:0004dca5       ??$?RU__crt_multibyte_data@@@__crt_internal_free_policy@@QBEXQBU__crt_multibyte_data@@@Z 1004eca5 f i libucrt:wsetlocale.obj
 0001:0004e04e       ??0?$__crt_unique_heap_ptr@U__crt_locale_data@@U__crt_internal_free_policy@@@@QAE@QAU__crt_locale_data@@@Z 1004f04e f i libucrt:wsetlocale.obj
 0001:0004e05e       ??0?$__crt_unique_heap_ptr@U__crt_locale_pointers@@U__crt_internal_free_policy@@@@QAE@QAU__crt_locale_pointers@@@Z 1004f05e f i libucrt:wsetlocale.obj
 0001:0004e06e       ??0?$__crt_unique_heap_ptr@U__crt_multibyte_data@@U__crt_internal_free_policy@@@@QAE@QAU__crt_multibyte_data@@@Z 1004f06e f i libucrt:wsetlocale.obj
 0001:0004e07e       ??0_expandlocale_locale_name_cache@@QAE@QA_WIQAU__crt_qualified_locale_data@@@Z 1004f07e f i libucrt:wsetlocale.obj
 0001:0004e0c8       ??1?$__crt_unique_heap_ptr@U__crt_locale_data@@U__crt_internal_free_policy@@@@QAE@XZ 1004f0c8 f i libucrt:wsetlocale.obj
 0001:0004e0da       ??1?$__crt_unique_heap_ptr@U__crt_locale_pointers@@U__crt_internal_free_policy@@@@QAE@XZ 1004f0da f i libucrt:wsetlocale.obj
 0001:0004e0ec       ??1?$__crt_unique_heap_ptr@U__crt_multibyte_data@@U__crt_internal_free_policy@@@@QAE@XZ 1004f0ec f i libucrt:wsetlocale.obj
 0001:0004e0fe       ??1_expandlocale_locale_name_cache@@QAE@XZ 1004f0fe f i libucrt:wsetlocale.obj
 0001:0004e12e       ??B?$__crt_unique_heap_ptr@U__crt_locale_data@@U__crt_internal_free_policy@@@@QBE_NXZ 1004f12e f i libucrt:wsetlocale.obj
 0001:0004e135       ??B?$__crt_unique_heap_ptr@U__crt_locale_pointers@@U__crt_internal_free_policy@@@@QBE_NXZ 1004f135 f i libucrt:wsetlocale.obj
 0001:0004e13c       ??B?$__crt_unique_heap_ptr@U__crt_multibyte_data@@U__crt_internal_free_policy@@@@QBE_NXZ 1004f13c f i libucrt:wsetlocale.obj
 0001:0004e35c       ?commit_locale_name@_expandlocale_locale_name_cache@@QAEXQB_WI@Z 1004f35c f i libucrt:wsetlocale.obj
 0001:0004e3a0       ?commit_locale_name_cache_already_updated@_expandlocale_locale_name_cache@@QAEXQB_WI@Z 1004f3a0 f i libucrt:wsetlocale.obj
 0001:0004e3d5       ?detach@?$__crt_unique_heap_ptr@U__crt_locale_data@@U__crt_internal_free_policy@@@@QAEPAU__crt_locale_data@@XZ 1004f3d5 f i libucrt:wsetlocale.obj
 0001:0004e3db       ?detach@?$__crt_unique_heap_ptr@U__crt_locale_pointers@@U__crt_internal_free_policy@@@@QAEPAU__crt_locale_pointers@@XZ 1004f3db f i libucrt:wsetlocale.obj
 0001:0004e3e1       ?detach@?$__crt_unique_heap_ptr@U__crt_multibyte_data@@U__crt_internal_free_policy@@@@QAEPAU__crt_multibyte_data@@XZ 1004f3e1 f i libucrt:wsetlocale.obj
 0001:0004e3e7       ?get@?$__crt_unique_heap_ptr@U__crt_locale_data@@U__crt_internal_free_policy@@@@QBEPAU__crt_locale_data@@XZ 1004f3e7 f i libucrt:wsetlocale.obj
 0001:0004e3ea       ?get@?$__crt_unique_heap_ptr@U__crt_locale_pointers@@U__crt_internal_free_policy@@@@QBEPAU__crt_locale_pointers@@XZ 1004f3ea f i libucrt:wsetlocale.obj
 0001:0004e3ed       ?get@?$__crt_unique_heap_ptr@U__crt_multibyte_data@@U__crt_internal_free_policy@@@@QBEPAU__crt_multibyte_data@@XZ 1004f3ed f i libucrt:wsetlocale.obj
 0001:0004e3f0       ?is_valid@?$__crt_unique_heap_ptr@U__crt_locale_data@@U__crt_internal_free_policy@@@@QBE_NXZ 1004f3f0 f i libucrt:wsetlocale.obj
 0001:0004e3f7       ?is_valid@?$__crt_unique_heap_ptr@U__crt_locale_pointers@@U__crt_internal_free_policy@@@@QBE_NXZ 1004f3f7 f i libucrt:wsetlocale.obj
 0001:0004e3fe       ?is_valid@?$__crt_unique_heap_ptr@U__crt_multibyte_data@@U__crt_internal_free_policy@@@@QBE_NXZ 1004f3fe f i libucrt:wsetlocale.obj
 0001:0004e405       ?release@?$__crt_unique_heap_ptr@U__crt_locale_data@@U__crt_internal_free_policy@@@@QAEXXZ 1004f405 f i libucrt:wsetlocale.obj
 0001:0004e417       ?release@?$__crt_unique_heap_ptr@U__crt_locale_pointers@@U__crt_internal_free_policy@@@@QAEXXZ 1004f417 f i libucrt:wsetlocale.obj
 0001:0004e429       ?release@?$__crt_unique_heap_ptr@U__crt_multibyte_data@@U__crt_internal_free_policy@@@@QAEXXZ 1004f429 f i libucrt:wsetlocale.obj
 0001:0004e43b       ___acrt_copy_locale_name   1004f43b f   libucrt:wsetlocale.obj
 0001:0004e49b       ___acrt_set_locale_changed 1004f49b f   libucrt:wsetlocale.obj
 0001:0004e4a6       ___acrt_uninitialize_locale 1004f4a6 f   libucrt:wsetlocale.obj
 0001:0004e4cd       ___lc_lctowcs              1004f4cd f   libucrt:wsetlocale.obj
 0001:0004e53d       ___lc_wcstolc              1004f53d f   libucrt:wsetlocale.obj
 0001:0004e68d       __configthreadlocale       1004f68d f   libucrt:wsetlocale.obj
 0001:0004e71e       __create_locale            1004f71e f   libucrt:wsetlocale.obj
 0001:0004eb48       __free_locale              1004fb48 f   libucrt:wsetlocale.obj
 0001:0004ec0a       __get_current_locale       1004fc0a f   libucrt:wsetlocale.obj
 0001:0004eca5       __wcreate_locale           1004fca5 f   libucrt:wsetlocale.obj
 0001:0004edac       __wcscats                  1004fdac f   libucrt:wsetlocale.obj
 0001:0004eded       __wsetlocale               1004fded f   libucrt:wsetlocale.obj
 0001:0004fb4c       ___p___mb_cur_max          10050b4c f   libucrt:nlsdata.obj
 0001:0004fcf9       ___acrt_initialize_lowio   10050cf9 f   libucrt:ioinit.obj
 0001:0004fd59       ___acrt_uninitialize_lowio 10050d59 f   libucrt:ioinit.obj
 0001:0004fd85       ??$parse_integer_from_string@JDPAPAD@__crt_strtox@@YAJQBDQAPADHQAU__crt_locale_pointers@@@Z 10050d85 f i libucrt:strtox.obj
 0001:0004fdcc       ??$parse_integer_from_string@J_WPAPA_W@__crt_strtox@@YAJQB_WQAPA_WHQAU__crt_locale_pointers@@@Z 10050dcc f i libucrt:strtox.obj
 0001:0004fe13       ??$parse_integer_from_string@KDPAPAD@__crt_strtox@@YAKQBDQAPADHQAU__crt_locale_pointers@@@Z 10050e13 f i libucrt:strtox.obj
 0001:0004fe5a       ??$parse_integer_from_string@K_WPAPA_W@__crt_strtox@@YAKQB_WQAPA_WHQAU__crt_locale_pointers@@@Z 10050e5a f i libucrt:strtox.obj
 0001:0004fea1       ??$parse_integer_from_string@_JDPAPAD@__crt_strtox@@YA_JQBDQAPADHQAU__crt_locale_pointers@@@Z 10050ea1 f i libucrt:strtox.obj
 0001:0004feee       ??$parse_integer_from_string@_J_WPAPA_W@__crt_strtox@@YA_JQB_WQAPA_WHQAU__crt_locale_pointers@@@Z 10050eee f i libucrt:strtox.obj
 0001:0004ff3b       ??$parse_integer_from_string@_KDPAPAD@__crt_strtox@@YA_KQBDQAPADHQAU__crt_locale_pointers@@@Z 10050f3b f i libucrt:strtox.obj
 0001:0004ff88       ??$parse_integer_from_string@_K_WPAPA_W@__crt_strtox@@YA_KQB_WQAPA_WHQAU__crt_locale_pointers@@@Z 10050f88 f i libucrt:strtox.obj
 0001:0004ffd5       __strtoi64                 10050fd5 f   libucrt:strtox.obj
 0001:00050021       __strtoi64_l               10051021 f   libucrt:strtox.obj
 0001:0005006e       __strtoimax_l              1005106e f   libucrt:strtox.obj
 0001:000500bb       __strtol_l                 100510bb f   libucrt:strtox.obj
 0001:00050102       __strtoll_l                10051102 f   libucrt:strtox.obj
 0001:0005014f       __strtoui64                1005114f f   libucrt:strtox.obj
 0001:0005019b       __strtoui64_l              1005119b f   libucrt:strtox.obj
 0001:000501e8       __strtoul_l                100511e8 f   libucrt:strtox.obj
 0001:0005022f       __strtoull_l               1005122f f   libucrt:strtox.obj
 0001:0005027c       __strtoumax_l              1005127c f   libucrt:strtox.obj
 0001:000502c9       __wcstoi64                 100512c9 f   libucrt:strtox.obj
 0001:00050315       __wcstoi64_l               10051315 f   libucrt:strtox.obj
 0001:00050362       __wcstoimax_l              10051362 f   libucrt:strtox.obj
 0001:000503af       __wcstol_l                 100513af f   libucrt:strtox.obj
 0001:000503f6       __wcstoll_l                100513f6 f   libucrt:strtox.obj
 0001:00050443       __wcstoui64                10051443 f   libucrt:strtox.obj
 0001:0005048f       __wcstoui64_l              1005148f f   libucrt:strtox.obj
 0001:000504dc       __wcstoul_l                100514dc f   libucrt:strtox.obj
 0001:00050523       __wcstoull_l               10051523 f   libucrt:strtox.obj
 0001:00050570       __wcstoumax_l              10051570 f   libucrt:strtox.obj
 0001:000505bd       _strtoimax                 100515bd f   libucrt:strtox.obj
 0001:00050609       _strtol                    10051609 f   libucrt:strtox.obj
 0001:0005064f       _strtoll                   1005164f f   libucrt:strtox.obj
 0001:0005069b       _strtoul                   1005169b f   libucrt:strtox.obj
 0001:000506e1       _strtoull                  100516e1 f   libucrt:strtox.obj
 0001:0005072d       _strtoumax                 1005172d f   libucrt:strtox.obj
 0001:00050779       _wcstoimax                 10051779 f   libucrt:strtox.obj
 0001:000507c5       _wcstol                    100517c5 f   libucrt:strtox.obj
 0001:0005080b       _wcstoll                   1005180b f   libucrt:strtox.obj
 0001:00050857       _wcstoul                   10051857 f   libucrt:strtox.obj
 0001:0005089d       _wcstoull                  1005189d f   libucrt:strtox.obj
 0001:000508e9       _wcstoumax                 100518e9 f   libucrt:strtox.obj
 0001:00050999       _wcscpy_s                  10051999 f   libucrt:wcscpy_s.obj
 0001:00050acb       _wcsncpy_s                 10051acb f   libucrt:wcsncpy_s.obj
 0001:00050b3b       ___acrt_WideCharToMultiByte 10051b3b f   libucrt:widechartomultibyte.obj
 0001:00050bf2       ___acrt_initialize_locks   10051bf2 f   libucrt:locks.obj
 0001:00050c33       ___acrt_lock               10051c33 f   libucrt:locks.obj
 0001:00050c4a       ___acrt_uninitialize_locks 10051c4a f   libucrt:locks.obj
 0001:00050c7b       ___acrt_unlock             10051c7b f   libucrt:locks.obj
 0001:00050c92       __lock_locales             10051c92 f   libucrt:locks.obj
 0001:00050ca0       __unlock_locales           10051ca0 f   libucrt:locks.obj
 0001:00050ca9       ??$?RG@__crt_internal_free_policy@@QBEXQBG@Z 10051ca9 f i libucrt:initctype.obj
 0001:00050cbb       ??$?RJ@__crt_internal_free_policy@@QBEXQBJ@Z 10051cbb f i libucrt:initctype.obj
 0001:00050ccd       ??0?$__crt_unique_heap_ptr@GU__crt_internal_free_policy@@@@QAE@QAG@Z 10051ccd f i libucrt:initctype.obj
 0001:00050cdd       ??0?$__crt_unique_heap_ptr@JU__crt_internal_free_policy@@@@QAE@QAJ@Z 10051cdd f i libucrt:initctype.obj
 0001:00050ced       ??1?$__crt_unique_heap_ptr@GU__crt_internal_free_policy@@@@QAE@XZ 10051ced f i libucrt:initctype.obj
 0001:00050cff       ??1?$__crt_unique_heap_ptr@JU__crt_internal_free_policy@@@@QAE@XZ 10051cff f i libucrt:initctype.obj
 0001:00050d11       ?detach@?$__crt_unique_heap_ptr@GU__crt_internal_free_policy@@@@QAEPAGXZ 10051d11 f i libucrt:initctype.obj
 0001:00050d17       ?detach@?$__crt_unique_heap_ptr@JU__crt_internal_free_policy@@@@QAEPAJXZ 10051d17 f i libucrt:initctype.obj
 0001:00050d1d       ?release@?$__crt_unique_heap_ptr@GU__crt_internal_free_policy@@@@QAEXXZ 10051d1d f i libucrt:initctype.obj
 0001:00050d2f       ?release@?$__crt_unique_heap_ptr@JU__crt_internal_free_policy@@@@QAEXXZ 10051d2f f i libucrt:initctype.obj
 0001:00050d41       ____lc_codepage_func       10051d41 f   libucrt:initctype.obj
 0001:00050d66       ____lc_collate_cp_func     10051d66 f   libucrt:initctype.obj
 0001:00050d8b       ____lc_locale_name_func    10051d8b f   libucrt:initctype.obj
 0001:00050db2       ____mb_cur_max_func        10051db2 f   libucrt:initctype.obj
 0001:00050dd7       ____mb_cur_max_l_func      10051dd7 f   libucrt:initctype.obj
 0001:00050df0       ___acrt_locale_initialize_ctype 10051df0 f   libucrt:initctype.obj
 0001:000513f4       ___acrt_get_begin_thread_init_policy 100523f4 f   libucrt:win_policies.obj
 0001:00051438       ___acrt_get_developer_information_policy 10052438 f   libucrt:win_policies.obj
 0001:0005147c       ___acrt_get_process_end_policy 1005247c f   libucrt:win_policies.obj
 0001:000514ad       ___acrt_get_windowing_model_policy 100524ad f   libucrt:win_policies.obj
 0001:00051d04       ??1?$__crt_simd_cleanup_guard@$00@@QAE@XZ 10052d04 f i libucrt:strnlen.obj
 0001:00051d08       ??1?$__crt_simd_cleanup_guard@$0A@@@QAE@XZ 10052d08 f i libucrt:strnlen.obj
 0001:00051d0b       ?compare_equals@?$__crt_simd_traits@$00E@@SA?AT__m256i@@T2@0@Z 10052d0b f i libucrt:strnlen.obj
 0001:00051d10       ?compare_equals@?$__crt_simd_traits@$00G@@SA?AT__m256i@@T2@0@Z 10052d10 f i libucrt:strnlen.obj
 0001:00051d15       ?compare_equals@?$__crt_simd_traits@$0A@E@@SA?AT__m128i@@T2@0@Z 10052d15 f i libucrt:strnlen.obj
 0001:00051d1a       ?compare_equals@?$__crt_simd_traits@$0A@G@@SA?AT__m128i@@T2@0@Z 10052d1a f i libucrt:strnlen.obj
 0001:00051d1f       ?compute_byte_mask@?$__crt_simd_pack_traits@$00@@SAHT__m256i@@@Z 10052d1f f i libucrt:strnlen.obj
 0001:00051d24       ?compute_byte_mask@?$__crt_simd_pack_traits@$0A@@@SAHT__m128i@@@Z 10052d24 f i libucrt:strnlen.obj
 0001:00051d29       ?get_zero_pack@?$__crt_simd_pack_traits@$00@@SA?AT__m256i@@XZ 10052d29 f i libucrt:strnlen.obj
 0001:00051d2e       ?get_zero_pack@?$__crt_simd_pack_traits@$0A@@@SA?AT__m128i@@XZ 10052d2e f i libucrt:strnlen.obj
 0001:00051d32       _strnlen                   10052d32 f   libucrt:strnlen.obj
 0001:00051e54       _wcslen                    10052e54 f   libucrt:strnlen.obj
 0001:00051f7c       _wcsnlen                   10052f7c f   libucrt:strnlen.obj
 0001:0005212c       __wcsnicoll                1005312c f   libucrt:wcsnicol.obj
 0001:00052199       __wcsnicoll_l              10053199 f   libucrt:wcsnicol.obj
 0001:00052259       __strnicoll                10053259 f   libucrt:strnicol.obj
 0001:00052282       __strnicoll_l              10053282 f   libucrt:strnicol.obj
 0001:0005234a       __calloc_base              1005334a f   libucrt:calloc_base.obj
 0001:000523a7       __fcloseall                100533a7 f   libucrt:closeall.obj
 0001:00052452       ?has_crt_buffer@__crt_stdio_stream@@QBE_NXZ 10053452 f i libucrt:_freebuf.obj
 0001:0005245e       ___acrt_stdio_free_buffer_nolock 1005345e f   libucrt:_freebuf.obj
 0001:0005249e       ??$?RU__crt_stdio_stream_data@@@__crt_internal_free_policy@@QBEXQBU__crt_stdio_stream_data@@@Z 1005349e f i libucrt:stream.obj
 0001:000524b0       ??0?$__crt_unique_heap_ptr@U__crt_stdio_stream_data@@U__crt_internal_free_policy@@@@QAE@QAU__crt_stdio_stream_data@@@Z 100534b0 f i libucrt:stream.obj
 0001:000524c0       ??0__crt_stdio_stream@@QAE@XZ 100534c0 f i libucrt:stream.obj
 0001:000524c6       ??1?$__crt_unique_heap_ptr@U__crt_stdio_stream_data@@U__crt_internal_free_policy@@@@QAE@XZ 100534c6 f i libucrt:stream.obj
 0001:000524d8       ?__acrt_stdio_allocate_stream@@YA?AV__crt_stdio_stream@@XZ 100534d8 f   libucrt:stream.obj
 0001:00052541       ?__acrt_stdio_free_stream@@YAXV__crt_stdio_stream@@@Z 10053541 f   libucrt:stream.obj
 0001:0005257c       ?deallocate@__crt_stdio_stream@@QAEXXZ 1005357c f i libucrt:stream.obj
 0001:00052586       ?detach@?$__crt_unique_heap_ptr@U__crt_stdio_stream_data@@U__crt_internal_free_policy@@@@QAEPAU__crt_stdio_stream_data@@XZ 10053586 f i libucrt:stream.obj
 0001:0005264e       ?lock@__crt_stdio_stream@@QBEXXZ 1005364e f i libucrt:stream.obj
 0001:00052657       ?release@?$__crt_unique_heap_ptr@U__crt_stdio_stream_data@@U__crt_internal_free_policy@@@@QAEXXZ 10053657 f i libucrt:stream.obj
 0001:00052669       ?try_allocate@__crt_stdio_stream@@QAE_NXZ 10053669 f i libucrt:stream.obj
 0001:00052689       ??$__acrt_stdio_parse_mode@D@@YA?AU__acrt_stdio_stream_mode@@QBD@Z 10053689 f i libucrt:openfile.obj
 0001:000528b3       ??$__acrt_stdio_parse_mode@_W@@YA?AU__acrt_stdio_stream_mode@@QB_W@Z 100538b3 f i libucrt:openfile.obj
 0001:00052c24       ??$tcsncmp@AAPBDAAY02$$CBDI@?$__crt_char_traits@D@@SAHAAPBDAAY02$$CBD$$QAI@Z 10053c24 f i libucrt:openfile.obj
 0001:00052c40       ??$tcsncmp@AAPB_WAAY02$$CB_WI@?$__crt_char_traits@_W@@SAHAAPB_WAAY02$$CB_W$$QAI@Z 10053c40 f i libucrt:openfile.obj
 0001:00052c5c       ??$tcsnicmp@AAPBDAAY04$$CBDI@?$__crt_char_traits@D@@SAHAAPBDAAY04$$CBD$$QAI@Z 10053c5c f i libucrt:openfile.obj
 0001:00052c78       ??$tcsnicmp@AAPBDAAY06$$CBDI@?$__crt_char_traits@D@@SAHAAPBDAAY06$$CBD$$QAI@Z 10053c78 f i libucrt:openfile.obj
 0001:00052c94       ??$tcsnicmp@AAPBDAAY07$$CBDI@?$__crt_char_traits@D@@SAHAAPBDAAY07$$CBD$$QAI@Z 10053c94 f i libucrt:openfile.obj
 0001:00052cb0       ??$tcsnicmp@AAPB_WAAY04$$CB_WI@?$__crt_char_traits@_W@@SAHAAPB_WAAY04$$CB_W$$QAI@Z 10053cb0 f i libucrt:openfile.obj
 0001:00052ccc       ??$tcsnicmp@AAPB_WAAY06$$CB_WI@?$__crt_char_traits@_W@@SAHAAPB_WAAY06$$CB_W$$QAI@Z 10053ccc f i libucrt:openfile.obj
 0001:00052ce8       ??$tcsnicmp@AAPB_WAAY07$$CB_WI@?$__crt_char_traits@_W@@SAHAAPB_WAAY07$$CB_W$$QAI@Z 10053ce8 f i libucrt:openfile.obj
 0001:00052d04       ??$tsopen_s@PAHABQBDABHABHH@?$__crt_char_traits@D@@SAH$$QAPAHABQBDABH2$$QAH@Z 10053d04 f i libucrt:openfile.obj
 0001:00052d2c       ??$tsopen_s@PAHABQB_WABHABHH@?$__crt_char_traits@_W@@SAH$$QAPAHABQB_WABH2$$QAH@Z 10053d2c f i libucrt:openfile.obj
 0001:00052d54       ?__acrt_stdio_parse_mode_D@@YA_NAAU__acrt_stdio_stream_mode@@@Z 10053d54 f i libucrt:openfile.obj
 0001:00052d6f       ?__acrt_stdio_parse_mode_N@@YA_NAAU__acrt_stdio_stream_mode@@@Z 10053d6f f i libucrt:openfile.obj
 0001:00052d81       ?__acrt_stdio_parse_mode_R@@YA_NAAU__acrt_stdio_stream_mode@@AA_N@Z 10053d81 f i libucrt:openfile.obj
 0001:00052d9f       ?__acrt_stdio_parse_mode_S@@YA_NAAU__acrt_stdio_stream_mode@@AA_N@Z 10053d9f f i libucrt:openfile.obj
 0001:00052dbd       ?__acrt_stdio_parse_mode_T@@YA_NAAU__acrt_stdio_stream_mode@@@Z 10053dbd f i libucrt:openfile.obj
 0001:00052ddc       ?__acrt_stdio_parse_mode_b@@YA_NAAU__acrt_stdio_stream_mode@@@Z 10053ddc f i libucrt:openfile.obj
 0001:00052dfc       ?__acrt_stdio_parse_mode_c@@YA_NAAU__acrt_stdio_stream_mode@@AA_N@Z 10053dfc f i libucrt:openfile.obj
 0001:00052e1e       ?__acrt_stdio_parse_mode_n@@YA_NAAU__acrt_stdio_stream_mode@@AA_N@Z 10053e1e f i libucrt:openfile.obj
 0001:00052e40       ?__acrt_stdio_parse_mode_plus@@YA_NAAU__acrt_stdio_stream_mode@@AA_N@Z 10053e40 f i libucrt:openfile.obj
 0001:00052e76       ?__acrt_stdio_parse_mode_t@@YA_NAAU__acrt_stdio_stream_mode@@@Z 10053e76 f i libucrt:openfile.obj
 0001:00052e96       ?__acrt_stdio_parse_mode_x@@YA_NAAU__acrt_stdio_stream_mode@@@Z 10053e96 f i libucrt:openfile.obj
 0001:00052eb6       __openfile                 10053eb6 f   libucrt:openfile.obj
 0001:00052ec1       __wopenfile                10053ec1 f   libucrt:openfile.obj
 0001:00052ecc       ?__acrt_fp_classify@@YA?AW4__acrt_fp_class@@ABN@Z 10053ecc f i libucrt:cvt.obj
 0001:00052f2e       ?__acrt_fp_is_negative@@YA_NABN@Z 10053f2e f i libucrt:cvt.obj
 0001:000538ae       ?strrchr@@YAPADQADH@Z      100548ae f i libucrt:cvt.obj
 0001:000538b9       ___acrt_fp_format          100548b9 f   libucrt:cvt.obj
 0001:00053a3a       ?value_or@?$cached@H@__crt_cached_ptd_host@@QBEHH@Z 10054a3a f i libucrt:wctomb.obj
 0001:00053a50       __wctomb_internal          10054a50 f   libucrt:wctomb.obj
 0001:00053bba       __wctomb_l                 10054bba f   libucrt:wctomb.obj
 0001:00053c15       __wctomb_s_l               10054c15 f   libucrt:wctomb.obj
 0001:00053c50       _wctomb                    10054c50 f   libucrt:wctomb.obj
 0001:00053c9c       _wctomb_s                  10054c9c f   libucrt:wctomb.obj
 0001:00053cd6       __mbtowc_internal          10054cd6 f   libucrt:mbtowc.obj
 0001:00053e09       __mbtowc_l                 10054e09 f   libucrt:mbtowc.obj
 0001:00053e41       _mbtowc                    10054e41 f   libucrt:mbtowc.obj
 0001:00053e78       ?lowio_handle@__crt_stdio_stream@@QBEHXZ 10054e78 f i libucrt:fileno.obj
 0001:00053e7f       __fileno                   10054e7f f   libucrt:fileno.obj
 0001:00053ea6       __get_printf_count_output  10054ea6 f   libucrt:printf_count_output.obj
 0001:00053ebb       __set_printf_count_output  10054ebb f   libucrt:printf_count_output.obj
 0001:00053fa9       __fputwc_nolock            10054fa9 f   libucrt:fputwc.obj
 0001:00053fdf       __fputwc_nolock_internal   10054fdf f   libucrt:fputwc.obj
 0001:00054117       __fputwchar                10055117 f   libucrt:fputwc.obj
 0001:00054131       __putwc_nolock             10055131 f   libucrt:fputwc.obj
 0001:0005413c       _fputwc                    1005513c f   libucrt:fputwc.obj
 0001:00054172       _putwc                     10055172 f   libucrt:fputwc.obj
 0001:0005417d       _putwchar                  1005517d f   libucrt:fputwc.obj
 0001:000542b5       __fputc_nolock             100552b5 f   libucrt:fputc.obj
 0001:000542e9       __fputc_nolock_internal    100552e9 f   libucrt:fputc.obj
 0001:00054316       __fputchar                 10055316 f   libucrt:fputc.obj
 0001:00054330       __putc_nolock              10055330 f   libucrt:fputc.obj
 0001:0005433b       _fputc                     1005533b f   libucrt:fputc.obj
 0001:0005436f       _putc                      1005536f f   libucrt:fputc.obj
 0001:0005437a       _putchar                   1005537a f   libucrt:fputc.obj
 0001:00054385       ?has_temporary_buffer@__crt_stdio_stream@@QBE_NXZ 10055385 f i libucrt:_sftbuf.obj
 0001:00054391       ___acrt_should_use_temporary_buffer 10055391 f   libucrt:_sftbuf.obj
 0001:000543cc       ___acrt_stdio_begin_temporary_buffering_nolock 100553cc f   libucrt:_sftbuf.obj
 0001:00054478       ___acrt_stdio_end_temporary_buffering_nolock 10055478 f   libucrt:_sftbuf.obj
 0001:000544f4       __expand                   100554f4 f   libucrt:expand.obj
 0001:000544ff       __expand_base              100554ff f   libucrt:expand.obj
 0001:000545b7       __msize                    100555b7 f   libucrt:msize.obj
 0001:000545c2       __msize_base               100555c2 f   libucrt:msize.obj
 0001:000545f5       ___sys_errlist             100555f5 f   libucrt:syserr.obj
 0001:000545fb       ___sys_nerr                100555fb f   libucrt:syserr.obj
 0001:00054610       __CIpow                    10055610 f   libucrt:pow_impl.obj
 0001:0005464b       __CIpow_default            1005564b f   libucrt:pow_impl.obj
 0001:00054664       __pow_default              10055664     libucrt:pow_impl.obj
 0001:00054860       __CIexp                    10055860 f   libucrt:87ctran.obj
 0001:0005489b       __exp_default              1005589b f   libucrt:87ctran.obj
 0001:000548a5       __CIexp_default            100558a5 f   libucrt:87ctran.obj
 0001:000548b0       __fFSINH                   100558b0 f   libucrt:87trigh.obj
 0001:000548d0       __fFTANH                   100558d0 f   libucrt:87trigh.obj
 0001:00054920       __fFCOSH                   10055920 f   libucrt:87trigh.obj
 0001:00054950       __rtforsnhinf              10055950 f   libucrt:87trigh.obj
 0001:00054960       __rtforcshinf              10055960 f   libucrt:87trigh.obj
 0001:00054980       __rtfortnhinf              10055980 f   libucrt:87trigh.obj
 0001:000549e0       __cintrindisp2             100559e0 f   libucrt:87cdisp.obj
 0001:00054a30       __cintrindisp1             10055a30 f   libucrt:87cdisp.obj
 0001:00054a79       __ctrandisp2               10055a79 f   libucrt:87cdisp.obj
 0001:00054c08       __ctrandisp1               10055c08 f   libucrt:87cdisp.obj
 0001:00054c3b       __fload                    10055c3b f   libucrt:87cdisp.obj
 0001:00054c80       __CIlog                    10055c80 f   libucrt:log_impl.obj
 0001:00054cbb       __CIlog_default            10055cbb f   libucrt:log_impl.obj
 0001:00054ccf       __log_default              10055ccf     libucrt:log_impl.obj
 0001:00054d90       ___acrt_initialize_sse2    10055d90 f   libucrt:mathfcns.obj
 0001:00054da0       __set_SSE2_enable          10055da0 f   libucrt:mathfcns.obj
 0001:00054dc1       __ceil_default             10055dc1 f   libucrt:ceil.obj
 0001:00054fd9       __commit                   10055fd9 f   libucrt:commit.obj
 0001:00055060       __CIlog10                  10056060 f   libucrt:log10_impl.obj
 0001:0005509b       __CIlog10_default          1005609b f   libucrt:log10_impl.obj
 0001:000550af       __log10_default            100560af     libucrt:log10_impl.obj
 0001:0005531d       __close                    1005631d f   libucrt:close.obj
 0001:0005534d       __close_internal           1005634d f   libucrt:close.obj
 0001:000553f0       __close_nolock             100563f0 f   libucrt:close.obj
 0001:00055420       __close_nolock_internal    10056420 f   libucrt:close.obj
 0001:000559ce       __read                     100569ce f   libucrt:read.obj
 0001:00055ae2       __read_nolock              10056ae2 f   libucrt:read.obj
 0001:000562a1       ___acrt_stdio_refill_and_read_narrow_nolock 100572a1 f   libucrt:_filbuf.obj
 0001:000562ac       ___acrt_stdio_refill_and_read_wide_nolock 100572ac f   libucrt:_filbuf.obj
 0001:000566d2       ___acrt_stdio_flush_and_write_narrow_nolock 100576d2 f   libucrt:_flsbuf.obj
 0001:000566dd       ___acrt_stdio_flush_and_write_wide_nolock 100576dd f   libucrt:_flsbuf.obj
 0001:000566e8       ___acrt_strtok_s_novalidation 100576e8 f   libucrt:strtok_s.obj
 0001:000567d4       _strtok_s                  100577d4 f   libucrt:strtok_s.obj
 0001:00056820       __CIatan                   10057820 f   libucrt:atan_impl.obj
 0001:0005685b       __CIatan_default           1005785b f   libucrt:atan_impl.obj
 0001:0005686f       __atan_default             1005786f     libucrt:atan_impl.obj
 0001:000568fa       __floor_default            100578fa f   libucrt:floor.obj
 0001:000569af       ??$__crt_fast_decode_pointer@P6AHPAU_exception@@@Z@@YAP6AHPAU_exception@@@ZQ6AH0@Z@Z 100579af f i libucrt:matherr.obj
 0001:000569c5       ??$__crt_fast_encode_pointer@P6AHPAU_exception@@@Z@@YAP6AHPAU_exception@@@ZQ6AH0@Z@Z 100579c5 f i libucrt:matherr.obj
 0001:000569e4       ?initialize@?$dual_state_global@P6AHPAU_exception@@@Z@__crt_state_management@@QAEXQ6AHPAU_exception@@@Z@Z 100579e4 f i libucrt:matherr.obj
 0001:00056a00       ?value@?$dual_state_global@P6AHPAU_exception@@@Z@__crt_state_management@@QAEAAP6AHPAU_exception@@@ZXZ 10057a00 f i libucrt:matherr.obj
 0001:00056a03       ___acrt_has_user_matherr   10057a03 f   libucrt:matherr.obj
 0001:00056a1b       ___acrt_initialize_user_matherr 10057a1b f   libucrt:matherr.obj
 0001:00056a2a       ___acrt_invoke_user_matherr 10057a2a f   libucrt:matherr.obj
 0001:00056a5c       ___setusermatherr          10057a5c f   libucrt:matherr.obj
 0001:00056a71       ___fpe_flt_rounds          10057a71 f   libucrt:fegetround.obj
 0001:00056aa5       _fegetround                10057aa5 f   libucrt:fegetround.obj
 0001:00056ab2       __add_exp                  10057ab2 f   libucrt:util.obj
 0001:00056ae1       __decomp                   10057ae1 f   libucrt:util.obj
 0001:00056bb3       __get_exp                  10057bb3 f   libucrt:util.obj
 0001:00056bcb       __set_bexp                 10057bcb f   libucrt:util.obj
 0001:00056bf2       __set_exp                  10057bf2 f   libucrt:util.obj
 0001:00056c1f       __sptype                   10057c1f f   libucrt:util.obj
 0001:00056c7d       ___clrfp_sse2              10057c7d f   libucrt:fpctrl.obj
 0001:00056caf       ___ctrlfp_sse2             10057caf f   libucrt:fpctrl.obj
 0001:00056cea       ___fclrf_sse2              10057cea f   libucrt:fpctrl.obj
 0001:00056d07       ___get_fpsr_sse2           10057d07 f   libucrt:fpctrl.obj
 0001:00056d23       ___set_fpsr_sse2           10057d23 f   libucrt:fpctrl.obj
 0001:00056da3       ___set_statfp_sse2         10057da3 f   libucrt:fpctrl.obj
 0001:00056dbe       ___statfp_sse2             10057dbe f   libucrt:fpctrl.obj
 0001:00056dd3       __clrfp                    10057dd3 f   libucrt:fpctrl.obj
 0001:00056de4       __ctrlfp                   10057de4 f   libucrt:fpctrl.obj
 0001:00056e0e       __set_statfp               10057e0e f   libucrt:fpctrl.obj
 0001:00056e67       __statfp                   10057e67 f   libucrt:fpctrl.obj
 0001:00056ea7       ??$__acrt_convert_wcs_mbs_cp@_WDV<lambda_28bda7af82a03b66c1cb3803a755f95d>@@U__crt_win32_buffer_internal_dynamic_resizing@@@@YAHQB_WAAV?$__crt_win32_buffer@DU__crt_win32_buffer_internal_dynamic_resizing@@@@ABV<lambda_28bda7af82a03b66c1cb3803a755f95d>@@I@Z 10057ea7 f i libucrt:argv_wildcards.obj
 0001:00056f6d       ??$__acrt_wcs_to_mbs_cp@U__crt_win32_buffer_internal_dynamic_resizing@@@@YAHQB_WAAV?$__crt_win32_buffer@DU__crt_win32_buffer_internal_dynamic_resizing@@@@I@Z 10057f6d f i libucrt:argv_wildcards.obj
 0001:0005781f       ??$tcsncpy_s@AAPADIAAPADABI@?$__crt_char_traits@D@@SAHAAPAD$$QAI0ABI@Z 1005881f f i libucrt:argv_wildcards.obj
 0001:00057842       ??$tcsncpy_s@AAPA_WIAAPA_WABI@?$__crt_char_traits@_W@@SAHAAPA_W$$QAI0ABI@Z 10058842 f i libucrt:argv_wildcards.obj
 0001:00057865       ??$tcsncpy_s@PADABIABQBDABI@?$__crt_char_traits@D@@SAH$$QAPADABIABQBD1@Z 10058865 f i libucrt:argv_wildcards.obj
 0001:00057888       ??$tcsncpy_s@PADIABQBDABI@?$__crt_char_traits@D@@SAH$$QAPAD$$QAIABQBDABI@Z 10058888 f i libucrt:argv_wildcards.obj
 0001:000578ab       ??$tcsncpy_s@PA_WABIABQB_WABI@?$__crt_char_traits@_W@@SAH$$QAPA_WABIABQB_W1@Z 100588ab f i libucrt:argv_wildcards.obj
 0001:000578ce       ??$tcsncpy_s@PA_WIABQB_WABI@?$__crt_char_traits@_W@@SAH$$QAPA_W$$QAIABQB_WABI@Z 100588ce f i libucrt:argv_wildcards.obj
 0001:000578f1       ??$tcspbrk@AAPADAAY02$$CBD@?$__crt_char_traits@D@@SAPADAAPADAAY02$$CBD@Z 100588f1 f i libucrt:argv_wildcards.obj
 0001:00057907       ??$tcspbrk@AAPA_WAAY02$$CB_W@?$__crt_char_traits@_W@@SAPA_WAAPA_WAAY02$$CB_W@Z 10058907 f i libucrt:argv_wildcards.obj
 0001:0005791d       ??0?$__crt_unique_handle_t@U__crt_findfile_traits@@@@QAE@QAX@Z 1005891d f i libucrt:argv_wildcards.obj
 0001:0005792d       ??0?$__crt_win32_buffer@DU__crt_win32_buffer_internal_dynamic_resizing@@@@QAE@XZ 1005892d f i libucrt:argv_wildcards.obj
 0001:0005795d       ??1?$__crt_unique_handle_t@U__crt_findfile_traits@@@@QAE@XZ 1005895d f i libucrt:argv_wildcards.obj
 0001:00057974       ??1?$__crt_win32_buffer@DU__crt_win32_buffer_internal_dynamic_resizing@@@@QAE@XZ 10058974 f i libucrt:argv_wildcards.obj
 0001:000579d7       ??R<lambda_28bda7af82a03b66c1cb3803a755f95d>@@QBEHIQB_WQADI@Z 100589d7 f i libucrt:argv_wildcards.obj
 0001:00057a71       ?_deallocate@?$__crt_win32_buffer@DU__crt_win32_buffer_internal_dynamic_resizing@@@@AAEXXZ 10058a71 f i libucrt:argv_wildcards.obj
 0001:00057a8b       ?allocate@?$__crt_win32_buffer@DU__crt_win32_buffer_internal_dynamic_resizing@@@@QAEHI@Z 10058a8b f i libucrt:argv_wildcards.obj
 0001:00057b37       ?capacity@?$__crt_win32_buffer@DU__crt_win32_buffer_internal_dynamic_resizing@@@@QBEIXZ 10058b37 f i libucrt:argv_wildcards.obj
 0001:00057b3b       ?close@?$__crt_unique_handle_t@U__crt_findfile_traits@@@@QAEXXZ 10058b3b f i libucrt:argv_wildcards.obj
 0001:00057b52       ?close@__crt_findfile_traits@@SA_NPAX@Z 10058b52 f i libucrt:argv_wildcards.obj
 0001:00057b67       ?data@?$__crt_win32_buffer@DU__crt_win32_buffer_internal_dynamic_resizing@@@@QAEPADXZ 10058b67 f i libucrt:argv_wildcards.obj
 0001:00057b6b       ?debug_info@?$__crt_win32_buffer@DU__crt_win32_buffer_internal_dynamic_resizing@@@@QBEABV__crt_win32_buffer_empty_debug_info@@XZ 10058b6b f i libucrt:argv_wildcards.obj
 0001:00057c84       ?get@?$__crt_unique_handle_t@U__crt_findfile_traits@@@@QBEPAXXZ 10058c84 f i libucrt:argv_wildcards.obj
 0001:00057cba       ?get_invalid_value@__crt_findfile_traits@@SAPAXXZ 10058cba f i libucrt:argv_wildcards.obj
 0001:00057d09       ?set_to_nullptr@?$__crt_win32_buffer@DU__crt_win32_buffer_internal_dynamic_resizing@@@@QAEXXZ 10058d09 f i libucrt:argv_wildcards.obj
 0001:00057d20       ?size@?$__crt_win32_buffer@DU__crt_win32_buffer_internal_dynamic_resizing@@@@QAEXI@Z 10058d20 f i libucrt:argv_wildcards.obj
 0001:00057d41       ?strpbrk@@YAPADQADQBD@Z    10058d41 f i libucrt:argv_wildcards.obj
 0001:00057d4c       ?wcspbrk@@YAPA_WPA_WPB_W@Z 10058d4c f i libucrt:argv_wildcards.obj
 0001:00057d57       ___acrt_expand_narrow_argv_wildcards 10058d57 f   libucrt:argv_wildcards.obj
 0001:00057d62       ___acrt_expand_wide_argv_wildcards 10058d62 f   libucrt:argv_wildcards.obj
 0001:00057d6d       ?size@?$__crt_win32_buffer@DU__crt_win32_buffer_no_resizing@@@@QBEIXZ 10058d6d f i libucrt:getmodulefilenamea.obj
 0001:00057d71       ___acrt_GetModuleFileNameA 10058d71 f   libucrt:getmodulefilenamea.obj
 0001:00057e85       ??$initialize_from_array@$$BY10BAA@E@?$dual_state_global@PAE@__crt_state_management@@QAAXAAY10BAA@E@Z 10058e85 f i libucrt:mbctype.obj
 0001:00057e94       ??$initialize_from_array@$$BY10BAB@E@?$dual_state_global@PAE@__crt_state_management@@QAAXAAY10BAB@E@Z 10058e94 f i libucrt:mbctype.obj
 0001:00057fb0       ?dangerous_get_state_array@?$dual_state_global@PAE@__crt_state_management@@QAEPAPAEXZ 10058fb0 f i libucrt:mbctype.obj
 0001:00057fb3       ?dangerous_get_state_array@?$dual_state_global@PAU__crt_multibyte_data@@@__crt_state_management@@QAEPAPAU__crt_multibyte_data@@XZ 10058fb3 f i libucrt:mbctype.obj
 0001:00058027       ?initialize@?$dual_state_global@PAU__crt_multibyte_data@@@__crt_state_management@@QAEXQAU__crt_multibyte_data@@@Z 10059027 f i libucrt:mbctype.obj
 0001:00058447       ?value@?$dual_state_global@PAE@__crt_state_management@@QAEAAPAEXZ 10059447 f i libucrt:mbctype.obj
 0001:0005844a       ___acrt_initialize_multibyte 1005944a f   libucrt:mbctype.obj
 0001:00058492       ___acrt_update_thread_multibyte_data 10059492 f   libucrt:mbctype.obj
 0001:000584a5       ___p__mbcasemap            100594a5 f   libucrt:mbctype.obj
 0001:000584ab       ___p__mbctype              100594ab f   libucrt:mbctype.obj
 0001:000584b1       __getmbcp                  100594b1 f   libucrt:mbctype.obj
 0001:000584e5       __setmbcp                  100594e5 f   libucrt:mbctype.obj
 0001:00058504       __setmbcp_nolock           10059504 f   libucrt:mbctype.obj
 0001:000587dd       __ismbbalnum               100597dd f   libucrt:ismbbyte.obj
 0001:000587f8       __ismbbalnum_l             100597f8 f   libucrt:ismbbyte.obj
 0001:00058814       __ismbbalpha               10059814 f   libucrt:ismbbyte.obj
 0001:0005882f       __ismbbalpha_l             1005982f f   libucrt:ismbbyte.obj
 0001:0005884b       __ismbbblank               1005984b f   libucrt:ismbbyte.obj
 0001:0005886e       __ismbbblank_l             1005986e f   libucrt:ismbbyte.obj
 0001:00058892       __ismbbgraph               10059892 f   libucrt:ismbbyte.obj
 0001:000588ad       __ismbbgraph_l             100598ad f   libucrt:ismbbyte.obj
 0001:000588c9       __ismbbkalnum              100598c9 f   libucrt:ismbbyte.obj
 0001:000588e1       __ismbbkalnum_l            100598e1 f   libucrt:ismbbyte.obj
 0001:000588fa       __ismbbkana                100598fa f   libucrt:ismbbyte.obj
 0001:0005890d       __ismbbkana_l              1005990d f   libucrt:ismbbyte.obj
 0001:0005895c       __ismbbkprint              1005995c f   libucrt:ismbbyte.obj
 0001:00058974       __ismbbkprint_l            10059974 f   libucrt:ismbbyte.obj
 0001:0005898d       __ismbbkpunct              1005998d f   libucrt:ismbbyte.obj
 0001:000589a5       __ismbbkpunct_l            100599a5 f   libucrt:ismbbyte.obj
 0001:000589be       __ismbblead                100599be f   libucrt:ismbbyte.obj
 0001:000589d6       __ismbblead_l              100599d6 f   libucrt:ismbbyte.obj
 0001:000589ef       __ismbbprint               100599ef f   libucrt:ismbbyte.obj
 0001:00058a0a       __ismbbprint_l             10059a0a f   libucrt:ismbbyte.obj
 0001:00058a26       __ismbbpunct               10059a26 f   libucrt:ismbbyte.obj
 0001:00058a3e       __ismbbpunct_l             10059a3e f   libucrt:ismbbyte.obj
 0001:00058a57       __ismbbtrail               10059a57 f   libucrt:ismbbyte.obj
 0001:00058a6f       __ismbbtrail_l             10059a6f f   libucrt:ismbbyte.obj
 0001:00058a88       ___acrt_initialize_command_line 10059a88 f   libucrt:argv_data.obj
 0001:00058aa1       ___acrt_uninitialize_command_line 10059aa1 f   libucrt:argv_data.obj
 0001:00058aa4       ___p___argc                10059aa4 f   libucrt:argv_data.obj
 0001:00058aaa       ___p___argv                10059aaa f   libucrt:argv_data.obj
 0001:00058ab0       ___p___wargv               10059ab0 f   libucrt:argv_data.obj
 0001:00058ab6       ___p__acmdln               10059ab6 f   libucrt:argv_data.obj
 0001:00058abc       ___p__pgmptr               10059abc f   libucrt:argv_data.obj
 0001:00058ac2       ___p__wcmdln               10059ac2 f   libucrt:argv_data.obj
 0001:00058ac8       ___p__wpgmptr              10059ac8 f   libucrt:argv_data.obj
 0001:00058ace       __get_pgmptr               10059ace f   libucrt:argv_data.obj
 0001:00058aff       __get_wpgmptr              10059aff f   libucrt:argv_data.obj
 0001:00058bcb       ___dcrt_get_narrow_environment_from_os 10059bcb f   libucrt:get_environment_from_os.obj
 0001:00058c6b       ___dcrt_get_wide_environment_from_os 10059c6b f   libucrt:get_environment_from_os.obj
 0001:000593e5       ??$set_environment_variable@ABQADQAD@?$__crt_char_traits@D@@SAHABQAD$$QBQAD@Z 1005a3e5 f i libucrt:setenv.obj
 0001:000593fd       ??$set_environment_variable@ABQA_WQA_W@?$__crt_char_traits@_W@@SAHABQA_W$$QBQA_W@Z 1005a3fd f i libucrt:setenv.obj
 0001:00059414       ??$tcschr@ABQADD@?$__crt_char_traits@D@@SAPADABQAD$$QAD@Z 1005a414 f i libucrt:setenv.obj
 0001:0005942e       ??$tcschr@ABQA_WD@?$__crt_char_traits@_W@@SAPA_WABQA_W$$QAD@Z 1005a42e f i libucrt:setenv.obj
 0001:0005944c       ??$tcscpy_s@AAPADABIAAPAD@?$__crt_char_traits@D@@SAHAAPADABI0@Z 1005a44c f i libucrt:setenv.obj
 0001:0005946a       ??$tcscpy_s@AAPA_WABIAAPA_W@?$__crt_char_traits@_W@@SAHAAPA_WABI0@Z 1005a46a f i libucrt:setenv.obj
 0001:00059488       ??$tcscpy_s@ABQADABIABQAD@?$__crt_char_traits@D@@SAHABQADABI0@Z 1005a488 f i libucrt:setenv.obj
 0001:000594a6       ??$tcscpy_s@ABQA_WABIABQA_W@?$__crt_char_traits@_W@@SAHABQA_WABI0@Z 1005a4a6 f i libucrt:setenv.obj
 0001:000594c4       ??$tcslen@ABQAD@?$__crt_char_traits@D@@SAIABQAD@Z 1005a4c4 f i libucrt:setenv.obj
 0001:000594dc       ??$tcslen@ABQA_W@?$__crt_char_traits@_W@@SAIABQA_W@Z 1005a4dc f i libucrt:setenv.obj
 0001:000594fa       ??$tcsnicoll@ABQBDAAPADABI@?$__crt_char_traits@D@@SAHABQBDAAPADABI@Z 1005a4fa f i libucrt:setenv.obj
 0001:00059518       ??$tcsnicoll@ABQB_WAAPA_WABI@?$__crt_char_traits@_W@@SAHABQB_WAAPA_WABI@Z 1005a518 f i libucrt:setenv.obj
 0001:0005955a       ?strchr@@YAPADQADH@Z       1005a55a f i libucrt:setenv.obj
 0001:00059565       ?wcschr@@YAPA_WPA_W_W@Z    1005a565 f i libucrt:setenv.obj
 0001:00059570       ___dcrt_set_variable_in_narrow_environment_nolock 1005a570 f   libucrt:setenv.obj
 0001:0005957b       ___dcrt_set_variable_in_wide_environment_nolock 1005a57b f   libucrt:setenv.obj
 0001:00059586       __recalloc                 1005a586 f   libucrt:recalloc.obj
 0001:00059591       __recalloc_base            1005a591 f   libucrt:recalloc.obj
 0001:000595fe       ___acrt_getheap            1005a5fe f   libucrt:heap_handle.obj
 0001:00059604       ___acrt_initialize_heap    1005a604 f   libucrt:heap_handle.obj
 0001:00059615       ___acrt_uninitialize_heap  1005a615 f   libucrt:heap_handle.obj
 0001:0005961f       __get_heap_handle          1005a61f f   libucrt:heap_handle.obj
 0001:00059625       ___acrt_execute_initializers 1005a625 f   libucrt:shared_initialization.obj
 0001:0005968d       ___acrt_execute_uninitializers 1005a68d f   libucrt:shared_initialization.obj
 0001:000596be       ??$?B$$A6AHI@Z@__crt_fast_encoded_nullptr_t@@QBEP6AHI@ZXZ 1005a6be f i libucrt:new_handler.obj
 0001:000596c4       ??$__crt_fast_decode_pointer@P6AHI@Z@@YAP6AHI@ZQ6AHI@Z@Z 1005a6c4 f i libucrt:new_handler.obj
 0001:000596da       ??$__crt_fast_encode_pointer@P6AHI@Z@@YAP6AHI@ZQ6AHI@Z@Z 1005a6da f i libucrt:new_handler.obj
 0001:000596f9       ?_set_new_handler@@YAP6AHI@ZH@Z 1005a6f9 f   libucrt:new_handler.obj
 0001:00059706       ?initialize@?$dual_state_global@P6AHI@Z@__crt_state_management@@QAEXQ6AHI@Z@Z 1005a706 f i libucrt:new_handler.obj
 0001:00059722       ?value@?$dual_state_global@P6AHI@Z@__crt_state_management@@QAEAAP6AHI@ZXZ 1005a722 f i libucrt:new_handler.obj
 0001:00059725       ___acrt_initialize_new_handler 1005a725 f   libucrt:new_handler.obj
 0001:00059734       __callnewh                 1005a734 f   libucrt:new_handler.obj
 0001:00059761       __query_new_handler        1005a761 f   libucrt:new_handler.obj
 0001:000597bd       __set_new_handler          1005a7bd f   libucrt:new_handler.obj
 0001:00059827       ??$?B$$A6AXH@Z@__crt_fast_encoded_nullptr_t@@QBEP6AXH@ZXZ 1005a827 f i libucrt:signal.obj
 0001:000598b7       ??$__crt_fast_decode_pointer@P6AXH@Z@@YAP6AXH@ZQ6AXH@Z@Z 1005a8b7 f i libucrt:signal.obj
 0001:000598cd       ??$__crt_fast_encode_pointer@P6AXH@Z@@YAP6AXH@ZQ6AXH@Z@Z 1005a8cd f i libucrt:signal.obj
 0001:00059a21       ?initialize@?$dual_state_global@P6AXH@Z@__crt_state_management@@QAEXQ6AXH@Z@Z 1005aa21 f i libucrt:signal.obj
 0001:00059aca       ?value@?$dual_state_global@P6AXH@Z@__crt_state_management@@QAEAAP6AXH@ZXZ 1005aaca f i libucrt:signal.obj
 0001:00059acd       ___acrt_get_sigabrt_handler 1005aacd f   libucrt:signal.obj
 0001:00059af4       ___acrt_initialize_signal_handlers 1005aaf4 f   libucrt:signal.obj
 0001:00059b12       ___fpecode                 1005ab12 f   libucrt:signal.obj
 0001:00059b1b       ___pxcptinfoptrs           1005ab1b f   libucrt:signal.obj
 0001:00059b24       _raise                     1005ab24 f   libucrt:signal.obj
 0001:00059d17       _signal                    1005ad17 f   libucrt:signal.obj
 0001:00059ed6       __isatty                   1005aed6 f   libucrt:isatty.obj
 0001:0005a304       __lseek                    1005b304 f   libucrt:lseek.obj
 0001:0005a33b       __lseek_internal           1005b33b f   libucrt:lseek.obj
 0001:0005a346       __lseek_nolock             1005b346 f   libucrt:lseek.obj
 0001:0005a37d       __lseek_nolock_internal    1005b37d f   libucrt:lseek.obj
 0001:0005a388       __lseeki64                 1005b388 f   libucrt:lseek.obj
 0001:0005a3c8       __lseeki64_internal        1005b3c8 f   libucrt:lseek.obj
 0001:0005a3e6       __lseeki64_nolock          1005b3e6 f   libucrt:lseek.obj
 0001:0005a426       __lseeki64_nolock_internal 1005b426 f   libucrt:lseek.obj
 0001:0005a470       ?__mbrtowc_utf8@__crt_mbstring@@YAIPA_WPBDIPAU_Mbstatet@@AAV__crt_cached_ptd_host@@@Z 1005b470 f   libucrt:mbrtowc.obj
 0001:0005a4b3       ?__mbsrtowcs_utf8@__crt_mbstring@@YAIPA_WPAPBDIPAU_Mbstatet@@AAV__crt_cached_ptd_host@@@Z 1005b4b3 f   libucrt:mbrtowc.obj
 0001:0005a9f1       _btowc                     1005b9f1 f   libucrt:mbrtowc.obj
 0001:0005aa62       _mbrlen                    1005ba62 f   libucrt:mbrtowc.obj
 0001:0005aaaa       _mbrtowc                   1005baaa f   libucrt:mbrtowc.obj
 0001:0005ab11       _mbsrtowcs                 1005bb11 f   libucrt:mbrtowc.obj
 0001:0005ab4b       _mbsrtowcs_s               1005bb4b f   libucrt:mbrtowc.obj
 0001:0005ac6c       __putwch                   1005bc6c f   libucrt:putwch.obj
 0001:0005ac99       __putwch_nolock            1005bc99 f   libucrt:putwch.obj
 0001:0005accb       __putwch_nolock_internal   1005bccb f   libucrt:putwch.obj
 0001:0005acdb       ___pctype_func             1005bcdb f   libucrt:ctype.obj
 0001:0005acff       ___pwctype_func            1005bcff f   libucrt:ctype.obj
 0001:0005ad05       __iswctype_l               1005bd05 f   libucrt:iswctype.obj
 0001:0005ad19       _iswctype                  1005bd19 f   libucrt:iswctype.obj
 0001:0005ad82       __isctype                  1005bd82 f   libucrt:isctype.obj
 0001:0005adb5       __isctype_l                1005bdb5 f   libucrt:isctype.obj
 0001:0005ae80       __CIcos_pentium4           1005be80 f   libucrt:cos_pentium4.obj
 0001:0005ae98       __cos_pentium4             1005be98     libucrt:cos_pentium4.obj
 0001:0005b030       __trandisp1                1005c030 f   libucrt:87disp.obj
 0001:0005b0a5       __trandisp2                1005c0a5 f   libucrt:87disp.obj
 0001:0005b13f       __rttospopde               1005c13f     libucrt:87disp.obj
 0001:0005b144       __rttospop                 1005c144     libucrt:87disp.obj
 0001:0005b150       __rtnospop                 1005c150 f   libucrt:87disp.obj
 0001:0005b160       __rttosnpop                1005c160 f   libucrt:87disp.obj
 0001:0005b161       __rtnospopde               1005c161     libucrt:87disp.obj
 0001:0005b168       __rtzeropop                1005c168     libucrt:87disp.obj
 0001:0005b16a       __rtzeronpop               1005c16a     libucrt:87disp.obj
 0001:0005b170       __rtzerospop               1005c170 f   libucrt:87disp.obj
 0001:0005b17d       __rtonepop                 1005c17d     libucrt:87disp.obj
 0001:0005b180       __rtonenpop                1005c180 f   libucrt:87disp.obj
 0001:0005b190       __tosnan1                  1005c190 f   libucrt:87disp.obj
 0001:0005b1c0       __nosnan2                  1005c1c0 f   libucrt:87disp.obj
 0001:0005b1d0       __tosnan2                  1005c1d0 f   libucrt:87disp.obj
 0001:0005b200       __nan2                     1005c200 f   libucrt:87disp.obj
 0001:0005b240       __rtindfpop                1005c240 f   libucrt:87disp.obj
 0001:0005b242       __rtindfnpop               1005c242     libucrt:87disp.obj
 0001:0005b253       __rttosnpopde              1005c253     libucrt:87disp.obj
 0001:0005b260       __rtatan2inf               1005c260 f   libucrt:87disp.obj
 0001:0005b27d       __rtchsifneg               1005c27d     libucrt:87disp.obj
 0001:0005b284       ___setfflag                1005c284 f   libucrt:fp_flags.obj
 0001:0005b2a0       __twoToTOS                 1005c2a0 f   libucrt:common.obj
 0001:0005b2b5       __load_CW                  1005c2b5 f   libucrt:common.obj
 0001:0005b2cc       __convertTOStoQNaN         1005c2cc f   libucrt:common.obj
 0001:0005b2e5       __fload_withFB             1005c2e5 f   libucrt:common.obj
 0001:0005b328       __checkTOS_withFB          1005c328 f   libucrt:common.obj
 0001:0005b33e       __fast_exit                1005c33e f   libucrt:common.obj
 0001:0005b34b       __math_exit                1005c34b f   libucrt:common.obj
 0001:0005b375       __check_overflow_exit      1005c375 f   libucrt:common.obj
 0001:0005b389       __check_range_exit         1005c389 f   libucrt:common.obj
 0001:0005b430       __startTwoArgErrorHandling 1005c430 f   libucrt:genexcep.obj
 0001:0005b447       __startOneArgErrorHandling 1005c447 f   libucrt:genexcep.obj
 0001:0005b490       __CIsin_pentium4           1005c490 f   libucrt:sin_pentium4.obj
 0001:0005b4a8       __sin_pentium4             1005c4a8     libucrt:sin_pentium4.obj
 0001:0005b660       __CIsqrt                   1005c660 f   libucrt:sqrt_impl.obj
 0001:0005b674       __sqrt_common              1005c674     libucrt:sqrt_impl.obj
 0001:0005b711       __query_new_mode           1005c711 f   libucrt:new_mode.obj
 0001:0005b718       __set_new_mode             1005c718 f   libucrt:new_mode.obj
 0001:0005b9d3       ??$get_full_path_name@AAY03DAAV?$__crt_win32_buffer@DU__crt_win32_buffer_no_resizing@@@@@?$__crt_char_traits@D@@SAHAAY03DAAV?$__crt_win32_buffer@DU__crt_win32_buffer_no_resizing@@@@@Z 1005c9d3 f i libucrt:getcwd.obj
 0001:0005b9de       ??$get_full_path_name@AAY03DAAV?$__crt_win32_buffer@DU__crt_win32_buffer_public_dynamic_resizing@@@@@?$__crt_char_traits@D@@SAHAAY03DAAV?$__crt_win32_buffer@DU__crt_win32_buffer_public_dynamic_resizing@@@@@Z 1005c9de f i libucrt:getcwd.obj
 0001:0005b9e9       ??$get_full_path_name@AAY03_WAAV?$__crt_win32_buffer@_WU__crt_win32_buffer_no_resizing@@@@@?$__crt_char_traits@_W@@SAHAAY03_WAAV?$__crt_win32_buffer@_WU__crt_win32_buffer_no_resizing@@@@@Z 1005c9e9 f i libucrt:getcwd.obj
 0001:0005b9f4       ??$get_full_path_name@AAY03_WAAV?$__crt_win32_buffer@_WU__crt_win32_buffer_public_dynamic_resizing@@@@@?$__crt_char_traits@_W@@SAHAAY03_WAAV?$__crt_win32_buffer@_WU__crt_win32_buffer_public_dynamic_resizing@@@@@Z 1005c9f4 f i libucrt:getcwd.obj
 0001:0005ba7b       __getcwd                   1005ca7b f   libucrt:getcwd.obj
 0001:0005ba97       __getdcwd                  1005ca97 f   libucrt:getcwd.obj
 0001:0005bab5       __wgetcwd                  1005cab5 f   libucrt:getcwd.obj
 0001:0005bad1       __wgetdcwd                 1005cad1 f   libucrt:getcwd.obj
 0001:0005bb70       __towlower_l               1005cb70 f   libucrt:towlower.obj
 0001:0005bc49       _towlower                  1005cc49 f   libucrt:towlower.obj
 0001:0005bc5c       ___acrt_add_locale_ref     1005cc5c f   libucrt:locale_refcounting.obj
 0001:0005bcd9       ___acrt_free_locale        1005ccd9 f   libucrt:locale_refcounting.obj
 0001:0005be21       ___acrt_locale_add_lc_time_reference 1005ce21 f   libucrt:locale_refcounting.obj
 0001:0005be4a       ___acrt_locale_free_lc_time_if_unreferenced 1005ce4a f   libucrt:locale_refcounting.obj
 0001:0005be7b       ___acrt_locale_release_lc_time_reference 1005ce7b f   libucrt:locale_refcounting.obj
 0001:0005bea4       ___acrt_release_locale_ref 1005cea4 f   libucrt:locale_refcounting.obj
 0001:0005bf25       ___acrt_update_thread_locale_data 1005cf25 f   libucrt:locale_refcounting.obj
 0001:0005bfa6       __updatetlocinfoEx_nolock  1005cfa6 f   libucrt:locale_refcounting.obj
 0001:0005c07d       ___acrt_DownlevelLCIDToLocaleName 1005d07d f   libucrt:lcidtoname_downlevel.obj
 0001:0005c120       ___acrt_DownlevelLocaleNameToLCID 1005d120 f   libucrt:lcidtoname_downlevel.obj
 0001:0005c1ea       ___acrt_report_runtime_error 1005d1ea f   libucrt:report_runtime_error.obj
 0001:0005c2ff       __query_app_type           1005d2ff f   libucrt:report_runtime_error.obj
 0001:0005c305       __set_app_type             1005d305 f   libucrt:report_runtime_error.obj
 0001:0005c314       ??$?RUlconv@@@__crt_internal_free_policy@@QBEXQBUlconv@@@Z 1005d314 f i libucrt:initmon.obj
 0001:0005c326       ??0?$__crt_unique_heap_ptr@Ulconv@@U__crt_internal_free_policy@@@@QAE@QAUlconv@@@Z 1005d326 f i libucrt:initmon.obj
 0001:0005c336       ??1?$__crt_unique_heap_ptr@Ulconv@@U__crt_internal_free_policy@@@@QAE@XZ 1005d336 f i libucrt:initmon.obj
 0001:0005c348       ?detach@?$__crt_unique_heap_ptr@Ulconv@@U__crt_internal_free_policy@@@@QAEPAUlconv@@XZ 1005d348 f i libucrt:initmon.obj
 0001:0005c34e       ?release@?$__crt_unique_heap_ptr@Ulconv@@U__crt_internal_free_policy@@@@QAEXXZ 1005d34e f i libucrt:initmon.obj
 0001:0005c360       ___acrt_locale_free_monetary 1005d360 f   libucrt:initmon.obj
 0001:0005c45e       ___acrt_locale_initialize_monetary 1005d45e f   libucrt:initmon.obj
 0001:0005c84b       ___acrt_locale_free_numeric 1005d84b f   libucrt:initnum.obj
 0001:0005c8b4       ___acrt_locale_initialize_numeric 1005d8b4 f   libucrt:initnum.obj
 0001:0005cafc       ??$?RU__crt_lc_time_data@@@__crt_internal_free_policy@@QBEXQBU__crt_lc_time_data@@@Z 1005dafc f i libucrt:inittime.obj
 0001:0005cb80       ??0?$__crt_unique_heap_ptr@U__crt_lc_time_data@@U__crt_internal_free_policy@@@@QAE@QAU__crt_lc_time_data@@@Z 1005db80 f i libucrt:inittime.obj
 0001:0005cb90       ??1?$__crt_unique_heap_ptr@U__crt_lc_time_data@@U__crt_internal_free_policy@@@@QAE@XZ 1005db90 f i libucrt:inittime.obj
 0001:0005cba2       ??B?$__crt_unique_heap_ptr@U__crt_lc_time_data@@U__crt_internal_free_policy@@@@QBE_NXZ 1005dba2 f i libucrt:inittime.obj
 0001:0005cba9       ?detach@?$__crt_unique_heap_ptr@U__crt_lc_time_data@@U__crt_internal_free_policy@@@@QAEPAU__crt_lc_time_data@@XZ 1005dba9 f i libucrt:inittime.obj
 0001:0005cbd4       ?get@?$__crt_unique_heap_ptr@U__crt_lc_time_data@@U__crt_internal_free_policy@@@@QBEPAU__crt_lc_time_data@@XZ 1005dbd4 f i libucrt:inittime.obj
 0001:0005cebf       ?is_valid@?$__crt_unique_heap_ptr@U__crt_lc_time_data@@U__crt_internal_free_policy@@@@QBE_NXZ 1005debf f i libucrt:inittime.obj
 0001:0005cec6       ?release@?$__crt_unique_heap_ptr@U__crt_lc_time_data@@U__crt_internal_free_policy@@@@QAEXXZ 1005dec6 f i libucrt:inittime.obj
 0001:0005ced8       ___acrt_locale_free_time   1005ded8 f   libucrt:inittime.obj
 0001:0005cfbc       ___acrt_locale_initialize_time 1005dfbc f   libucrt:inittime.obj
 0001:0005d0af       _wcscat_s                  1005e0af f   libucrt:wcscat_s.obj
 0001:0005d1a7       _wcsncat_s                 1005e1a7 f   libucrt:wcsncat_s.obj
 0001:0005d1b2       _wcscspn                   1005e1b2 f   libucrt:wcscspn.obj
 0001:0005d20b       ??0?$__crt_scoped_stack_ptr@_W@@QAE@U?$__crt_scoped_stack_ptr_tag@_W@@@Z 1005e20b f i libucrt:getstringtypea.obj
 0001:0005d21b       ??0?$__crt_scoped_stack_ptr_tag@_W@@QAE@QA_W@Z 1005e21b f i libucrt:getstringtypea.obj
 0001:0005d22b       ??1?$__crt_scoped_stack_ptr@_W@@QAE@XZ 1005e22b f i libucrt:getstringtypea.obj
 0001:0005d234       ?get@?$__crt_scoped_stack_ptr@_W@@QBEPA_WXZ 1005e234 f i libucrt:getstringtypea.obj
 0001:0005d237       __MallocaComputeSize       1005e237 f i libucrt:getstringtypea.obj
 0001:0005d24a       __MarkAllocaS              1005e24a f i libucrt:getstringtypea.obj
 0001:0005d260       ___acrt_GetStringTypeA     1005e260 f   libucrt:getstringtypea.obj
 0001:0005d369       __freea_crt                1005e369 f i libucrt:getstringtypea.obj
 0001:0005dacb       ___acrt_get_qualified_locale 1005eacb f   libucrt:get_qualified_locale.obj
 0001:0005e44d       ___acrt_get_qualified_locale_downlevel 1005f44d f   libucrt:getqloc_downlevel.obj
 0001:0005e642       _localeconv                1005f642 f   libucrt:localeconv.obj
 0001:0005e751       ___acrt_GetLocaleInfoA     1005f751 f   libucrt:getlocaleinfoa.obj
 0001:0005e901       ??B?$__crt_scoped_stack_ptr@_W@@QBE_NXZ 1005f901 f i libucrt:lcmapstringa.obj
 0001:0005eaf6       ___acrt_LCMapStringA       1005faf6 f   libucrt:lcmapstringa.obj
 0001:0005eb3f       ___acrt_CompareStringW     1005fb3f f   libucrt:comparestringw.obj
 0001:0005eba4       ___ascii_wcsnicmp          1005fba4 f   libucrt:wcsnicmp.obj
 0001:0005ebf3       __wcsnicmp                 1005fbf3 f   libucrt:wcsnicmp.obj
 0001:0005ec3f       __wcsnicmp_l               1005fc3f f   libucrt:wcsnicmp.obj
 0001:0005ed12       __strnicmp                 1005fd12 f   libucrt:strnicmp.obj
 0001:0005ed7f       __strnicmp_l               1005fd7f f   libucrt:strnicmp.obj
 0001:0005f0e9       ___acrt_CompareStringA     100600e9 f   libucrt:comparestringa.obj
 0001:0005f419       ??$tsopen_nolock@PAHABQAHABQBDABHABHABHABH@?$__crt_char_traits@D@@SAH$$QAPAHABQAHABQBDABH333@Z 10060419 f i libucrt:open.obj
 0001:0005f44b       ??$tsopen_nolock@PAHABQAHABQB_WABHABHABHABH@?$__crt_char_traits@_W@@SAH$$QAPAHABQAHABQB_WABH333@Z 1006044b f i libucrt:open.obj
 0001:0005f47d       ??$tsopen_nolock@PAHPAHABQBDABHHABHH@?$__crt_char_traits@D@@SAH$$QAPAH0ABQBDABH$$QAH23@Z 1006047d f i libucrt:open.obj
 0001:0005f4af       ??$tsopen_nolock@PAHPAHABQB_WABHHABHH@?$__crt_char_traits@_W@@SAH$$QAPAH0ABQB_WABH$$QAH23@Z 100604af f i libucrt:open.obj
 0001:0005fad4       __open                     10060ad4 f   libucrt:open.obj
 0001:0005faec       __sopen                    10060aec f   libucrt:open.obj
 0001:0005fb1f       __sopen_dispatch           10060b1f f   libucrt:open.obj
 0001:0005fb2a       __sopen_nolock             10060b2a f   libucrt:open.obj
 0001:0005fb98       __sopen_s                  10060b98 f   libucrt:open.obj
 0001:0005fbb8       __wopen                    10060bb8 f   libucrt:open.obj
 0001:0005fbd0       __wsopen                   10060bd0 f   libucrt:open.obj
 0001:0005fc03       __wsopen_dispatch          10060c03 f   libucrt:open.obj
 0001:0005fc0e       __wsopen_nolock            10060c0e f   libucrt:open.obj
 0001:0005ff38       __wsopen_s                 10060f38 f   libucrt:open.obj
 0001:0005ff58       ___p__commode              10060f58 f   libucrt:ncommode.obj
 0001:0005fffd       ___acrt_fp_strflt_to_string 10060ffd f   libucrt:_fptostr.obj
 0001:00061310       ??0big_integer@__crt_strtox@@QAE@ABU01@@Z 10062310 f i libucrt:cfout.obj
 0001:00061350       ??0big_integer@__crt_strtox@@QAE@XZ 10062350 f i libucrt:cfout.obj
 0001:00061390       ??4big_integer@__crt_strtox@@QAEAAU01@ABU01@@Z 10062390 f i libucrt:cfout.obj
 0001:000613d0       ??8__crt_strtox@@YA_NABUbig_integer@0@0@Z 100623d0 f i libucrt:cfout.obj
 0001:00061410       ??9__crt_strtox@@YA_NABUbig_integer@0@0@Z 10062410 f i libucrt:cfout.obj
 0001:00061450       ?add_carry@__crt_strtox@@YAIAAIII@Z 10062450 f i libucrt:cfout.obj
 0001:00061470       ?add_multiply_carry@__crt_strtox@@YAIAAIIII@Z 10062470 f i libucrt:cfout.obj
 0001:000614a0       ?bit_scan_reverse@__crt_strtox@@YAII@Z 100624a0 f i libucrt:cfout.obj
 0001:000614c0       ?count_sequential_high_zeroes@__crt_strtox@@YAII@Z 100624c0 f i libucrt:cfout.obj
 0001:000614e0       ?divide@__crt_strtox@@YA_KAAUbig_integer@1@ABU21@@Z 100624e0 f i libucrt:cfout.obj
 0001:00061970       ?is_zero@__crt_strtox@@YA_NABUbig_integer@1@@Z 10062970 f i libucrt:cfout.obj
 0001:00061980       ?make_big_integer@__crt_strtox@@YA?AUbig_integer@1@_K@Z 10062980 f i libucrt:cfout.obj
 0001:000619a0       ?make_big_integer_power_of_two@__crt_strtox@@YA?AUbig_integer@1@I@Z 100629a0 f i libucrt:cfout.obj
 0001:000619f0       ?multiply@__crt_strtox@@YA_NAAUbig_integer@1@ABU21@@Z 100629f0 f i libucrt:cfout.obj
 0001:00061d40       ?multiply@__crt_strtox@@YA_NAAUbig_integer@1@I@Z 10062d40 f i libucrt:cfout.obj
 0001:00061e10       ?multiply_64_32@__crt_strtox@@YA_K_KI@Z 10062e10 f i libucrt:cfout.obj
 0001:00061e30       ?multiply_by_power_of_ten@__crt_strtox@@YA_NAAUbig_integer@1@I@Z 10062e30 f i libucrt:cfout.obj
 0001:00062370       ?multiply_core@__crt_strtox@@YAIQAIII@Z 10063370 f i libucrt:cfout.obj
 0001:000623b0       ?shift_left@__crt_strtox@@YA_NAAUbig_integer@1@I@Z 100633b0 f i libucrt:cfout.obj
 0001:000624df       ___acrt_fltout             100634df f   libucrt:cfout.obj
 0001:00063a99       ?__c32rtomb_utf8@__crt_mbstring@@YAIPAD_UPAU_Mbstatet@@AAV__crt_cached_ptd_host@@@Z 10064a99 f   libucrt:c32rtomb.obj
 0001:00063b49       _c32rtomb                  10064b49 f   libucrt:c32rtomb.obj
 0001:00063b80       __CIpow_pentium4           10064b80 f   libucrt:pow_pentium4.obj
 0001:00063b99       __pow_pentium4             10064b99     libucrt:pow_pentium4.obj
 0001:000646c0       __fFEXP                    100656c0 f   libucrt:87tran.obj
 0001:00064717       __rtinfpopse               10065717     libucrt:87tran.obj
 0001:00064719       __rtinfnpopse              10065719     libucrt:87tran.obj
 0001:00064729       __fFLN                     10065729     libucrt:87tran.obj
 0001:000647de       __rtinfpop                 100657de     libucrt:87tran.obj
 0001:000647e0       __rtinfnpop                100657e0     libucrt:87tran.obj
 0001:000647f0       __rtforexpinf              100657f0 f   libucrt:87tran.obj
 0001:000647fd       __ffexpm1                  100657fd     libucrt:87tran.obj
 0001:000648a6       __d_inttype                100658a6 f   libucrt:powhlp.obj
 0001:0006490e       __powhlp                   1006590e f   libucrt:powhlp.obj
 0001:00064a40       __CIexp_pentium4           10065a40 f   libucrt:exp_pentium4.obj
 0001:00064a58       __exp_pentium4             10065a58     libucrt:exp_pentium4.obj
 0001:00064d00       __87except                 10065d00 f   libucrt:87except.obj
 0001:00064e10       __CIlog_pentium4           10065e10 f   libucrt:log_pentium4.obj
 0001:00064e28       __log_pentium4             10065e28     libucrt:log_pentium4.obj
 0001:00065080       __frnd                     10066080 f   libucrt:frnd.obj
 0001:000650a0       __CIlog10_pentium4         100660a0 f   libucrt:log10_pentium4.obj
 0001:000650b8       __log10_pentium4           100660b8     libucrt:log10_pentium4.obj
 0001:00065330       ___acrt_stdio_allocate_buffer_nolock 10066330 f   libucrt:_getbuf.obj
 0001:00065390       __CIatan_pentium4          10066390 f   libucrt:atan_pentium4.obj
 0001:000653a8       __atan_pentium4            100663a8     libucrt:atan_pentium4.obj
 0001:00065658       ??$__acrt_fenv_shift_bits@W4__acrt_fenv_abstract_control@@@@YA?AW4__acrt_fenv_abstract_control@@W40@0I@Z 10066658 f i libucrt:_fenvutils.obj
 0001:0006566a       ??$__acrt_fenv_shift_bits@W4__acrt_fenv_abstract_status@@@@YA?AW4__acrt_fenv_abstract_status@@W40@0I@Z 1006666a f i libucrt:_fenvutils.obj
 0001:0006567c       ??$__acrt_fenv_translate_bit@W4__acrt_fenv_abstract_control@@W4__acrt_fenv_machine_sse_control@@@@YA?AW4__acrt_fenv_abstract_control@@W4__acrt_fenv_machine_sse_control@@0W40@1@Z 1006667c f i libucrt:_fenvutils.obj
 0001:00065694       ??$__acrt_fenv_translate_bit@W4__acrt_fenv_abstract_control@@W4__acrt_fenv_machine_x87_control@@@@YA?AW4__acrt_fenv_abstract_control@@W4__acrt_fenv_machine_x87_control@@0W40@1@Z 10066694 f i libucrt:_fenvutils.obj
 0001:000656ac       ??$__acrt_fenv_translate_bit@W4__acrt_fenv_abstract_status@@W4__acrt_fenv_machine_sse_status@@@@YA?AW4__acrt_fenv_abstract_status@@W4__acrt_fenv_machine_sse_status@@0W40@1@Z 100666ac f i libucrt:_fenvutils.obj
 0001:000656c1       ??$__acrt_fenv_translate_bit@W4__acrt_fenv_abstract_status@@W4__acrt_fenv_machine_x87_status@@@@YA?AW4__acrt_fenv_abstract_status@@W4__acrt_fenv_machine_x87_status@@0W40@1@Z 100666c1 f i libucrt:_fenvutils.obj
 0001:000656d6       ??$__acrt_fenv_translate_bit@W4__acrt_fenv_machine_sse_control@@W4__acrt_fenv_abstract_control@@@@YA?AW4__acrt_fenv_machine_sse_control@@W4__acrt_fenv_abstract_control@@0W40@1@Z 100666d6 f i libucrt:_fenvutils.obj
 0001:000656ed       ??$__acrt_fenv_translate_bit@W4__acrt_fenv_machine_sse_status@@W4__acrt_fenv_abstract_status@@@@YA?AW4__acrt_fenv_machine_sse_status@@W4__acrt_fenv_abstract_status@@0W40@1@Z 100666ed f i libucrt:_fenvutils.obj
 0001:00065702       ??$__acrt_fenv_translate_bit@W4__acrt_fenv_machine_x87_control@@W4__acrt_fenv_abstract_control@@@@YA?AW4__acrt_fenv_machine_x87_control@@W4__acrt_fenv_abstract_control@@0W40@1@Z 10066702 f i libucrt:_fenvutils.obj
 0001:00065719       ??$__acrt_fenv_translate_bit@W4__acrt_fenv_machine_x87_status@@W4__acrt_fenv_abstract_status@@@@YA?AW4__acrt_fenv_machine_x87_status@@W4__acrt_fenv_abstract_status@@0W40@1@Z 10066719 f i libucrt:_fenvutils.obj
 0001:0006572e       ??$__acrt_fenv_unshift_bits@W4__acrt_fenv_abstract_control@@@@YA?AW4__acrt_fenv_abstract_control@@W40@0I@Z 1006672e f i libucrt:_fenvutils.obj
 0001:00065740       ??$__acrt_fenv_unshift_bits@W4__acrt_fenv_abstract_status@@@@YA?AW4__acrt_fenv_abstract_status@@W40@0I@Z 10066740 f i libucrt:_fenvutils.obj
 0001:00065b3d       ??I@YA?AW4__acrt_fenv_abstract_control@@W40@0@Z 10066b3d f i libucrt:_fenvutils.obj
 0001:00065b4a       ??I@YA?AW4__acrt_fenv_abstract_status@@W40@0@Z 10066b4a f i libucrt:_fenvutils.obj
 0001:00065b57       ??I@YA?AW4__acrt_fenv_machine_sse_control@@W40@0@Z 10066b57 f i libucrt:_fenvutils.obj
 0001:00065b64       ??I@YA?AW4__acrt_fenv_machine_sse_status@@W40@0@Z 10066b64 f i libucrt:_fenvutils.obj
 0001:00065b71       ??I@YA?AW4__acrt_fenv_machine_x87_control@@W40@0@Z 10066b71 f i libucrt:_fenvutils.obj
 0001:00065b7e       ??I@YA?AW4__acrt_fenv_machine_x87_status@@W40@0@Z 10066b7e f i libucrt:_fenvutils.obj
 0001:00065b8b       ??U@YA?AW4__acrt_fenv_abstract_control@@W40@0@Z 10066b8b f i libucrt:_fenvutils.obj
 0001:00065b98       ??U@YA?AW4__acrt_fenv_abstract_status@@W40@0@Z 10066b98 f i libucrt:_fenvutils.obj
 0001:00065ba5       ??U@YA?AW4__acrt_fenv_machine_sse_control@@W40@0@Z 10066ba5 f i libucrt:_fenvutils.obj
 0001:00065bb2       ??U@YA?AW4__acrt_fenv_machine_x87_control@@W40@0@Z 10066bb2 f i libucrt:_fenvutils.obj
 0001:00065bbf       ??_5@YAAAW4__acrt_fenv_abstract_control@@AAW40@W40@@Z 10066bbf f i libucrt:_fenvutils.obj
 0001:00065bce       ??_5@YAAAW4__acrt_fenv_abstract_status@@AAW40@W40@@Z 10066bce f i libucrt:_fenvutils.obj
 0001:00065bdd       ??_5@YAAAW4__acrt_fenv_machine_sse_control@@AAW40@W40@@Z 10066bdd f i libucrt:_fenvutils.obj
 0001:00065bee       ??_5@YAAAW4__acrt_fenv_machine_sse_status@@AAW40@W40@@Z 10066bee f i libucrt:_fenvutils.obj
 0001:00065bfd       ??_5@YAAAW4__acrt_fenv_machine_x87_control@@AAW40@W40@@Z 10066bfd f i libucrt:_fenvutils.obj
 0001:00065c0e       ??_5@YAAAW4__acrt_fenv_machine_x87_status@@AAW40@W40@@Z 10066c0e f i libucrt:_fenvutils.obj
 0001:00065c1d       ?__acrt_fenv_shift_abstract_sse_control@@YA?AW4__acrt_fenv_abstract_control@@W41@@Z 10066c1d f i libucrt:_fenvutils.obj
 0001:00065c3a       ?__acrt_fenv_shift_abstract_sse_status@@YA?AW4__acrt_fenv_abstract_status@@W41@@Z 10066c3a f i libucrt:_fenvutils.obj
 0001:00065c4a       ?__acrt_fenv_shift_abstract_x87_control@@YA?AW4__acrt_fenv_abstract_control@@W41@@Z 10066c4a f i libucrt:_fenvutils.obj
 0001:00065c67       ?__acrt_fenv_shift_abstract_x87_status@@YA?AW4__acrt_fenv_abstract_status@@W41@@Z 10066c67 f i libucrt:_fenvutils.obj
 0001:00065c77       ?__acrt_fenv_unshift_abstract_sse_control@@YA?AW4__acrt_fenv_abstract_control@@W41@@Z 10066c77 f i libucrt:_fenvutils.obj
 0001:00065c96       ?__acrt_fenv_unshift_abstract_sse_status@@YA?AW4__acrt_fenv_abstract_status@@W41@@Z 10066c96 f i libucrt:_fenvutils.obj
 0001:00065ca6       ?__acrt_fenv_unshift_abstract_x87_control@@YA?AW4__acrt_fenv_abstract_control@@W41@@Z 10066ca6 f i libucrt:_fenvutils.obj
 0001:00065cc5       ?__acrt_fenv_unshift_abstract_x87_status@@YA?AW4__acrt_fenv_abstract_status@@W41@@Z 10066cc5 f i libucrt:_fenvutils.obj
 0001:000661d8       ___acrt_fenv_expand_round_control 100671d8 f   libucrt:_fenvutils.obj
 0001:0006620e       ___acrt_fenv_get_common_round_control 1006720e f   libucrt:_fenvutils.obj
 0001:00066230       ___acrt_fenv_get_control   10067230 f   libucrt:_fenvutils.obj
 0001:000662b0       ___acrt_fenv_get_fp_status_word_from_exception_mask 100672b0 f   libucrt:_fenvutils.obj
 0001:000662ca       ___acrt_fenv_get_status    100672ca f   libucrt:_fenvutils.obj
 0001:00066374       ___acrt_fenv_set_control   10067374 f   libucrt:_fenvutils.obj
 0001:000663ef       ___acrt_fenv_set_status    100673ef f   libucrt:_fenvutils.obj
 0001:000665b0       _qsort                     100675b0 f   libucrt:qsort.obj
 0001:00066b55       _strncpy_s                 10067b55 f   libucrt:strncpy_s.obj
 0001:00066b60       _strpbrk                   10067b60 f   libucrt:strpbrk.obj
 0001:00066ba0       __mbsdec                   10067ba0 f   libucrt:mbsdec.obj
 0001:00066bb7       __mbsdec_l                 10067bb7 f   libucrt:mbsdec.obj
 0001:00066c53       ___acrt_SetEnvironmentVariableA 10067c53 f   libucrt:setenvironmentvariablea.obj
 0001:00066ce8       __realloc_base             10067ce8 f   libucrt:realloc_base.obj
 0001:00066d51       ?__mbrtoc32_utf8@__crt_mbstring@@YAIPA_UPBDIPAU_Mbstatet@@AAV__crt_cached_ptd_host@@@Z 10067d51 f   libucrt:mbrtoc32.obj
 0001:00066f0f       _mbrtoc32                  10067f0f f   libucrt:mbrtoc32.obj
 0001:00066ff9       ___dcrt_lowio_ensure_console_output_initialized 10067ff9 f   libucrt:initcon.obj
 0001:00067018       ___dcrt_terminate_console_output 10068018 f   libucrt:initcon.obj
 0001:0006702f       ___dcrt_write_console      1006802f f   libucrt:initcon.obj
 0001:00067084       ___acrt_GetStringTypeW     10068084 f   libucrt:getstringtypew.obj
 0001:0006709d       ___acrt_LCMapStringW       1006809d f   libucrt:lcmapstringw.obj
 0001:000670db       __set_error_mode           100680db f   libucrt:set_error_mode.obj
 0001:00067215       ??$message_box@$$TABQBDABQBDK@?$__crt_char_traits@D@@SAH$$QA$$TABQBD1$$QAK@Z 10068215 f i libucrt:crtmbox.obj
 0001:00067235       ??$message_box@$$TABQB_WABQB_WK@?$__crt_char_traits@_W@@SAH$$QA$$TABQB_W1$$QAK@Z 10068235 f i libucrt:crtmbox.obj
 0001:00067255       ??$message_box@PAUHWND__@@ABQBDABQBDABI@?$__crt_char_traits@D@@SAH$$QAPAUHWND__@@ABQBD1ABI@Z 10068255 f i libucrt:crtmbox.obj
 0001:00067275       ??$message_box@PAUHWND__@@ABQB_WABQB_WABI@?$__crt_char_traits@_W@@SAH$$QAPAUHWND__@@ABQB_W1ABI@Z 10068275 f i libucrt:crtmbox.obj
 0001:00067295       ??$output_debug_string@ABQBD@?$__crt_char_traits@D@@SAXABQBD@Z 10068295 f i libucrt:crtmbox.obj
 0001:000672a6       ??$output_debug_string@ABQB_W@?$__crt_char_traits@_W@@SAXABQB_W@Z 100682a6 f i libucrt:crtmbox.obj
 0001:000672b8       ___acrt_show_narrow_message_box 100682b8 f   libucrt:crtmbox.obj
 0001:000672c3       ___acrt_show_wide_message_box 100682c3 f   libucrt:crtmbox.obj
 0001:0006778e       __i64toa                   1006878e f   libucrt:xtoa.obj
 0001:000677cf       __i64toa_s                 100687cf f   libucrt:xtoa.obj
 0001:0006780e       __i64tow                   1006880e f   libucrt:xtoa.obj
 0001:0006784f       __i64tow_s                 1006884f f   libucrt:xtoa.obj
 0001:0006788e       __itoa                     1006888e f   libucrt:xtoa.obj
 0001:000678c3       __itoa_s                   100688c3 f   libucrt:xtoa.obj
 0001:000678f6       __itow                     100688f6 f   libucrt:xtoa.obj
 0001:0006792b       __itow_s                   1006892b f   libucrt:xtoa.obj
 0001:0006795e       __ltoa                     1006895e f   libucrt:xtoa.obj
 0001:00067993       __ltoa_s                   10068993 f   libucrt:xtoa.obj
 0001:000679c6       __ltow                     100689c6 f   libucrt:xtoa.obj
 0001:000679fb       __ltow_s                   100689fb f   libucrt:xtoa.obj
 0001:00067a2e       __ui64toa                  10068a2e f   libucrt:xtoa.obj
 0001:00067a50       __ui64toa_s                10068a50 f   libucrt:xtoa.obj
 0001:00067a70       __ui64tow                  10068a70 f   libucrt:xtoa.obj
 0001:00067a92       __ui64tow_s                10068a92 f   libucrt:xtoa.obj
 0001:00067ab2       __ultoa                    10068ab2 f   libucrt:xtoa.obj
 0001:00067ad1       __ultoa_s                  10068ad1 f   libucrt:xtoa.obj
 0001:00067aee       __ultow                    10068aee f   libucrt:xtoa.obj
 0001:00067b0d       __ultow_s                  10068b0d f   libucrt:xtoa.obj
 0001:00067b2a       ___strncnt                 10068b2a f   libucrt:strncnt.obj
 0001:00067b50       ___ascii_strnicmp          10068b50 f   libucrt:_strnicm.obj
 0001:00067bb1       ??$__crt_interlocked_read@H@@YAHPDH@Z 10068bb1 f i libucrt:setmode.obj
 0001:00067bbe       __get_fmode                10068bbe f   libucrt:setmode.obj
 0001:00067beb       __set_fmode                10068beb f   libucrt:setmode.obj
 0001:00067c28       __setmode                  10068c28 f   libucrt:setmode.obj
 0001:00067d39       __setmode_nolock           10068d39 f   libucrt:setmode.obj
 0001:00067f04       ??0__crt_seek_guard@@QAE@H_J@Z 10068f04 f i libucrt:chsize.obj
 0001:00067f51       ??1__crt_seek_guard@@QAE@XZ 10068f51 f i libucrt:chsize.obj
 0001:00068075       ?check@?$cached@K@__crt_cached_ptd_host@@QBE_NK@Z 10069075 f i libucrt:chsize.obj
 0001:00068091       __chsize                   10069091 f   libucrt:chsize.obj
 0001:000680ad       __chsize_nolock            100690ad f   libucrt:chsize.obj
 0001:000680e4       __chsize_nolock_internal   100690e4 f   libucrt:chsize.obj
 0001:00068287       __chsize_s                 10069287 f   libucrt:chsize.obj
 0001:000682be       __umask                    100692be f   libucrt:umask.obj
 0001:000682e1       __umask_s                  100692e1 f   libucrt:umask.obj
 0001:0006831c       __controlfp_s              1006931c f   libucrt:contrlfp.obj
 0001:0006837b       _fegetenv                  1006937b f   libucrt:fegetenv.obj
 0001:00068398       _fesetenv                  10069398 f   libucrt:fesetenv.obj
 0001:000683e3       _feholdexcept              100693e3 f   libucrt:feholdexcept.obj
 0001:00068430       ?reset_and_return@__crt_mbstring@@YAIIPAU_Mbstatet@@@Z 10069430 f   libucrt:common_utf8.obj
 0001:00068444       ?return_illegal_sequence@__crt_mbstring@@YAIPAU_Mbstatet@@AAV__crt_cached_ptd_host@@@Z 10069444 f   libucrt:common_utf8.obj
 0001:00068466       __chgsign                  10069466 f   libucrt:ieeemisc.obj
 0001:0006848e       __chgsignf                 1006948e f   libucrt:ieeemisc.obj
 0001:000684af       __copysign                 100694af f   libucrt:ieeemisc.obj
 0001:000684d2       __copysignf                100694d2 f   libucrt:ieeemisc.obj
 0001:000684ee       __finite                   100694ee f   libucrt:ieeemisc.obj
 0001:00068508       __fpclass                  10069508 f   libucrt:ieeemisc.obj
 0001:000685ac       __isnan                    100695ac f   libucrt:ieeemisc.obj
 0001:000685e2       __logb                     100695e2 f   libucrt:ieeemisc.obj
 0001:000686b1       __nextafter                100696b1 f   libucrt:ieeemisc.obj
 0001:000686d0       __scalb                    100696d0 f   libucrt:ieeemisc.obj
 0001:000686ea       ___acrt_OutputDebugStringA@4 100696ea f   libucrt:outputdebugstringa.obj
 0001:00068759       ?dangerous_get_state_array@?$dual_state_global@H@__crt_state_management@@QAEPAHXZ 10069759 f i libucrt:txtmode.obj
 0001:0006875c       ___acrt_initialize_fmode   1006975c f   libucrt:txtmode.obj
 0001:00068772       ___p__fmode                10069772 f   libucrt:txtmode.obj
 0001:000688bb       ___control87_2             100698bb f   libucrt:ieee87.obj
 0001:00068d53       ___fpreset_sse2            10069d53 f   libucrt:ieee87.obj
 0001:00068f29       __clearfp                  10069f29 f   libucrt:ieee87.obj
 0001:00069007       __control87                1006a007 f   libucrt:ieee87.obj
 0001:00069308       __controlfp                1006a308 f   libucrt:ieee87.obj
 0001:00069322       __fpreset                  1006a322 f   libucrt:ieee87.obj
 0001:000693f8       __set_controlfp            1006a3f8 f   libucrt:ieee87.obj
 0001:0006946b       __statusfp                 1006a46b f   libucrt:ieee87.obj
 0001:00069506       __statusfp2                1006a506 f   libucrt:ieee87.obj
 0001:00069569       _ldexp                     1006a569 f   libucrt:ldexp.obj
 0001:0006975b       _nextafter                 1006a75b f   libucrt:nextafter.obj
 0001:00069a25       __mbstowcs_l               1006aa25 f   libucrt:mbstowcs.obj
 0001:00069a5d       __mbstowcs_s_l             1006aa5d f   libucrt:mbstowcs.obj
 0001:00069a9b       _mbstowcs                  1006aa9b f   libucrt:mbstowcs.obj
 0001:00069ad2       _mbstowcs_s                1006aad2 f   libucrt:mbstowcs.obj
 0001:00069b0f       _nexttoward                1006ab0f f   libucrt:nexttoward.obj
 0001:00069cfa       __d_int                    1006acfa f   libucrt:_test.obj
 0001:00069e00       __dtest                    1006ae00 f   libucrt:_test.obj
 0001:00069e64       __fd_int                   1006ae64 f   libucrt:_test.obj
 0001:00069f31       __fdtest                   1006af31 f   libucrt:_test.obj
 0001:00069f7f       __fperrraise               1006af7f f   libucrt:_test.obj
 0001:00069fa0       __ld_int                   1006afa0 f   libucrt:_test.obj
 0001:00069fab       __ldtest                   1006afab f   libucrt:_test.obj
 0001:00069fb6       __dclass                   1006afb6 f   libucrt:nan.obj
 0001:00069fc7       __dpcomp                   1006afc7 f   libucrt:nan.obj
 0001:0006a01d       __dsign                    1006b01d f   libucrt:nan.obj
 0001:0006a02d       _nan                       1006b02d f   libucrt:nan.obj
 0001:0006a034       __ldclass                  1006b034 f   libucrt:nanl.obj
 0001:0006a045       __ldpcomp                  1006b045 f   libucrt:nanl.obj
 0001:0006a09b       __ldsign                   1006b09b f   libucrt:nanl.obj
 0001:0006a0ab       _nanl                      1006b0ab f   libucrt:nanl.obj
 0001:0006a0b2       ??_4@YAAAW4__acrt_fenv_abstract_status@@AAW40@W40@@Z 1006b0b2 f i libucrt:fegetexceptflag.obj
 0001:0006a0c1       _fegetexceptflag           1006b0c1 f   libucrt:fegetexceptflag.obj
 0001:0006a0f2       ??S@YA?AW4__acrt_fenv_abstract_status@@W40@@Z 1006b0f2 f i libucrt:fesetexceptflag.obj
 0001:0006a0fe       _fesetexceptflag           1006b0fe f   libucrt:fesetexceptflag.obj
 0001:0006a15e       _fetestexcept              1006b15e f   libucrt:fetestexcept.obj
 0001:0006a180       __FindPESection            1006b180 f   LIBCMT:pesect.obj
 0001:0006a1d0       __IsNonwritableInCurrentImage 1006b1d0 f   LIBCMT:pesect.obj
 0001:0006a290       __ValidateImageBase        1006b290 f   LIBCMT:pesect.obj
 0001:0006a2c3       ??1type_info@@UAE@XZ       1006b2c3 f   LIBCMT:std_type_info_static.obj
 0001:0006a2ca       ??_Etype_info@@UAEPAXI@Z   1006b2ca f i LIBCMT:std_type_info_static.obj
 0001:0006a2ca       ??_Gtype_info@@UAEPAXI@Z   1006b2ca f i LIBCMT:std_type_info_static.obj
 0001:0006a2ed       __EH_epilog3               1006b2ed f   LIBCMT:ehprolg3.obj
 0001:0006a301       __EH_epilog3_GS            1006b301 f   LIBCMT:ehprolg3.obj
 0001:0006a310       __EH_epilog3_catch_GS      1006b310 f   LIBCMT:ehprolg3.obj
 0001:0006a31f       __EH_prolog3               1006b31f f   LIBCMT:ehprolg3.obj
 0001:0006a352       __EH_prolog3_GS            1006b352 f   LIBCMT:ehprolg3.obj
 0001:0006a388       __EH_prolog3_catch         1006b388 f   LIBCMT:ehprolg3.obj
 0001:0006a3be       __EH_prolog3_catch_GS      1006b3be f   LIBCMT:ehprolg3.obj
 0001:0006a400       __aulldvrm                 1006b400 f   LIBCMT:ulldvrm.obj
 0001:0006a495       ??3@YAXPAXI@Z              1006b495 f   LIBCMT:delete_scalar_size.obj
 0001:0006a4a3       __except_handler4_noexcept 1006b4a3 f   LIBCMT:chandler4_noexcept.obj
 0001:0006a4f0       __allmul                   1006b4f0 f   LIBCMT:llmul.obj
 0001:0006a530       __aulldiv                  1006b530 f   LIBCMT:ulldiv.obj
 0001:0006a5a0       __alldvrm                  1006b5a0 f   LIBCMT:lldvrm.obj
 0001:0006a680       __allshl                   1006b680 f   LIBCMT:llshl.obj
 0001:0006a6a0       __aullshr                  1006b6a0 f   LIBCMT:ullshr.obj
 0001:0006a6c0       __alloca_probe_16          1006b6c0 f   LIBCMT:alloca16.obj
 0001:0006a6d6       __alloca_probe_8           1006b6d6     LIBCMT:alloca16.obj
 0001:0006a6ec       __initialize_default_precision 1006b6ec f   LIBCMT:default_precision.obj
 0001:0006a70d       ??3@YAXPAX@Z               1006b70d f   LIBCMT:delete_scalar.obj
 0001:0006a712       _InterlockedPushEntrySList@8 1006b712 f   kernel32:KERNEL32.dll
 0001:0006a718       _InterlockedFlushSList@4   1006b718 f   kernel32:KERNEL32.dll
 0001:0006a71e       _RtlUnwind@16              1006b71e f   kernel32:KERNEL32.dll
 0001:0006a724       _GetLastError@0            1006b724 f   kernel32:KERNEL32.dll
 0001:0006a72a       _SetLastError@4            1006b72a f   kernel32:KERNEL32.dll
 0001:0006a730       _TlsAlloc@0                1006b730 f   kernel32:KERNEL32.dll
 0001:0006a736       _TlsGetValue@4             1006b736 f   kernel32:KERNEL32.dll
 0001:0006a73c       _TlsSetValue@8             1006b73c f   kernel32:KERNEL32.dll
 0001:0006a742       _TlsFree@4                 1006b742 f   kernel32:KERNEL32.dll
 0001:0006a748       _FreeLibrary@4             1006b748 f   kernel32:KERNEL32.dll
 0001:0006a74e       _GetProcAddress@8          1006b74e f   kernel32:KERNEL32.dll
 0001:0006a754       _LoadLibraryExW@12         1006b754 f   kernel32:KERNEL32.dll
 0001:0006a75a       _EncodePointer@4           1006b75a f   kernel32:KERNEL32.dll
 0001:0006a760       _RaiseException@16         1006b760 f   kernel32:KERNEL32.dll
 0001:0006a766       _CreateFileW@28            1006b766 f   kernel32:KERNEL32.dll
 0001:0006a76c       _GetDriveTypeW@4           1006b76c f   kernel32:KERNEL32.dll
 0001:0006a772       _GetFileInformationByHandle@8 1006b772 f   kernel32:KERNEL32.dll
 0001:0006a778       _GetFileType@4             1006b778 f   kernel32:KERNEL32.dll
 0001:0006a77e       _CloseHandle@4             1006b77e f   kernel32:KERNEL32.dll
 0001:0006a784       _PeekNamedPipe@24          1006b784 f   kernel32:KERNEL32.dll
 0001:0006a78a       _SystemTimeToTzSpecificLocalTime@12 1006b78a f   kernel32:KERNEL32.dll
 0001:0006a790       _FileTimeToSystemTime@8    1006b790 f   kernel32:KERNEL32.dll
 0001:0006a796       _GetTimeZoneInformation@4  1006b796 f   kernel32:KERNEL32.dll
 0001:0006a79c       _ExitProcess@4             1006b79c f   kernel32:KERNEL32.dll
 0001:0006a7a2       _GetModuleHandleExW@12     1006b7a2 f   kernel32:KERNEL32.dll
 0001:0006a7a8       _GetModuleFileNameW@12     1006b7a8 f   kernel32:KERNEL32.dll
 0001:0006a7ae       _WriteFile@20              1006b7ae f   kernel32:KERNEL32.dll
 0001:0006a7b4       _GetConsoleOutputCP@0      1006b7b4 f   kernel32:KERNEL32.dll
 0001:0006a7ba       _GetConsoleMode@8          1006b7ba f   kernel32:KERNEL32.dll
 0001:0006a7c0       _DecodePointer@4           1006b7c0 f   kernel32:KERNEL32.dll
 0001:0006a7c6       _SetCurrentDirectoryW@4    1006b7c6 f   kernel32:KERNEL32.dll
 0001:0006a7cc       _GetCurrentDirectoryW@8    1006b7cc f   kernel32:KERNEL32.dll
 0001:0006a7d2       _HeapFree@12               1006b7d2 f   kernel32:KERNEL32.dll
 0001:0006a7d8       _HeapAlloc@12              1006b7d8 f   kernel32:KERNEL32.dll
 0001:0006a7de       _GetFullPathNameW@16       1006b7de f   kernel32:KERNEL32.dll
 0001:0006a7e4       _MultiByteToWideChar@24    1006b7e4 f   kernel32:KERNEL32.dll
 0001:0006a7ea       _GetCurrentThread@0        1006b7ea f   kernel32:KERNEL32.dll
 0001:0006a7f0       _GetDateFormatW@24         1006b7f0 f   kernel32:KERNEL32.dll
 0001:0006a7f6       _GetTimeFormatW@24         1006b7f6 f   kernel32:KERNEL32.dll
 0001:0006a7fc       _CompareStringW@24         1006b7fc f   kernel32:KERNEL32.dll
 0001:0006a802       _LCMapStringW@24           1006b802 f   kernel32:KERNEL32.dll
 0001:0006a808       _GetLocaleInfoW@16         1006b808 f   kernel32:KERNEL32.dll
 0001:0006a80e       _IsValidLocale@8           1006b80e f   kernel32:KERNEL32.dll
 0001:0006a814       _GetUserDefaultLCID@0      1006b814 f   kernel32:KERNEL32.dll
 0001:0006a81a       _EnumSystemLocalesW@8      1006b81a f   kernel32:KERNEL32.dll
 0001:0006a820       _SetStdHandle@8            1006b820 f   kernel32:KERNEL32.dll
 0001:0006a826       _GetStdHandle@4            1006b826 f   kernel32:KERNEL32.dll
 0001:0006a82c       _WideCharToMultiByte@32    1006b82c f   kernel32:KERNEL32.dll
 0001:0006a832       _GetCPInfo@8               1006b832 f   kernel32:KERNEL32.dll
 0001:0006a838       _HeapReAlloc@16            1006b838 f   kernel32:KERNEL32.dll
 0001:0006a83e       _HeapSize@12               1006b83e f   kernel32:KERNEL32.dll
 0001:0006a844       _HeapQueryInformation@20   1006b844 f   kernel32:KERNEL32.dll
 0001:0006a84a       _FlushFileBuffers@4        1006b84a f   kernel32:KERNEL32.dll
 0001:0006a850       _ReadFile@20               1006b850 f   kernel32:KERNEL32.dll
 0001:0006a856       _ReadConsoleW@20           1006b856 f   kernel32:KERNEL32.dll
 0001:0006a85c       _GetFileSizeEx@8           1006b85c f   kernel32:KERNEL32.dll
 0001:0006a862       _SetFilePointerEx@20       1006b862 f   kernel32:KERNEL32.dll
 0001:0006a868       _FindClose@4               1006b868 f   kernel32:KERNEL32.dll
 0001:0006a86e       _FindFirstFileExW@24       1006b86e f   kernel32:KERNEL32.dll
 0001:0006a874       _FindNextFileW@8           1006b874 f   kernel32:KERNEL32.dll
 0001:0006a87a       _IsValidCodePage@4         1006b87a f   kernel32:KERNEL32.dll
 0001:0006a880       _GetACP@0                  1006b880 f   kernel32:KERNEL32.dll
 0001:0006a886       _GetOEMCP@0                1006b886 f   kernel32:KERNEL32.dll
 0001:0006a88c       _GetCommandLineA@0         1006b88c f   kernel32:KERNEL32.dll
 0001:0006a892       _GetCommandLineW@0         1006b892 f   kernel32:KERNEL32.dll
 0001:0006a898       _GetEnvironmentStringsW@0  1006b898 f   kernel32:KERNEL32.dll
 0001:0006a89e       _FreeEnvironmentStringsW@4 1006b89e f   kernel32:KERNEL32.dll
 0001:0006a8a4       _SetEnvironmentVariableW@8 1006b8a4 f   kernel32:KERNEL32.dll
 0001:0006a8aa       _GetProcessHeap@0          1006b8aa f   kernel32:KERNEL32.dll
 0001:0006a8b0       _SetConsoleCtrlHandler@8   1006b8b0 f   kernel32:KERNEL32.dll
 0001:0006a8b6       _GetStringTypeW@16         1006b8b6 f   kernel32:KERNEL32.dll
 0001:0006a8bc       _WriteConsoleW@20          1006b8bc f   kernel32:KERNEL32.dll
 0001:0006a8c2       _OutputDebugStringW@4      1006b8c2 f   kernel32:KERNEL32.dll
 0001:0006a8c8       _SetEndOfFile@4            1006b8c8 f   kernel32:KERNEL32.dll
 0001:0006a8ce       _wcsrchr                   1006b8ce f   libvcruntime:wcsrchr.obj
 0001:0006aa67       _memcmp                    1006ba67 f   libvcruntime:memcmp.obj
 0001:0006c7c0       _strrchr                   1006d7c0 f   libvcruntime:strrchr.obj
 0001:0006c900       _strchr                    1006d900 f   libvcruntime:strchr.obj
 0001:0006c96e       ___from_strstr_to_strchr   1006d96e     libvcruntime:strchr.obj
 0001:0006ca2b       _wcschr                    1006da2b f   libvcruntime:wcschr.obj
 0001:0006caf2       __filter_x86_sse2_floating_point_exception 1006daf2 f   LIBCMT:x86_exception_filter.obj
 0001:0006caf2       __filter_x86_sse2_floating_point_exception_default 1006daf2 f   LIBCMT:x86_exception_filter.obj
 0002:00000000       __imp__FileTimeToSystemTime@8 1006e000     kernel32:KERNEL32.dll
 0002:00000004       __imp__OutputDebugStringW@4 1006e004     kernel32:KERNEL32.dll
 0002:00000008       __imp__WriteConsoleW@20    1006e008     kernel32:KERNEL32.dll
 0002:0000000c       __imp__GetStringTypeW@16   1006e00c     kernel32:KERNEL32.dll
 0002:00000010       __imp__SetConsoleCtrlHandler@8 1006e010     kernel32:KERNEL32.dll
 0002:00000014       __imp__GetProcessHeap@0    1006e014     kernel32:KERNEL32.dll
 0002:00000018       __imp__SetEnvironmentVariableW@8 1006e018     kernel32:KERNEL32.dll
 0002:0000001c       __imp__FreeEnvironmentStringsW@4 1006e01c     kernel32:KERNEL32.dll
 0002:00000020       __imp__GetEnvironmentStringsW@0 1006e020     kernel32:KERNEL32.dll
 0002:00000024       __imp__GetCommandLineW@0   1006e024     kernel32:KERNEL32.dll
 0002:00000028       __imp__GetCommandLineA@0   1006e028     kernel32:KERNEL32.dll
 0002:0000002c       __imp__GetOEMCP@0          1006e02c     kernel32:KERNEL32.dll
 0002:00000030       __imp__GetACP@0            1006e030     kernel32:KERNEL32.dll
 0002:00000034       __imp__GetSystemTimeAsFileTime@4 1006e034     kernel32:KERNEL32.dll
 0002:00000038       __imp__EnterCriticalSection@4 1006e038     kernel32:KERNEL32.dll
 0002:0000003c       __imp__LeaveCriticalSection@4 1006e03c     kernel32:KERNEL32.dll
 0002:00000040       __imp__InitializeCriticalSectionAndSpinCount@8 1006e040     kernel32:KERNEL32.dll
 0002:00000044       __imp__DeleteCriticalSection@4 1006e044     kernel32:KERNEL32.dll
 0002:00000048       __imp__Sleep@4             1006e048     kernel32:KERNEL32.dll
 0002:0000004c       __imp__GetCurrentThreadId@0 1006e04c     kernel32:KERNEL32.dll
 0002:00000050       __imp__UnhandledExceptionFilter@4 1006e050     kernel32:KERNEL32.dll
 0002:00000054       __imp__SetUnhandledExceptionFilter@4 1006e054     kernel32:KERNEL32.dll
 0002:00000058       __imp__GetCurrentProcess@0 1006e058     kernel32:KERNEL32.dll
 0002:0000005c       __imp__TerminateProcess@8  1006e05c     kernel32:KERNEL32.dll
 0002:00000060       __imp__IsProcessorFeaturePresent@4 1006e060     kernel32:KERNEL32.dll
 0002:00000064       __imp__QueryPerformanceCounter@4 1006e064     kernel32:KERNEL32.dll
 0002:00000068       __imp__GetCurrentProcessId@0 1006e068     kernel32:KERNEL32.dll
 0002:0000006c       __imp__InitializeSListHead@4 1006e06c     kernel32:KERNEL32.dll
 0002:00000070       __imp__IsDebuggerPresent@0 1006e070     kernel32:KERNEL32.dll
 0002:00000074       __imp__GetStartupInfoW@4   1006e074     kernel32:KERNEL32.dll
 0002:00000078       __imp__GetModuleHandleW@4  1006e078     kernel32:KERNEL32.dll
 0002:0000007c       __imp__IsValidCodePage@4   1006e07c     kernel32:KERNEL32.dll
 0002:00000080       __imp__InterlockedPushEntrySList@8 1006e080     kernel32:KERNEL32.dll
 0002:00000084       __imp__InterlockedFlushSList@4 1006e084     kernel32:KERNEL32.dll
 0002:00000088       __imp__RtlUnwind@16        1006e088     kernel32:KERNEL32.dll
 0002:0000008c       __imp__GetLastError@0      1006e08c     kernel32:KERNEL32.dll
 0002:00000090       __imp__SetLastError@4      1006e090     kernel32:KERNEL32.dll
 0002:00000094       __imp__TlsAlloc@0          1006e094     kernel32:KERNEL32.dll
 0002:00000098       __imp__TlsGetValue@4       1006e098     kernel32:KERNEL32.dll
 0002:0000009c       __imp__TlsSetValue@8       1006e09c     kernel32:KERNEL32.dll
 0002:000000a0       __imp__TlsFree@4           1006e0a0     kernel32:KERNEL32.dll
 0002:000000a4       __imp__FreeLibrary@4       1006e0a4     kernel32:KERNEL32.dll
 0002:000000a8       __imp__GetProcAddress@8    1006e0a8     kernel32:KERNEL32.dll
 0002:000000ac       __imp__LoadLibraryExW@12   1006e0ac     kernel32:KERNEL32.dll
 0002:000000b0       __imp__EncodePointer@4     1006e0b0     kernel32:KERNEL32.dll
 0002:000000b4       __imp__RaiseException@16   1006e0b4     kernel32:KERNEL32.dll
 0002:000000b8       __imp__CreateFileW@28      1006e0b8     kernel32:KERNEL32.dll
 0002:000000bc       __imp__GetDriveTypeW@4     1006e0bc     kernel32:KERNEL32.dll
 0002:000000c0       __imp__GetFileInformationByHandle@8 1006e0c0     kernel32:KERNEL32.dll
 0002:000000c4       __imp__GetFileType@4       1006e0c4     kernel32:KERNEL32.dll
 0002:000000c8       __imp__CloseHandle@4       1006e0c8     kernel32:KERNEL32.dll
 0002:000000cc       __imp__PeekNamedPipe@24    1006e0cc     kernel32:KERNEL32.dll
 0002:000000d0       __imp__SystemTimeToTzSpecificLocalTime@12 1006e0d0     kernel32:KERNEL32.dll
 0002:000000d4       __imp__SetEndOfFile@4      1006e0d4     kernel32:KERNEL32.dll
 0002:000000d8       __imp__GetTimeZoneInformation@4 1006e0d8     kernel32:KERNEL32.dll
 0002:000000dc       __imp__ExitProcess@4       1006e0dc     kernel32:KERNEL32.dll
 0002:000000e0       __imp__GetModuleHandleExW@12 1006e0e0     kernel32:KERNEL32.dll
 0002:000000e4       __imp__GetModuleFileNameW@12 1006e0e4     kernel32:KERNEL32.dll
 0002:000000e8       __imp__WriteFile@20        1006e0e8     kernel32:KERNEL32.dll
 0002:000000ec       __imp__GetConsoleOutputCP@0 1006e0ec     kernel32:KERNEL32.dll
 0002:000000f0       __imp__GetConsoleMode@8    1006e0f0     kernel32:KERNEL32.dll
 0002:000000f4       __imp__DecodePointer@4     1006e0f4     kernel32:KERNEL32.dll
 0002:000000f8       __imp__SetCurrentDirectoryW@4 1006e0f8     kernel32:KERNEL32.dll
 0002:000000fc       __imp__GetCurrentDirectoryW@8 1006e0fc     kernel32:KERNEL32.dll
 0002:00000100       __imp__HeapFree@12         1006e100     kernel32:KERNEL32.dll
 0002:00000104       __imp__HeapAlloc@12        1006e104     kernel32:KERNEL32.dll
 0002:00000108       __imp__GetFullPathNameW@16 1006e108     kernel32:KERNEL32.dll
 0002:0000010c       __imp__MultiByteToWideChar@24 1006e10c     kernel32:KERNEL32.dll
 0002:00000110       __imp__GetCurrentThread@0  1006e110     kernel32:KERNEL32.dll
 0002:00000114       __imp__GetDateFormatW@24   1006e114     kernel32:KERNEL32.dll
 0002:00000118       __imp__GetTimeFormatW@24   1006e118     kernel32:KERNEL32.dll
 0002:0000011c       __imp__CompareStringW@24   1006e11c     kernel32:KERNEL32.dll
 0002:00000120       __imp__LCMapStringW@24     1006e120     kernel32:KERNEL32.dll
 0002:00000124       __imp__GetLocaleInfoW@16   1006e124     kernel32:KERNEL32.dll
 0002:00000128       __imp__IsValidLocale@8     1006e128     kernel32:KERNEL32.dll
 0002:0000012c       __imp__GetUserDefaultLCID@0 1006e12c     kernel32:KERNEL32.dll
 0002:00000130       __imp__EnumSystemLocalesW@8 1006e130     kernel32:KERNEL32.dll
 0002:00000134       __imp__SetStdHandle@8      1006e134     kernel32:KERNEL32.dll
 0002:00000138       __imp__GetStdHandle@4      1006e138     kernel32:KERNEL32.dll
 0002:0000013c       __imp__WideCharToMultiByte@32 1006e13c     kernel32:KERNEL32.dll
 0002:00000140       __imp__GetCPInfo@8         1006e140     kernel32:KERNEL32.dll
 0002:00000144       __imp__HeapReAlloc@16      1006e144     kernel32:KERNEL32.dll
 0002:00000148       __imp__HeapSize@12         1006e148     kernel32:KERNEL32.dll
 0002:0000014c       __imp__HeapQueryInformation@20 1006e14c     kernel32:KERNEL32.dll
 0002:00000150       __imp__FlushFileBuffers@4  1006e150     kernel32:KERNEL32.dll
 0002:00000154       __imp__ReadFile@20         1006e154     kernel32:KERNEL32.dll
 0002:00000158       __imp__ReadConsoleW@20     1006e158     kernel32:KERNEL32.dll
 0002:0000015c       __imp__GetFileSizeEx@8     1006e15c     kernel32:KERNEL32.dll
 0002:00000160       __imp__SetFilePointerEx@20 1006e160     kernel32:KERNEL32.dll
 0002:00000164       __imp__FindClose@4         1006e164     kernel32:KERNEL32.dll
 0002:00000168       __imp__FindFirstFileExW@24 1006e168     kernel32:KERNEL32.dll
 0002:0000016c       __imp__FindNextFileW@8     1006e16c     kernel32:KERNEL32.dll
 0002:00000170       \177KERNEL32_NULL_THUNK_DATA 1006e170     kernel32:KERNEL32.dll
 0002:00000174       __imp__timeKillEvent@4     1006e174     winMM:WINMM.dll
 0002:00000178       __imp__timeSetEvent@20     1006e178     winMM:WINMM.dll
 0002:0000017c       \177WINMM_NULL_THUNK_DATA  1006e17c     winMM:WINMM.dll
 0002:00000180       __imp__fftwf_destroy_plan  1006e180     libfftw3f-3:libfftw3f-3.dll
 0002:00000184       __imp__fftwf_execute       1006e184     libfftw3f-3:libfftw3f-3.dll
 0002:00000188       __imp__fftwf_plan_dft_1d   1006e188     libfftw3f-3:libfftw3f-3.dll
 0002:0000018c       __imp__fftwf_import_wisdom_from_string 1006e18c     libfftw3f-3:libfftw3f-3.dll
 0002:00000190       \177libfftw3f-3_NULL_THUNK_DATA 1006e190     libfftw3f-3:libfftw3f-3.dll
 0002:00000194       __imp__sem_init            1006e194     pthreadVC:pthreadVC.dll
 0002:00000198       __imp__sem_destroy         1006e198     pthreadVC:pthreadVC.dll
 0002:0000019c       __imp__sem_wait            1006e19c     pthreadVC:pthreadVC.dll
 0002:000001a0       __imp__sem_post            1006e1a0     pthreadVC:pthreadVC.dll
 0002:000001a4       \177pthreadVC_NULL_THUNK_DATA 1006e1a4     pthreadVC:pthreadVC.dll
 0002:000001a8       ___guard_check_icall_fptr  1006e1a8     LIBCMT:guard_support.obj
 0002:000001ac       ___guard_xfg_check_icall_fptr 1006e1ac     LIBCMT:guard_support.obj
 0002:000001b0       ___xc_a                    1006e1b0     LIBCMT:initializers.obj
 0002:000001b4       ___xc_z                    1006e1b4     LIBCMT:initializers.obj
 0002:000001b8       ___xi_a                    1006e1b8     LIBCMT:initializers.obj
 0002:000001bc       ___acrt_timeset_initializer 1006e1bc     libucrt:timeset_initializer.obj
 0002:000001c0       ___acrt_stdio_initializer  1006e1c0     libucrt:stdio_initializer.obj
 0002:000001c4       ___acrt_tran_sse2_initializer 1006e1c4     libucrt:sse2_initializer.obj
 0002:000001c8       ___acrt_multibyte_initializer 1006e1c8     libucrt:multibyte_initializer.obj
 0002:000001cc       ___acrt_fmode_initializer  1006e1cc     libucrt:fmode_initializer.obj
 0002:000001d0       ___xi_z                    1006e1d0     LIBCMT:initializers.obj
 0002:000001d4       ___xp_a                    1006e1d4     LIBCMT:initializers.obj
 0002:000001d8       ___acrt_locale_terminator  1006e1d8     libucrt:locale_initializer.obj
 0002:000001dc       ___dcrt_console_output_terminator 1006e1dc     libucrt:console_output_initializer.obj
 0002:000001e0       ___acrt_stdio_terminator   1006e1e0     libucrt:stdio_initializer.obj
 0002:000001e4       ___xp_z                    1006e1e4     LIBCMT:initializers.obj
 0002:000001e8       ___xt_a                    1006e1e8     LIBCMT:initializers.obj
 0002:000001ec       ___xt_z                    1006e1ec     LIBCMT:initializers.obj
 0002:000001f0       __real@3727c5ac            1006e1f0     am_demod.obj
 0002:000001f4       __real@38d1b717            1006e1f4     am_demod.obj
 0002:000001f8       __real@3e800000            1006e1f8     am_demod.obj
 0002:000001fc       __real@3e99999a            1006e1fc     am_demod.obj
 0002:00000200       __real@3f000000            1006e200     am_demod.obj
 0002:00000208       __real@3f50624dd2f1a9fc    1006e208     am_demod.obj
 0002:00000210       __real@3f7ff972            1006e210     am_demod.obj
 0002:00000214       __real@3f7fff58            1006e214     am_demod.obj
 0002:00000218       __real@3feff7ced916872b    1006e218     am_demod.obj
 0002:00000220       __real@401921fb54442d18    1006e220     am_demod.obj
 0002:00000228       __real@40c90fdb            1006e228     am_demod.obj
 0002:00000230       __xmm@7fffffffffffffff7fffffffffffffff 1006e230     am_demod.obj
 0002:00000240       ??_C@_0BO@GJFJKLMD@block_size?5zero?5in?5in_blocks?6@ 1006e240     banal.obj
 0002:00000260       ??_C@_0BO@EFDGKKLN@can?8t?5open?5?$CC?$CFs?$CC?5in?5mode?5?$CC?$CFs?$CC?6@ 1006e260     banal.obj
 0002:00000280       ??_C@_0CA@NDENOFEA@can?8t?5reopen?5?$CC?$CFs?$CC?5in?5mode?5?$CC?$CFs?$CC?6@ 1006e280     banal.obj
 0002:000002a0       ??_C@_06FIHLFAKK@?$CFds?$CFdu@ 1006e2a0     banal.obj
 0002:000002a8       ??_C@_04IFOJIINB@?4?1?$CFs@ 1006e2a8     banal.obj
 0002:000002b0       ??_C@_01KDCPPGHE@r@        1006e2b0     banal.obj
 0002:000002b4       ??_C@_04GHGFPGNC@HOME@     1006e2b4     banal.obj
 0002:000002bc       ??_C@_0BB@LIOFJDLH@can?8t?5get?5HOME?$CB?6@ 1006e2bc     banal.obj
 0002:000002d0       ??_C@_05GFOLEBJA@?$CFs?1?$CFs@ 1006e2d0     banal.obj
 0002:000002d8       ??_C@_0P@DMOPGNJA@safealloc?3?5?$CFs?6@ 1006e2d8     bufvec.obj
 0002:000002e8       ??_C@_09GGNIEMPK@safealloc@ 1006e2e8     bufvec.obj
 0002:000002f4       ??_C@_06IDJABAFD@newCXB@   1006e2f4     bufvec.obj
 0002:000002fc       ??_C@_06HABKCLAF@newRLB@   1006e2fc     bufvec.obj
 0002:00000304       ??_C@_0P@BIJNLEIF@dump_REAL?3?5?$CFs?6@ 1006e304     bufvec.obj
 0002:00000314       ??_C@_07KDCPMODK@?$CF5d?5?$CFg?6@ 1006e314     bufvec.obj
 0002:0000031c       ??_C@_0N@KKHGCHMP@dump_CX?3?5?$CFs?6@ 1006e31c     bufvec.obj
 0002:0000032c       ??_C@_0L@HMLOPKPK@?$CF5d?5?$CFg?5?$CFg?6@ 1006e32c     bufvec.obj
 0002:00000338       __real@00000000            1006e338     bufvec.obj
 0002:00000340       __real@3ff0000000000000    1006e340     bufvec.obj
 0002:00000348       __real@d8635fa9            1006e348     bufvec.obj
 0002:00000350       __xmm@80000000800000008000000080000000 1006e350     bufvec.obj
 0002:00000360       ??_C@_08HEPKGCKB@IQ?5state@ 1006e360     correctIQ.obj
 0002:0000036c       ??_C@_0M@PIKEBHDO@correctIQ?5w@ 1006e36c     correctIQ.obj
 0002:00000378       ??_C@_0M@GGCHDKLA@correctIQ?5y@ 1006e378     correctIQ.obj
 0002:00000384       ??_C@_0O@HOOLDAP@correctIQ?5del@ 1006e384     correctIQ.obj
 0002:00000394       ??_C@_0O@DDCKEHNH@CWToneGenDesc@ 1006e394     cwtones.obj
 0002:000003a4       ??_C@_0L@JPDMIBMM@CWTone?5osc@ 1006e3a4     cwtones.obj
 0002:000003b0       ??_C@_0O@LLLFCGBE@CWToneGen?5buf@ 1006e3b0     cwtones.obj
 0002:000003c0       __real@3f800000            1006e3c0     cwtones.obj
 0002:000003c8       __real@3fe0000000000000    1006e3c8     cwtones.obj
 0002:000003d0       __real@400921fb54442895    1006e3d0     cwtones.obj
 0002:000003d8       __real@401921fb54442895    1006e3d8     cwtones.obj
 0002:000003e0       __real@4024000000000000    1006e3e0     cwtones.obj
 0002:000003e8       __real@4034000000000000    1006e3e8     cwtones.obj
 0002:000003f0       __real@408f400000000000    1006e3f0     cwtones.obj
 0002:000003f8       __real@c01921fb54442d18    1006e3f8     cwtones.obj
 0002:00000400       ??_C@_09NDJHDODP@DCBlocker@ 1006e400     dcblock.obj
 0002:0000040c       __real@3851b717            1006e40c     dcblock.obj
 0002:00000410       __real@3f7ffcb9            1006e410     dcblock.obj
 0002:00000418       __real@3fedec74263f1a4c    1006e418     dcblock.obj
 0002:00000420       __real@3fee6c0bad89f0c2    1006e420     dcblock.obj
 0002:00000428       __real@3fef3e2df3b6cf12    1006e428     dcblock.obj
 0002:00000430       __real@3fef69c4ba752a7b    1006e430     dcblock.obj
 0002:00000438       __real@3ff026151dd2009c    1006e438     dcblock.obj
 0002:00000440       __real@3ff03126e978d4fe    1006e440     dcblock.obj
 0002:00000448       __real@3ff068e245afe286    1006e448     dcblock.obj
 0002:00000450       __real@3ff08bb964c3ac9b    1006e450     dcblock.obj
 0002:00000458       __real@3fffb43066863918    1006e458     dcblock.obj
 0002:00000460       __real@400f6e0e7a5afec3    1006e460     dcblock.obj
 0002:00000468       __real@400fcef675f1267c    1006e468     dcblock.obj
 0002:00000470       __real@4010000000000000    1006e470     dcblock.obj
 0002:00000478       __real@4017024316046d30    1006e478     dcblock.obj
 0002:00000480       __real@4017b6bcba277b11    1006e480     dcblock.obj
 0002:00000488       __real@4017cc3802233b86    1006e488     dcblock.obj
 0002:00000490       __real@4018000000000000    1006e490     dcblock.obj
 0002:00000498       __real@401e2cb149e47a93    1006e498     dcblock.obj
 0002:000004a0       __real@401fbb4dc27b712d    1006e4a0     dcblock.obj
 0002:000004a8       __real@4020000000000000    1006e4a8     dcblock.obj
 0002:000004b0       __real@402d00fc4829534f    1006e4b0     dcblock.obj
 0002:000004b8       __real@402d7f3364dc4d9e    1006e4b8     dcblock.obj
 0002:000004c0       __real@402e000000000000    1006e4c0     dcblock.obj
 0002:000004c8       __real@40337fd96de75b91    1006e4c8     dcblock.obj
 0002:000004d0       __real@403a9fdaa73393b4    1006e4d0     dcblock.obj
 0002:000004d8       __real@403b885b6be5c607    1006e4d8     dcblock.obj
 0002:000004e0       __real@403c000000000000    1006e4e0     dcblock.obj
 0002:000004e8       __real@404ad925b661c028    1006e4e8     dcblock.obj
 0002:000004f0       __real@404b4d648b76517c    1006e4f0     dcblock.obj
 0002:000004f8       __real@404c000000000000    1006e4f8     dcblock.obj
 0002:00000500       __real@4050ebdea49fa0de    1006e500     dcblock.obj
 0002:00000508       __real@4051800000000000    1006e508     dcblock.obj
 0002:00000510       ??_C@_0O@MJIPOLKH@agc?5in?5buffer@ 1006e510     dttspagc.obj
 0002:00000520       ??_C@_0BE@HKCBKDJA@circular?5agc?5buffer@ 1006e520     dttspagc.obj
 0002:00000534       __real@3a83126f            1006e534     dttspagc.obj
 0002:00000538       __real@3b30f27c            1006e538     dttspagc.obj
 0002:0000053c       __real@3b449ba6            1006e53c     dttspagc.obj
 0002:00000540       __real@3dcccccd            1006e540     dttspagc.obj
 0002:00000548       __real@3fc999999999999a    1006e548     dttspagc.obj
 0002:00000550       __real@4008000000000000    1006e550     dttspagc.obj
 0002:00000558       __real@c08f400000000000    1006e558     dttspagc.obj
 0002:00000560       __real@40000000            1006e560     filt2p2z.obj
 0002:00000568       __real@4000000000000000    1006e568     filt2p2z.obj
 0002:00000570       __real@40800000            1006e570     filt2p2z.obj
 0002:00000574       __real@41a00000            1006e574     filt2p2z.obj
 0002:00000578       __real@c0000000            1006e578     filt2p2z.obj
 0002:0000057c       ??_C@_0BE@DDNCOPCJ@newFIR_Lowpass_REAL@ 1006e57c     filter.obj
 0002:00000590       ??_C@_0BL@OCGNLGFL@newFIR_Lowpass_REAL?5window@ 1006e590     filter.obj
 0002:000005ac       ??_C@_0BH@JFOFIKHG@newFIR_Lowpass_COMPLEX@ 1006e5ac     filter.obj
 0002:000005c4       ??_C@_0BF@LANPMBP@newFIR_Bandpass_REAL@ 1006e5c4     filter.obj
 0002:000005dc       ??_C@_0BM@JCKGGOMA@newFIR_Bandpass_REAL?5window@ 1006e5dc     filter.obj
 0002:000005f8       ??_C@_0BI@MCIAJNLL@newFIR_Bandpass_COMPLEX@ 1006e5f8     filter.obj
 0002:00000610       ??_C@_0BP@KANJJAON@newFIR_Bandpass_COMPLEX?5window@ 1006e610     filter.obj
 0002:00000630       ??_C@_0BF@BEIKFNLP@newFIR_Highpass_REAL@ 1006e630     filter.obj
 0002:00000648       ??_C@_0BM@MPBFEKO@newFIR_Highpass_REAL?5window@ 1006e648     filter.obj
 0002:00000664       ??_C@_0BE@OGDLFNBJ@newFIR_Hilbert_REAL@ 1006e664     filter.obj
 0002:00000678       ??_C@_0BL@CJECENHC@newFIR_Hilbert_REAL?5window@ 1006e678     filter.obj
 0002:00000694       ??_C@_0BH@LOKLPJNF@newFIR_Hilbert_COMPLEX@ 1006e694     filter.obj
 0002:000006ac       ??_C@_0BO@HPMNOLCI@newFIR_Hilbert_COMPLEX?5window@ 1006e6ac     filter.obj
 0002:000006cc       ??_C@_0BF@BMJBHONL@newFIR_Bandstop_REAL@ 1006e6cc     filter.obj
 0002:000006e4       ??_C@_0BM@CALEMFLM@newFIR_Bandstop_REAL?5window@ 1006e6e4     filter.obj
 0002:00000700       __xmm@00000003000000020000000100000000 1006e700     filter.obj
 0002:00000710       __xmm@3f8000003f8000003f8000003f800000 1006e710     filter.obj
 0002:00000720       __xmm@3ff00000000000003ff0000000000000 1006e720     filter.obj
 0002:00000730       __xmm@80000000000000008000000000000000 1006e730     filter.obj
 0002:00000740       ??_C@_0BG@OOMKNAHB@fb?5partition?5pointers@ 1006e740     filterbank.obj
 0002:00000758       ??_C@_0BI@KOLIBJAF@fb?5partition?5delay?5line@ 1006e758     filterbank.obj
 0002:00000770       ??_C@_0CG@IGCBHPPI@newFIRDownsampler?3?5downsample?5r@ 1006e770     filterbank.obj
 0002:00000798       ??_C@_0CC@BNMOJGGG@newFIRUpsampler?3?5upsample?5rotat@ 1006e798     filterbank.obj
 0002:000007bc       ??_C@_0BB@CHMHLHAD@fft?5input?5buffer@ 1006e7bc     filterbank.obj
 0002:000007d0       __xmm@41f00000000000000000000000000000 1006e7d0     filterbank.obj
 0002:000007e0       __real@24e69595            1006e7e0     fm_demod.obj
 0002:000007e8       __real@3f1a36e2eb1c432d    1006e7e8     fm_demod.obj
 0002:000007f0       __real@3f947ae147ae147b    1006e7f0     fm_demod.obj
 0002:000007f8       __real@3fc3333333333333    1006e7f8     fm_demod.obj
 0002:00000800       __real@3fd999999999999a    1006e800     fm_demod.obj
 0002:00000808       __real@3fefff2e48e8a71e    1006e808     fm_demod.obj
 0002:00000810       __real@4069000000000000    1006e810     fm_demod.obj
 0002:00000818       __real@40988b2f704a9409    1006e818     fm_demod.obj
 0002:00000820       __real@40deadfb4c5d390c    1006e820     fm_demod.obj
 0002:00000828       __real@4684d000            1006e828     fm_demod.obj
 0002:00000830       __real@bfe0000000000000    1006e830     fm_demod.obj
 0002:00000838       ??_C@_0N@NMJEKKDK@new?5eq?5state@ 1006e838     graphiceq.obj
 0002:00000848       ??_C@_0N@KCALNMGO@EQ?5input?5CXB@ 1006e848     graphiceq.obj
 0002:00000858       ??_C@_0O@DDEDDPMA@EQ?5output?5CXB@ 1006e858     graphiceq.obj
 0002:00000868       __real@473b8000            1006e868     graphiceq.obj
 0002:0000086c       __real@47bb8000            1006e86c     graphiceq.obj
 0002:00000870       __real@483b8000            1006e870     graphiceq.obj
 0002:00000874       ??_C@_0BE@FLFEMHH@Hilbert?5Transformer@ 1006e874     hilbert.obj
 0002:00000888       ??_C@_0BN@KIHJICCK@Hilbert?5Transformer?5c?5vector@ 1006e888     hilbert.obj
 0002:000008a8       ??_C@_0BO@PAOPLDCN@Hilbert?5Transformer?5x1?5vector@ 1006e8a8     hilbert.obj
 0002:000008c8       ??_C@_0BO@BPCNNIBD@Hilbert?5Transformer?5y1?5vector@ 1006e8c8     hilbert.obj
 0002:000008e8       ??_C@_0CB@BJONJLMD@Hilbert?5Transformer?5input?5buffe@ 1006e8e8     hilbert.obj
 0002:0000090c       ??_C@_0CC@EBADNGKN@Hilbert?5Transformer?5output?5buff@ 1006e90c     hilbert.obj
 0002:00000930       __real@3b007358            1006e930     hilbert.obj
 0002:00000934       __real@3ee0c49c            1006e934     hilbert.obj
 0002:00000938       __real@3f160419            1006e938     hilbert.obj
 0002:0000093c       __real@3f3cac08            1006e93c     hilbert.obj
 0002:00000940       __real@3f6c8b44            1006e940     hilbert.obj
 0002:00000950       __xmm@400921fb54442895400921fb54442895 1006e950     hilbert.obj
 0002:00000960       __xmm@402e000000000000402e000000000000 1006e960     hilbert.obj
 0002:00000970       ??_C@_0CD@HJLDDBDG@ISO?3?5band?5index?5out?5of?5range?5?$CI?$CF@ 1006e970     isoband.obj
 0002:00000994       ??_C@_0P@LMJEKMAI@keyer?5PLAYING?6@ 1006e994     keyd.obj
 0002:000009a4       ??_C@_09JAKBDCMK@Read?5key?6@ 1006e9a4     keyd.obj
 0002:000009b0       ??_C@_0L@HANIJJBK@whichkey?5?6@ 1006e9b0     keyd.obj
 0002:000009bc       ??_C@_0M@OKAODJBG@key_thread?6@ 1006e9bc     keyd.obj
 0002:000009c8       ??_C@_0BD@MOBIECFL@keyer?5NOT?5playing?6@ 1006e9c8     keyd.obj
 0002:000009dc       ??_C@_0BB@NHJBFHFA@Critical?5Section@ 1006e9dc     keyd.obj
 0002:000009f0       ??_C@_0O@IPADDEGG@Timer?5failed?6@ 1006e9f0     keyd.obj
 0002:00000a00       __real@400c000000000000    1006ea00     keyd.obj
 0002:00000a08       __real@40e7700000000000    1006ea08     keyd.obj
 0002:00000a10       ??_C@_0M@IMKDHHNE@KEYERSTATE?6@ 1006ea10     keyer.obj
 0002:00000a20       ??_C@_0FJ@GBEGAKOC@KEYERSTATE_DAH?$CImidway?5?$DN?5?$CFf?$CJ?3?5?5d@ 1006ea20     keyer.obj
 0002:00000a80       ??_C@_0EP@HMPAPKKL@KEYERSTATE_DAH?$CI?$CFf?$CJ?3?5?5dahmem?5?$DN?51@ 1006ea80     keyer.obj
 0002:00000ad0       ??_C@_0GP@LIHJENDD@KEYERSTATE_DAH?$CI?$CFf?$CJ?3?5?5dahmem?5?$DN?51@ 1006ead0     keyer.obj
 0002:00000b40       ??_C@_0GP@LHKPPKCP@KEYERSTATE_DAH?$CI?$CFf?$CJ?3?5?5ditmem?5?$DN?51@ 1006eb40     keyer.obj
 0002:00000bb0       ??_C@_0FJ@FHHJNNPL@KEYERSTATE_DAH?$CImiddle?5?$DN?5?$CFf?$CJ?3?5?5d@ 1006ebb0     keyer.obj
 0002:00000c10       ??_C@_0EP@CBHKIDFO@KEYERSTATE_DAH?$CI?$CFf?$CJ?3?5?5ditmem?5?$DN?51@ 1006ec10     keyer.obj
 0002:00000c60       ??_C@_0GL@NDJGCKNN@KEYERSTATE_DAH?$CI?$CFf?$CJ?3?5?5ditmem?5?$DN?51@ 1006ec60     keyer.obj
 0002:00000cd0       ??_C@_0GP@NIOKIGLN@KEYERSTATE_DAH?$CI?$CFf?$CJ?3?5?5ditmem?5?$DN?51@ 1006ecd0     keyer.obj
 0002:00000d40       ??_C@_0FB@MPMHDBNI@KEYERSTATE_TIMEOUT_DAH?$CI?$CFf?$CJ?3?5?5di@ 1006ed40     keyer.obj
 0002:00000d98       ??_C@_0FD@NGHOOGDA@KEYERSTATE_TIMEOUT_DIT?$CI?$CFf?$CJ?3?5?5da@ 1006ed98     keyer.obj
 0002:00000df0       ??_C@_0GM@GLCHABCH@KEYERSTATE_TIMEOUT_CHARACTER_SP@ 1006edf0     keyer.obj
 0002:00000e60       ??_C@_0GM@OONPMGOJ@KEYERSTATE_TIMEOUT_CHARACTER_SP@ 1006ee60     keyer.obj
 0002:00000ecc       ??_C@_0O@BJPHOFDF@newKeyerState@ 1006eecc     keyer.obj
 0002:00000edc       ??_C@_0O@JLIIDLJB@newKeyerLogic@ 1006eedc     keyer.obj
 0002:00000eec       __real@42480000            1006eeec     keyer.obj
 0002:00000ef0       __real@44960000            1006eef0     keyer.obj
 0002:00000ef4       ??_C@_0BB@ONHLDOEI@KEYERSTATE_DIT1?6@ 1006eef4     keyerio.obj
 0002:00000f10       __xmm@00000001000000010000000100000001 1006ef10     keyerio.obj
 0002:00000f20       __xmm@ffffffffffffffffffffffffffffffff 1006ef20     keyerio.obj
 0002:00000f30       ??_C@_0P@NJEKNCFN@new_lmsr?5state@ 1006ef30     lmadf.obj
 0002:00000f40       ??_C@_09CPBHLLEI@lmadf?5CXB@ 1006ef40     lmadf.obj
 0002:00000f4c       ??_C@_0L@GOGALCP@lmsr?5delay@ 1006ef4c     lmadf.obj
 0002:00000f58       ??_C@_0M@CEHIOMMN@lmsr?5filter@ 1006ef58     lmadf.obj
 0002:00000f64       ??_C@_01NOFIACDB@w@        1006ef64     lmadf.obj
 0002:00000f68       ??_C@_0N@LJCILFAA@lms_filt?4csv@ 1006ef68     lmadf.obj
 0002:00000f78       ??_C@_07FDNLNPCG@?$CFf?0?5?$CFf?6@ 1006ef78     lmadf.obj
 0002:00000f80       ??_C@_0O@EJMBFHEG@lms_delay?4csv@ 1006ef80     lmadf.obj
 0002:00000f90       ??_C@_09FGLKDPHL@block?5lms@ 1006ef90     lmadf.obj
 0002:00000f9c       ??_C@_0BF@FNGPFEGA@block?5lms?5delay?5line@ 1006ef9c     lmadf.obj
 0002:00000fb4       ??_C@_0BI@GBCBLAFI@block?5lms?5output?5signal@ 1006efb4     lmadf.obj
 0002:00000fcc       ??_C@_0BL@CAOIPKGN@block?5lms?5output?5transform@ 1006efcc     lmadf.obj
 0002:00000fe8       ??_C@_0BK@GPMGBDLC@block?5lms?5Error?5transform@ 1006efe8     lmadf.obj
 0002:00001004       ??_C@_0BH@LEFFPIGO@block?5lms?5Error?5signal@ 1006f004     lmadf.obj
 0002:0000101c       ??_C@_0BL@GFDICNID@block?5lms?5signal?5transform@ 1006f01c     lmadf.obj
 0002:00001038       ??_C@_0BL@MJCGEMAP@block?5lms?5filter?5transform@ 1006f038     lmadf.obj
 0002:00001054       ??_C@_0BL@IKDIFLBM@block?5lms?5update?5transform@ 1006f054     lmadf.obj
 0002:00001070       ??_C@_0BI@PPJCCOEH@block?5lms?5update?5signal@ 1006f070     lmadf.obj
 0002:00001088       __real@3b800000            1006f088     lmadf.obj
 0002:00001090       __real@3e7ff19e23a836fc    1006f090     lmadf.obj
 0002:00001098       ??_C@_0M@GCOKLJJD@new?5nbstate@ 1006f098     noiseblanker.obj
 0002:000010a4       __real@3c23d70a            1006f0a4     noiseblanker.obj
 0002:000010a8       __real@3f400000            1006f0a8     noiseblanker.obj
 0002:000010b0       __real@3f847ae147ae147b    1006f0b0     noiseblanker.obj
 0002:000010b8       __real@3fd3333333333333    1006f0b8     noiseblanker.obj
 0002:000010c0       __real@3fe3333333333333    1006f0c0     noiseblanker.obj
 0002:000010c8       __real@3fe999999999999a    1006f0c8     noiseblanker.obj
 0002:000010d0       ??_C@_0CF@NPIHDDKL@complex?5buffer?5for?5oscillator?5o@ 1006f0d0     oscillator.obj
 0002:000010f8       ??_C@_0CC@DAOPPKKK@real?5buffer?5for?5oscillator?5outp@ 1006f0f8     oscillator.obj
 0002:0000111c       ??_C@_0BI@IHIIAAPM@new?5overlap?1save?5filter@ 1006f11c     ovsv.obj
 0002:00001134       ??_C@_0BO@GEIFOEKP@raw?5signal?5vec?5in?5newFiltOvSv@ 1006f134     ovsv.obj
 0002:00001154       ??_C@_0BM@HHFFPDBC@filter?5z?5vec?5in?5newFiltOvSv@ 1006f154     ovsv.obj
 0002:00001170       ??_C@_0BP@KJOAOOPI@signal?5in?5z?5vec?5in?5newFiltOvSv@ 1006f170     ovsv.obj
 0002:00001190       ??_C@_0CA@LENGBLIF@signal?5out?5z?5vec?5in?5newFiltOvSv@ 1006f190     ovsv.obj
 0002:000011b0       ??_C@_0CB@OMDAADCL@temp?5filter?5z?5vec?5in?5newFiltOvS@ 1006f1b0     ovsv.obj
 0002:000011d4       ??_C@_0N@GLJFPGDI@PF?5Resampler@ 1006f1d4     resample.obj
 0002:000011e4       ??_C@_0BH@EGELPGEJ@Filter?5buff?3?5resampler@ 1006f1e4     resample.obj
 0002:000011fc       __real@3ee66666            1006f1fc     resample.obj
 0002:00001200       ??_C@_0O@PFKCMGEA@Ring?5creation@ 1006f200     ringb.obj
 0002:00001210       ??_C@_0BA@MLDEFPNP@Ring?5buffer?5buf@ 1006f210     ringb.obj
 0002:00001220       ??_C@_0BE@HHDHKCOH@Float?5Ring?5creation@ 1006f220     ringb.obj
 0002:00001234       ??_C@_0BG@CBFONBFM@Ring?5buffer?5float?5buf@ 1006f234     ringb.obj
 0002:0000124c       _MAX_NOTCHES_IN_PASSBAND   1006f24c     sdr.obj
 0002:00001250       ??_C@_0BA@EJLGOMD@RX?5filter?5cache@ 1006f250     sdr.obj
 0002:00001260       ??_C@_0BJ@BNCENDLM@init?5rx?$FLthread?$FN?$FLk?$FN?4buf?4i@ 1006f260     sdr.obj
 0002:0000127c       ??_C@_0BJ@ELHOHEDK@init?5rx?$FLthread?$FN?$FLk?$FN?4buf?4o@ 1006f27c     sdr.obj
 0002:00001298       ??_C@_0BC@FNMKKCHC@SDR?5RX?5Oscillator@ 1006f298     sdr.obj
 0002:000012ac       ??_C@_03FDJCJIDI@AGC@      1006f2ac     sdr.obj
 0002:000012b0       ??_C@_0BB@JNAMBCKD@AM?5detector?5blew@ 1006f2b0     sdr.obj
 0002:000012c4       ??_C@_0BH@MFJLJHMJ@New?5FM?5Demod?5structure@ 1006f2c4     sdr.obj
 0002:000012dc       ??_C@_0BA@FHAKAHCH@TX?5filter?5cache@ 1006f2dc     sdr.obj
 0002:000012ec       ??_C@_0BG@DHBDIOBA@init?5tx?$FLthread?$FN?4buf?4i@ 1006f2ec     sdr.obj
 0002:00001304       ??_C@_0BG@GBEJCJJG@init?5tx?$FLthread?$FN?4buf?4o@ 1006f304     sdr.obj
 0002:0000131c       ??_C@_0BH@FDFADLIO@init?5tx?$FLthread?$FN?4buf?4ic@ 1006f31c     sdr.obj
 0002:00001334       ??_C@_0BH@FHNNEHDM@init?5tx?$FLthread?$FN?4buf?4oc@ 1006f334     sdr.obj
 0002:0000134c       ??_C@_0BC@KFAIOJME@SDR?5TX?5Oscillator@ 1006f34c     sdr.obj
 0002:00001360       ??_C@_0BH@HMICGMCM@SDR?5TX?5CTTS?5Oscillator@ 1006f360     sdr.obj
 0002:00001378       ??_C@_03DLIEJFGN@LVL@      1006f378     sdr.obj
 0002:0000137c       ??_C@_03FPMHHHNJ@ALC@      1006f37c     sdr.obj
 0002:00001380       ??_C@_04EPCGJKAP@RIFF@     1006f380     sdr.obj
 0002:00001388       ??_C@_04HFHJMNCD@WAVE@     1006f388     sdr.obj
 0002:00001390       ??_C@_04CAJPEBPP@fmt?5@    1006f390     sdr.obj
 0002:00001398       ??_C@_04PJOLNDGD@data@     1006f398     sdr.obj
 0002:000013a0       __real@0000000000000000    1006f3a0     sdr.obj
 0002:000013a8       __real@33d6bf95            1006f3a8     sdr.obj
 0002:000013b0       __real@3bc79ca10c924223    1006f3b0     sdr.obj
 0002:000013b8       __real@3c670ef54646d497    1006f3b8     sdr.obj
 0002:000013c0       __real@3c9cd2b297d889bc    1006f3c0     sdr.obj
 0002:000013c8       __real@3ddb7cdfd9d7bdbb    1006f3c8     sdr.obj
 0002:000013d0       __real@3f40624dd2f1a9fc    1006f3d0     sdr.obj
 0002:000013d8       __real@3fa999999999999a    1006f3d8     sdr.obj
 0002:000013e0       __real@3fb4fdf4            1006f3e0     sdr.obj
 0002:000013e8       __real@3fee666666666666    1006f3e8     sdr.obj
 0002:000013f0       __real@3feffbe76c8b4396    1006f3f0     sdr.obj
 0002:000013f8       __real@403e000000000000    1006f3f8     sdr.obj
 0002:00001400       __real@40400000            1006f400     sdr.obj
 0002:00001408       __real@4059000000000000    1006f408     sdr.obj
 0002:00001410       __real@40d268639437ef07    1006f410     sdr.obj
 0002:00001418       __real@c024000000000000    1006f418     sdr.obj
 0002:00001420       __real@c034000000000000    1006f420     sdr.obj
 0002:00001428       __real@c0c1940000000000    1006f428     sdr.obj
 0002:00001430       __real@c61c4000            1006f430     sdr.obj
 0002:00001440       __xmm@c3480000c3480000c3480000c3480000 1006f440     sdr.obj
 0002:00001450       ??_C@_0P@KNJCGAFL@spectrum?5accum@ 1006f450     spectrum.obj
 0002:00001460       ??_C@_0BB@OHMCKIGK@spectrum?5timebuf@ 1006f460     spectrum.obj
 0002:00001474       ??_C@_0BB@MFLGOFCH@spectrum?5freqbuf@ 1006f474     spectrum.obj
 0002:00001488       ??_C@_0BA@CKEOFPJK@spectrum?5window@ 1006f488     spectrum.obj
 0002:00001498       ??_C@_0BA@MFNMHFFN@spectrum?5output@ 1006f498     spectrum.obj
 0002:000014a8       __real@3379b604aaaca626    1006f4a8     spectrum.obj
 0002:000014b0       ??_C@_0BF@LFJLOFJI@new?5speech?5processor@ 1006f4b0     speechproc.obj
 0002:000014c8       ??_C@_0BO@PMGLEGMC@CG?5buffer?5in?5Speech?5Processor@ 1006f4c8     speechproc.obj
 0002:000014e8       ??_C@_0BG@EICNGJAA@speech?5processor?5data@ 1006f4e8     speechproc.obj
 0002:00001500       __real@3f0506286168bdbe    1006f500     speechproc.obj
 0002:00001508       __real@3f6a4a78c17f3333    1006f508     speechproc.obj
 0002:00001510       __real@3faf60e9ef854f03    1006f510     speechproc.obj
 0002:00001518       __real@3fd0000000000000    1006f518     speechproc.obj
 0002:00001520       __real@3fef3b2f067379af    1006f520     speechproc.obj
 0002:00001528       ??_C@_03ILLHFMNI@?5?7?6@   1006f528     splitfields.obj
 0002:0000152c       ??_C@_0L@GOAOKAMM@splitfield@ 1006f52c     splitfields.obj
 0002:00001538       ??_C@_0BA@MCBNLB@SpotToneGenDesc@ 1006f538     spottone.obj
 0002:00001548       ??_C@_0N@EDCJAJCK@SpotTone?5osc@ 1006f548     spottone.obj
 0002:00001558       ??_C@_0BA@IIFNHMHC@SpotToneGen?5buf@ 1006f558     spottone.obj
 0002:00001568       ??_C@_0BP@IMIHPDOO@TX?5dttsp?5SetTXFMDeviation?3?5?$CFf?6@ 1006f568     update.obj
 0002:00001588       ??_C@_0BM@KEGAPNDD@dttsp?5SetRXFMDeviation?3?5?$CFf?6@ 1006f588     update.obj
 0002:000015a4       ??_C@_0BK@FEGNDMAC@filter?5z?5vec?5in?5setFilter@ 1006f5a4     update.obj
 0002:000015c0       ??_C@_0O@EHGGCPCH@filter?5for?5EQ@ 1006f5c0     update.obj
 0002:000015d0       ??_C@_0BC@FPOKDHI@tmp?5filter?5for?5EQ@ 1006f5d0     update.obj
 0002:000015e4       __real@3b000000            1006f5e4     update.obj
 0002:000015e8       __real@3f3504f7            1006f5e8     update.obj
 0002:000015f0       __real@3f661e4f765fd8ae    1006f5f0     update.obj
 0002:000015f8       __real@3f666666            1006f5f8     update.obj
 0002:00001600       __real@3f689374bc6a7efa    1006f600     update.obj
 0002:00001608       __real@3ff1f5989df1172f    1006f608     update.obj
 0002:00001610       __real@3ff3333333333333    1006f610     update.obj
 0002:00001618       __real@3ff69fbe76c8b439    1006f618     update.obj
 0002:00001620       __real@3ff8000000000000    1006f620     update.obj
 0002:00001628       __real@406f400000000000    1006f628     update.obj
 0002:00001630       __real@407f400000000000    1006f630     update.obj
 0002:00001638       __real@42f00000            1006f638     update.obj
 0002:00001640       __xmm@7fffffff7fffffff7fffffff7fffffff 1006f640     update.obj
 0002:00001650       __real@3f85cb0040000000    1006f650     window.obj
 0002:00001658       __real@3f87ebaf20000000    1006f658     window.obj
 0002:00001660       __real@3fa5176145953587    1006f660     window.obj
 0002:00001668       __real@3fa7ebaf102363b2    1006f668     window.obj
 0002:00001670       __real@3fb58372e6a76966    1006f670     window.obj
 0002:00001678       __real@3fc17c17a0000000    1006f678     window.obj
 0002:00001680       __real@3fc2157680000000    1006f680     window.obj
 0002:00001688       __real@3fc447c30d306a2b    1006f688     window.obj
 0002:00001690       __real@3fca934acaff6d33    1006f690     window.obj
 0002:00001698       __real@3fcbd60e94ee392e    1006f698     window.obj
 0002:000016a0       __real@3fd2157689ca18bd    1006f6a0     window.obj
 0002:000016a8       __real@3fd2a71de69ad42c    1006f6a8     window.obj
 0002:000016b0       __real@3fd6044284dfce31    1006f6b0     window.obj
 0002:000016b8       __real@3fd6f5c280000000    1006f6b8     window.obj
 0002:000016c0       __real@3fd744ed00000000    1006f6c0     window.obj
 0002:000016c8       __real@3fd80b673c4f3ba7    1006f6c8     window.obj
 0002:000016d0       __real@3fdd020c49ba5e35    1006f6d0     window.obj
 0002:000016d8       __real@3fdd70a3d70a3d71    1006f6d8     window.obj
 0002:000016e0       __real@3fdf4024c0000000    1006f6e0     window.obj
 0002:000016e8       __real@3fdf4eaf20000000    1006f6e8     window.obj
 0002:000016f0       __real@3fdfd7dbf487fcb9    1006f6f0     window.obj
 0002:000016f8       __real@3fe147ae147ae148    1006f6f8     window.obj
 0002:00001700       ??_C@_0BG@GGFEMFDL@main?5hold?5buffer?5left@ 1006f700     winmain.obj
 0002:00001718       ??_C@_0BH@KLJCLCII@main?5hold?5buffer?5right@ 1006f718     winmain.obj
 0002:00001730       ??_C@_0BF@ICAMHHED@aux?5hold?5buffer?5left@ 1006f730     winmain.obj
 0002:00001748       ??_C@_0BG@PFKIBDDE@aux?5hold?5buffer?5right@ 1006f748     winmain.obj
 0002:00001760       ??_C@_0L@EBOMMFNC@sdr?9?$CFd?9?$CF0u@ 1006f760     winmain.obj
 0002:0000176c       ??_C@_08NLJNPLHL@?4DttSPrc@ 1006f76c     winmain.obj
 0002:00001778       ??_C@_0L@HPBDBCFK@?$CFs?$CF0lu_?$CF0u@ 1006f778     winmain.obj
 0002:00001784       ??_C@_0BF@IBJDIOPD@?2?2?4?2pipe?2SDRcommands@ 1006f784     winmain.obj
 0002:0000179c       ??_C@_0BC@PGLHAHFE@?2?2?4?2pipe?2SDRmeter@ 1006f79c     winmain.obj
 0002:000017b0       ??_C@_0BF@PKEHMGFP@?2?2?4?2pipe?2SDRspectrum@ 1006f7b0     winmain.obj
 0002:000017c8       ??_C@_08MOJGIHGC@?4?2wisdom@ 1006f7c8     winmain.obj
 0002:000017d8       __real@3f747ae147ae147b    1006f7d8     winmain.obj
 0002:000017e0       ??_C@_0BD@NDOHHLCJ@WSCompander?5struct@ 1006f7e0     wscompand.obj
 0002:000017f4       ??_C@_0BC@MGFGCHOO@WSCompander?5table@ 1006f7f4     wscompand.obj
 0002:00001808       ??_C@_0BB@KKBLCLFB@WSCompander?5buff@ 1006f808     wscompand.obj
 0002:0000181c       ??_C@_0O@NPMBFNBD@InitSpeedTrig@ 1006f81c     fastrig1.obj
 0002:00001830       __real@3f30000000000000    1006f830     fastrig1.obj
 0002:00001838       __real@3f70101029aa03b0    1006f838     fastrig1.obj
 0002:00001840       __real@3fc90fdb            1006f840     fastrig1.obj
 0002:00001844       __real@40490fdb            1006f844     fastrig1.obj
 0002:00001848       __real@437f8000            1006f848     fastrig1.obj
 0002:0000184c       __real@bfc90fdb            1006f84c     fastrig1.obj
 0002:00001878       __pRawDllMain              1006f878     LIBCMT:dll_dllmain.obj
 0002:00001878       __pDefaultRawDllMain       1006f878     LIBCMT:dll_dllmain.obj
 0002:00001884       __pDestructExceptionObject 1006f884     libvcruntime:ehhelpers.obj
 0002:00001c08       ??_C@_08EHJDFFNH@__based?$CI@ 1006fc08     libvcruntime:undname.obj
 0002:00001c14       ??_C@_07KOLFKCDI@__cdecl@  1006fc14     libvcruntime:undname.obj
 0002:00001c1c       ??_C@_08GHMPAG@__pascal@   1006fc1c     libvcruntime:undname.obj
 0002:00001c28       ??_C@_09IFJBGAPI@__stdcall@ 1006fc28     libvcruntime:undname.obj
 0002:00001c34       ??_C@_0L@NPHFGOKO@__thiscall@ 1006fc34     libvcruntime:undname.obj
 0002:00001c40       ??_C@_0L@JMKHOMEK@__fastcall@ 1006fc40     libvcruntime:undname.obj
 0002:00001c4c       ??_C@_0N@BCKKPABJ@__vectorcall@ 1006fc4c     libvcruntime:undname.obj
 0002:00001c5c       ??_C@_09HIJEGCPM@__clrcall@ 1006fc5c     libvcruntime:undname.obj
 0002:00001c68       ??_C@_06GHPCKEAG@__eabi@   1006fc68     libvcruntime:undname.obj
 0002:00001c70       ??_C@_09IOPIDJLG@__swift_1@ 1006fc70     libvcruntime:undname.obj
 0002:00001c7c       ??_C@_09KFNFGKHF@__swift_2@ 1006fc7c     libvcruntime:undname.obj
 0002:00001c88       ??_C@_07JOMMBBKO@__ptr64@  1006fc88     libvcruntime:undname.obj
 0002:00001c90       ??_C@_0L@PILCLIHE@__restrict@ 1006fc90     libvcruntime:undname.obj
 0002:00001c9c       ??_C@_0M@GFIIJFMG@__unaligned@ 1006fc9c     libvcruntime:undname.obj
 0002:00001ca8       ??_C@_09DHDLOLLB@restrict?$CI@ 1006fca8     libvcruntime:undname.obj
 0002:00001cb2       ??_C@_00CNPNBAHC@@         1006fcb2     libvcruntime:undname.obj
 0002:00001cb4       ??_C@_04NIHEBCM@?5new@     1006fcb4     libvcruntime:undname.obj
 0002:00001cbc       ??_C@_07FPCDHGMM@?5delete@ 1006fcbc     libvcruntime:undname.obj
 0002:00001cc4       ??_C@_01NEMOKFLO@?$DN@     1006fcc4     libvcruntime:undname.obj
 0002:00001cc8       ??_C@_02GPIOPFAK@?$DO?$DO@ 1006fcc8     libvcruntime:undname.obj
 0002:00001ccc       ??_C@_02FODMEDOG@?$DM?$DM@ 1006fccc     libvcruntime:undname.obj
 0002:00001cd0       ??_C@_01DCLJPIOD@?$CB@     1006fcd0     libvcruntime:undname.obj
 0002:00001cd4       ??_C@_02EGOFBIJA@?$DN?$DN@ 1006fcd4     libvcruntime:undname.obj
 0002:00001cd8       ??_C@_02FDNJECIE@?$CB?$DN@ 1006fcd8     libvcruntime:undname.obj
 0002:00001cdc       ??_C@_02GPECMEKF@?$FL?$FN@ 1006fcdc     libvcruntime:undname.obj
 0002:00001ce0       ??_C@_08LHJFAFGD@operator@ 1006fce0     libvcruntime:undname.obj
 0002:00001cec       ??_C@_02HBOOOICD@?9?$DO@   1006fcec     libvcruntime:undname.obj
 0002:00001cf0       ??_C@_01NBENCBCI@?$CK@     1006fcf0     libvcruntime:undname.obj
 0002:00001cf4       ??_C@_02ECNGHCIF@?$CL?$CL@ 1006fcf4     libvcruntime:undname.obj
 0002:00001cf8       ??_C@_02BAABKJLB@?9?9@     1006fcf8     libvcruntime:undname.obj
 0002:00001cfc       ??_C@_01JOAMLHOP@?9@       1006fcfc     libvcruntime:undname.obj
 0002:00001d00       ??_C@_01MIFGBAGJ@?$CL@     1006fd00     libvcruntime:undname.obj
 0002:00001d04       ??_C@_01HNPIGOCE@?$CG@     1006fd04     libvcruntime:undname.obj
 0002:00001d08       ??_C@_03MNHNFDLC@?9?$DO?$CK@ 1006fd08     libvcruntime:undname.obj
 0002:00001d0c       ??_C@_01KMDKNFGN@?1@       1006fd0c     libvcruntime:undname.obj
 0002:00001d10       ??_C@_01FGNFDNOH@?$CF@     1006fd10     libvcruntime:undname.obj
 0002:00001d14       ??_C@_01MNNFJEPP@?$DM@     1006fd14     libvcruntime:undname.obj
 0002:00001d18       ??_C@_02EHCHHCKH@?$DM?$DN@ 1006fd18     libvcruntime:undname.obj
 0002:00001d1c       ??_C@_01PPODPGHN@?$DO@     1006fd1c     libvcruntime:undname.obj
 0002:00001d20       ??_C@_02EEKDKGMJ@?$DO?$DN@ 1006fd20     libvcruntime:undname.obj
 0002:00001d24       ??_C@_01IHBHIGKO@?0@       1006fd24     libvcruntime:undname.obj
 0002:00001d28       ??_C@_02HCKGKOFO@?$CI?$CJ@ 1006fd28     libvcruntime:undname.obj
 0002:00001d2c       ??_C@_01PJKLJHI@?$HO@      1006fd2c     libvcruntime:undname.obj
 0002:00001d30       ??_C@_01JKBOJNNK@?$FO@     1006fd30     libvcruntime:undname.obj
 0002:00001d34       ??_C@_01DNKMNLPK@?$HM@     1006fd34     libvcruntime:undname.obj
 0002:00001d38       ??_C@_02PPKAJPJL@?$CG?$CG@ 1006fd38     libvcruntime:undname.obj
 0002:00001d3c       ??_C@_02NONPIBCD@?$HM?$HM@ 1006fd3c     libvcruntime:undname.obj
 0002:00001d40       ??_C@_02FPIMKNGF@?$CK?$DN@ 1006fd40     libvcruntime:undname.obj
 0002:00001d44       ??_C@_02FOEOMHFC@?$CL?$DN@ 1006fd44     libvcruntime:undname.obj
 0002:00001d48       ??_C@_02FKMDLLOA@?9?$DN@   1006fd48     libvcruntime:undname.obj
 0002:00001d4c       ??_C@_02FJEHGPIO@?1?$DN@   1006fd4c     libvcruntime:undname.obj
 0002:00001d50       ??_C@_02FENAOKFI@?$CF?$DN@ 1006fd50     libvcruntime:undname.obj
 0002:00001d54       ??_C@_03IKFCCPFF@?$DO?$DO?$DN@ 1006fd54     libvcruntime:undname.obj
 0002:00001d58       ??_C@_03CDNPDDLA@?$DM?$DM?$DN@ 1006fd58     libvcruntime:undname.obj
 0002:00001d5c       ??_C@_02FGJGFEAB@?$CG?$DN@ 1006fd5c     libvcruntime:undname.obj
 0002:00001d60       ??_C@_02DHLNPPGH@?$HM?$DN@ 1006fd60     libvcruntime:undname.obj
 0002:00001d64       ??_C@_02MHEGNOJ@?$FO?$DN@  1006fd64     libvcruntime:undname.obj
 0002:00001d68       ??_C@_09IFPLHPGF@?$GAvftable?8@ 1006fd68     libvcruntime:undname.obj
 0002:00001d74       ??_C@_09BLBHBJP@?$GAvbtable?8@ 1006fd74     libvcruntime:undname.obj
 0002:00001d80       ??_C@_07FEEIOKP@?$GAvcall?8@ 1006fd80     libvcruntime:undname.obj
 0002:00001d88       ??_C@_08LLFFHHDJ@?$GAtypeof?8@ 1006fd88     libvcruntime:undname.obj
 0002:00001d94       ??_C@_0BF@KDPPACIK@?$GAlocal?5static?5guard?8@ 1006fd94     libvcruntime:undname.obj
 0002:00001dac       ??_C@_08OBABFOLI@?$GAstring?8@ 1006fdac     libvcruntime:undname.obj
 0002:00001db8       ??_C@_0BD@JDLKDPAB@?$GAvbase?5destructor?8@ 1006fdb8     libvcruntime:undname.obj
 0002:00001dcc       ??_C@_0BN@DEGPLNFK@?$GAvector?5deleting?5destructor?8@ 1006fdcc     libvcruntime:undname.obj
 0002:00001dec       ??_C@_0BO@OBMKPJIG@?$GAdefault?5constructor?5closure?8@ 1006fdec     libvcruntime:undname.obj
 0002:00001e0c       ??_C@_0BN@IMDCHIKM@?$GAscalar?5deleting?5destructor?8@ 1006fe0c     libvcruntime:undname.obj
 0002:00001e2c       ??_C@_0BO@PFGOCPJJ@?$GAvector?5constructor?5iterator?8@ 1006fe2c     libvcruntime:undname.obj
 0002:00001e4c       ??_C@_0BN@LFPFMEDL@?$GAvector?5destructor?5iterator?8@ 1006fe4c     libvcruntime:undname.obj
 0002:00001e6c       ??_C@_0CE@IKBNEHA@?$GAvector?5vbase?5constructor?5itera@ 1006fe6c     libvcruntime:undname.obj
 0002:00001e90       ??_C@_0BL@NILFHHPC@?$GAvirtual?5displacement?5map?8@ 1006fe90     libvcruntime:undname.obj
 0002:00001eac       ??_C@_0CB@JONCMFFK@?$GAeh?5vector?5constructor?5iterator@ 1006feac     libvcruntime:undname.obj
 0002:00001ed0       ??_C@_0CA@GCEOPDGL@?$GAeh?5vector?5destructor?5iterator?8@ 1006fed0     libvcruntime:undname.obj
 0002:00001ef0       ??_C@_0CH@OOJPLCPH@?$GAeh?5vector?5vbase?5constructor?5it@ 1006fef0     libvcruntime:undname.obj
 0002:00001f18       ??_C@_0BL@LLKPOHJI@?$GAcopy?5constructor?5closure?8@ 1006ff18     libvcruntime:undname.obj
 0002:00001f34       ??_C@_0BA@KBCDOMBN@?$GAudt?5returning?8@ 1006ff34     libvcruntime:undname.obj
 0002:00001f44       ??_C@_03KLGMFNMG@?$GAEH@   1006ff44     libvcruntime:undname.obj
 0002:00001f48       ??_C@_05KHLCHHI@?$GARTTI@  1006ff48     libvcruntime:undname.obj
 0002:00001f50       ??_C@_0BA@KKLDJDLB@?$GAlocal?5vftable?8@ 1006ff50     libvcruntime:undname.obj
 0002:00001f60       ??_C@_0CE@IIHCMGGL@?$GAlocal?5vftable?5constructor?5clos@ 1006ff60     libvcruntime:undname.obj
 0002:00001f84       ??_C@_06FHBGPFGH@?5new?$FL?$FN@ 1006ff84     libvcruntime:undname.obj
 0002:00001f8c       ??_C@_09LBNFPBCA@?5delete?$FL?$FN@ 1006ff8c     libvcruntime:undname.obj
 0002:00001f98       ??_C@_0P@HJKNJFNN@?$GAomni?5callsig?8@ 1006ff98     libvcruntime:undname.obj
 0002:00001fa8       ??_C@_0BL@CNOONJFP@?$GAplacement?5delete?5closure?8@ 1006ffa8     libvcruntime:undname.obj
 0002:00001fc4       ??_C@_0BN@CKNJLHMB@?$GAplacement?5delete?$FL?$FN?5closure?8@ 1006ffc4     libvcruntime:undname.obj
 0002:00001fe4       ??_C@_0CG@CFDHKGGD@?$GAmanaged?5vector?5constructor?5ite@ 1006ffe4     libvcruntime:undname.obj
 0002:0000200c       ??_C@_0CF@IMGKMJNO@?$GAmanaged?5vector?5destructor?5iter@ 1007000c     libvcruntime:undname.obj
 0002:00002034       ??_C@_0CG@HLDDJMAG@?$GAeh?5vector?5copy?5constructor?5ite@ 10070034     libvcruntime:undname.obj
 0002:0000205c       ??_C@_0CM@FCBBDIGB@?$GAeh?5vector?5vbase?5copy?5construct@ 1007005c     libvcruntime:undname.obj
 0002:00002088       ??_C@_0BL@CLIPGLGB@?$GAdynamic?5initializer?5for?5?8@ 10070088     libvcruntime:undname.obj
 0002:000020a4       ??_C@_0CB@PDBIFEP@?$GAdynamic?5atexit?5destructor?5for?5@ 100700a4     libvcruntime:undname.obj
 0002:000020c8       ??_C@_0CD@CGAJBKEJ@?$GAvector?5copy?5constructor?5iterat@ 100700c8     libvcruntime:undname.obj
 0002:000020ec       ??_C@_0CJ@GJELGAMM@?$GAvector?5vbase?5copy?5constructor?5@ 100700ec     libvcruntime:undname.obj
 0002:00002118       ??_C@_0CL@FGIJHLCE@?$GAmanaged?5vector?5copy?5constructo@ 10070118     libvcruntime:undname.obj
 0002:00002144       ??_C@_0BM@PMGGMLDN@?$GAlocal?5static?5thread?5guard?8@ 10070144     libvcruntime:undname.obj
 0002:00002160       ??_C@_0N@BDNMDMOL@operator?5?$CC?$CC?5@ 10070160     libvcruntime:undname.obj
 0002:00002170       ??_C@_0BC@GGEBGALA@operator?5co_await@ 10070170     libvcruntime:undname.obj
 0002:00002184       ??_C@_0M@GAAIMMOH@operator?$DM?$DN?$DO@ 10070184     libvcruntime:undname.obj
 0002:00002190       ??_C@_0BC@DAFEJGAK@?5Type?5Descriptor?8@ 10070190     libvcruntime:undname.obj
 0002:000021a4       ??_C@_0BM@LDKODKLH@?5Base?5Class?5Descriptor?5at?5?$CI@ 100701a4     libvcruntime:undname.obj
 0002:000021c0       ??_C@_0BD@LGICGFMM@?5Base?5Class?5Array?8@ 100701c0     libvcruntime:undname.obj
 0002:000021d4       ??_C@_0BN@MECKDCOJ@?5Class?5Hierarchy?5Descriptor?8@ 100701d4     libvcruntime:undname.obj
 0002:000021f4       ??_C@_0BK@CFCOFLF@?5Complete?5Object?5Locator?8@ 100701f4     libvcruntime:undname.obj
 0002:00002210       ??_C@_0BG@JNJLAMPM@?$GAanonymous?5namespace?8@ 10070210     libvcruntime:undname.obj
 0002:00002228       ??_C@_04HEJADOOB@CV?3?5@   10070228     libvcruntime:undname.obj
 0002:00002230       ??_C@_02MOLJINC@?3?3@      10070230     libvcruntime:undname.obj
 0002:00002234       ??_C@_0BE@JAEOCHPE@template?9parameter?9@ 10070234     libvcruntime:undname.obj
 0002:00002248       ??_C@_0BF@LNLGBBNL@?$GAtemplate?9parameter?9@ 10070248     libvcruntime:undname.obj
 0002:00002260       ??_C@_0O@KHGCOMHP@generic?9type?9@ 10070260     libvcruntime:undname.obj
 0002:00002270       ??_C@_0P@ODDENDLM@?$GAgeneric?9type?9@ 10070270     libvcruntime:undname.obj
 0002:00002280       ??_C@_02OHHJMEON@?8?8@     10070280     libvcruntime:undname.obj
 0002:00002284       ??_C@_0BN@IBLMMFAP@?$GAnon?9type?9template?9parameter@ 10070284     libvcruntime:undname.obj
 0002:000022a4       ??_C@_03DLDNIBIK@?$CFlf@   100702a4     libvcruntime:undname.obj
 0002:000022a8       ??_C@_04OFALKAJ@?$DP?$DP_C@ 100702a8     libvcruntime:undname.obj
 0002:000022b0       ??_C@_03KHICJKCI@?4?4?4@   100702b0     libvcruntime:undname.obj
 0002:000022b4       ??_C@_04HIBGFPH@NULL@      100702b4     libvcruntime:undname.obj
 0002:000022bc       ??_C@_02DPKJAMEF@?$CFd@    100702bc     libvcruntime:undname.obj
 0002:000022c0       ??_C@_0BK@IHCCFNEL@?$GAtemplate?9type?9parameter?9@ 100702c0     libvcruntime:undname.obj
 0002:000022dc       ??_C@_0BK@OFCNNNKO@?$GAgeneric?9class?9parameter?9@ 100702dc     libvcruntime:undname.obj
 0002:000022f8       ??_C@_0BL@NGJBLFIL@?$GAgeneric?9method?9parameter?9@ 100702f8     libvcruntime:undname.obj
 0002:00002314       ??_C@_07OHNGEDJK@nullptr@  10070314     libvcruntime:undname.obj
 0002:0000231c       ??_C@_04GKJNKENE@void@     1007031c     libvcruntime:undname.obj
 0002:00002324       ??_C@_0BE@EODMJLIF@?$GAtemplate?9parameter@ 10070324     libvcruntime:undname.obj
 0002:00002338       ??_C@_03OPGICMGF@?$HN?8?5@ 10070338     libvcruntime:undname.obj
 0002:0000233c       ??_C@_02IGFCGPIL@?$HN?8@   1007033c     libvcruntime:undname.obj
 0002:00002340       ??_C@_0N@CBHHHENL@?$GAvtordispex?$HL@ 10070340     libvcruntime:undname.obj
 0002:00002350       ??_C@_0L@GHPFDFH@?$GAvtordisp?$HL@ 10070350     libvcruntime:undname.obj
 0002:0000235c       ??_C@_0L@HNGCOGAE@?$GAadjustor?$HL@ 1007035c     libvcruntime:undname.obj
 0002:00002368       ??_C@_0CB@KJDOOODE@?$GAlocal?5static?5destructor?5helper@ 10070368     libvcruntime:undname.obj
 0002:0000238c       ??_C@_0DB@ILEFOCIJ@?$GAtemplate?5static?5data?5member?5co@ 1007038c     libvcruntime:undname.obj
 0002:000023c0       ??_C@_0DA@HGFJFBBE@?$GAtemplate?5static?5data?5member?5de@ 100703c0     libvcruntime:undname.obj
 0002:000023f0       ??_C@_07PGOEDBHP@static?5@ 100703f0     libvcruntime:undname.obj
 0002:000023f8       ??_C@_08NIEOINHE@virtual?5@ 100703f8     libvcruntime:undname.obj
 0002:00002404       ??_C@_09LAPHOOG@private?3?5@ 10070404     libvcruntime:undname.obj
 0002:00002410       ??_C@_0M@GAIFPFIP@protected?3?5@ 10070410     libvcruntime:undname.obj
 0002:0000241c       ??_C@_08GPDDCMKI@public?3?5@ 1007041c     libvcruntime:undname.obj
 0002:00002428       ??_C@_08KJLFOPNE@?$FLthunk?$FN?3@ 10070428     libvcruntime:undname.obj
 0002:00002434       ??_C@_0M@DHNBOJMP@extern?5?$CCC?$CC?5@ 10070434     libvcruntime:undname.obj
 0002:00002440       ??_C@_02KCKGHPCA@?$CJ?5@   10070440     libvcruntime:undname.obj
 0002:00002444       ??_C@_05CIHEBHNO@char?5@   10070444     libvcruntime:undname.obj
 0002:0000244c       ??_C@_06EHJMALKF@short?5@  1007044c     libvcruntime:undname.obj
 0002:00002454       ??_C@_04LAHKHJMA@int?5@    10070454     libvcruntime:undname.obj
 0002:0000245c       ??_C@_05CJIMAING@long?5@   1007045c     libvcruntime:undname.obj
 0002:00002464       ??_C@_09EBBEKKIH@unsigned?5@ 10070464     libvcruntime:undname.obj
 0002:00002470       ??_C@_05BEFAKPML@void?5@   10070470     libvcruntime:undname.obj
 0002:00002478       ??_C@_09GAIEOBLP@volatile?5@ 10070478     libvcruntime:undname.obj
 0002:00002484       ??_C@_08PABEKFH@volatile@  10070484     libvcruntime:undname.obj
 0002:00002490       ??_C@_0BA@LKIJLKPP@std?3?3nullptr_t?5@ 10070490     libvcruntime:undname.obj
 0002:000024a0       ??_C@_0P@GCOCNKDM@std?3?3nullptr_t@ 100704a0     libvcruntime:undname.obj
 0002:000024b0       ??_C@_0L@EGPHHEKN@?$DMellipsis?$DO@ 100704b0     libvcruntime:undname.obj
 0002:000024bc       ??_C@_04EENFHACM@?0?4?4?4@ 100704bc     libvcruntime:undname.obj
 0002:000024c4       ??_C@_0M@ELJOJFFH@?0?$DMellipsis?$DO@ 100704c4     libvcruntime:undname.obj
 0002:000024d0       ??_C@_09DNHFEOJI@?5noexcept@ 100704d0     libvcruntime:undname.obj
 0002:000024dc       ??_C@_03PBJBJNON@cpu@      100704dc     libvcruntime:undname.obj
 0002:000024e0       ??_C@_03DCBBJBAA@amp@      100704e0     libvcruntime:undname.obj
 0002:000024e4       ??_C@_02KEGNLNML@?0?5@     100704e4     libvcruntime:undname.obj
 0002:000024e8       ??_C@_04ENMBGAPA@char@     100704e8     libvcruntime:undname.obj
 0002:000024f0       ??_C@_05BFKKPKCG@short@    100704f0     libvcruntime:undname.obj
 0002:000024f8       ??_C@_03JBIPMCLC@int@      100704f8     libvcruntime:undname.obj
 0002:000024fc       ??_C@_04GOKPGOLB@long@     100704fc     libvcruntime:undname.obj
 0002:00002504       ??_C@_05KNFBNCOH@float@    10070504     libvcruntime:undname.obj
 0002:0000250c       ??_C@_06BNJCAIGJ@double@   1007050c     libvcruntime:undname.obj
 0002:00002514       ??_C@_04DDKJGDCM@bool@     10070514     libvcruntime:undname.obj
 0002:0000251c       ??_C@_06EBGKOKIG@__int8@   1007051c     libvcruntime:undname.obj
 0002:00002524       ??_C@_07ICFHOGAF@__int16@  10070524     libvcruntime:undname.obj
 0002:0000252c       ??_C@_07OFLPPHGP@__int32@  1007052c     libvcruntime:undname.obj
 0002:00002534       ??_C@_07LFCOJCAC@__int64@  10070534     libvcruntime:undname.obj
 0002:0000253c       ??_C@_08GAHOLHEO@__int128@ 1007053c     libvcruntime:undname.obj
 0002:00002548       ??_C@_09EEKGDCPH@?$DMunknown?$DO@ 10070548     libvcruntime:undname.obj
 0002:00002554       ??_C@_07CFHGOPCN@char8_t@  10070554     libvcruntime:undname.obj
 0002:0000255c       ??_C@_08HBIPOFJB@char16_t@ 1007055c     libvcruntime:undname.obj
 0002:00002568       ??_C@_08IECNCBKG@char32_t@ 10070568     libvcruntime:undname.obj
 0002:00002574       ??_C@_07CLGGIAMF@wchar_t@  10070574     libvcruntime:undname.obj
 0002:0000257c       ??_C@_04HAPDLBFF@auto@     1007057c     libvcruntime:undname.obj
 0002:00002584       ??_C@_0P@LHCGKIGK@decltype?$CIauto?$CJ@ 10070584     libvcruntime:undname.obj
 0002:00002594       ??_C@_06GCICPBLB@__w64?5@  10070594     libvcruntime:undname.obj
 0002:0000259c       ??_C@_07NFANNNEC@UNKNOWN@  1007059c     libvcruntime:undname.obj
 0002:000025a4       ??_C@_07EDHNAJHC@signed?5@ 100705a4     libvcruntime:undname.obj
 0002:000025ac       ??_C@_05BNCCCJPP@const@    100705ac     libvcruntime:undname.obj
 0002:000025b4       ??_C@_09EFNPDFFP@?5volatile@ 100705b4     libvcruntime:undname.obj
 0002:000025c0       ??_C@_0P@GCIFDJCJ@?$GAunknown?5ecsu?8@ 100705c0     libvcruntime:undname.obj
 0002:000025d0       ??_C@_06MOJHIBMG@union?5@  100705d0     libvcruntime:undname.obj
 0002:000025d8       ??_C@_07DIBCDNGL@struct?5@ 100705d8     libvcruntime:undname.obj
 0002:000025e0       ??_C@_06LJBABKPM@class?5@  100705e0     libvcruntime:undname.obj
 0002:000025e8       ??_C@_08KOFANOFK@coclass?5@ 100705e8     libvcruntime:undname.obj
 0002:000025f4       ??_C@_0N@DLIEFKNA@cointerface?5@ 100705f4     libvcruntime:undname.obj
 0002:00002604       ??_C@_05LJGMCFOG@enum?5@   10070604     libvcruntime:undname.obj
 0002:0000260c       ??_C@_06LIJLOJAG@const?5@  1007060c     libvcruntime:undname.obj
 0002:00002614       ??_C@_02KJPKDIBN@?$CG?5@   10070614     libvcruntime:undname.obj
 0002:00002618       ??_C@_03PCKGMOPB@?$CG?$CG?5@ 10070618     libvcruntime:undname.obj
 0002:0000261c       ??_C@_0M@EALIELKG@cli?3?3array?$DM@ 1007061c     libvcruntime:undname.obj
 0002:00002628       ??_C@_0O@GKABPPIF@cli?3?3pin_ptr?$DM@ 10070628     libvcruntime:undname.obj
 0002:00002638       ??_C@_02GOGNNPBN@?$CJ?$FL@ 10070638     libvcruntime:undname.obj
 0002:0000263c       ??_C@_06EEGAIFAK@?$HLflat?$HN@ 1007063c     libvcruntime:undname.obj
 0002:00002644       ??_C@_05JIBOFOHK@?$HLfor?5@ 10070644     libvcruntime:undname.obj
 0002:0000264c       ??_C@_02MDINNEEG@s?5@      1007064c     libvcruntime:undname.obj
 0002:00002654       ??_7DNameNode@@6B@         10070654     libvcruntime:undname.obj
 0002:00002668       ??_7charNode@@6B@          10070668     libvcruntime:undname.obj
 0002:0000267c       ??_7pcharNode@@6B@         1007067c     libvcruntime:undname.obj
 0002:00002690       ??_7pDNameNode@@6B@        10070690     libvcruntime:undname.obj
 0002:000026a4       ??_7DNameStatusNode@@6B@   100706a4     libvcruntime:undname.obj
 0002:000026b8       ??_7pairNode@@6B@          100706b8     libvcruntime:undname.obj
 0002:000027c8       ??_C@_04OKOHEJBO@?5?$DP?$DP?5@ 100707c8     libvcruntime:undname.obj
 0002:000027d0       ?nodes@?1??make@DNameStatusNode@@SAPBV2@W4DNameStatus@@@Z@4QBV2@B 100707d0     libvcruntime:undname.obj
 0002:0000280c       ??_C@_1DM@KHCHBNEB@?$AAa?$AAp?$AAi?$AA?9?$AAm?$AAs?$AA?9?$AAw?$AAi?$AAn?$AA?9?$AAc?$AAo?$AAr?$AAe@ 1007080c     libvcruntime:winapi_downlevel.obj
 0002:00002848       ??_C@_1DK@LPPGFMPP@?$AAa?$AAp?$AAi?$AA?9?$AAm?$AAs?$AA?9?$AAw?$AAi?$AAn?$AA?9?$AAc?$AAo?$AAr?$AAe@ 10070848     libvcruntime:winapi_downlevel.obj
 0002:00002884       ??_C@_1BC@GDMECMAK@?$AAk?$AAe?$AAr?$AAn?$AAe?$AAl?$AA3?$AA2@ 10070884     libvcruntime:winapi_downlevel.obj
 0002:00002898       ??_C@_1BA@PFFKHIOG@?$AAa?$AAp?$AAi?$AA?9?$AAm?$AAs?$AA?9@ 10070898     libvcruntime:winapi_downlevel.obj
 0002:000028b0       ??_C@_08KNHFBNJ@FlsAlloc@  100708b0     libvcruntime:winapi_downlevel.obj
 0002:000028c4       ??_C@_07PEJMOBNF@FlsFree@  100708c4     libvcruntime:winapi_downlevel.obj
 0002:000028d4       ??_C@_0M@GDNOONDI@FlsGetValue@ 100708d4     libvcruntime:winapi_downlevel.obj
 0002:000028e8       ??_C@_0M@JCPCPOEF@FlsSetValue@ 100708e8     libvcruntime:winapi_downlevel.obj
 0002:000028fc       ??_C@_0BM@HCFOFFN@InitializeCriticalSectionEx@ 100708fc     libvcruntime:winapi_downlevel.obj
 0002:0000291c       ??_7exception@std@@6B@     1007091c     libvcruntime:frame.obj
 0002:00002924       ??_C@_0BC@EOODALEL@Unknown?5exception@ 10070924     libvcruntime:frame.obj
 0002:0000293c       ??_7bad_exception@std@@6B@ 1007093c     libvcruntime:frame.obj
 0002:00002944       ??_C@_0O@DPKOEFFH@bad?5exception@ 10070944     libvcruntime:frame.obj
 0002:00002ab0       ??_C@_19DOGDICKI@?$AA?4?$AAe?$AAx?$AAe@ 10070ab0     libucrt:stat.obj
 0002:00002abc       ??_C@_19BDKLHPGC@?$AA?4?$AAc?$AAm?$AAd@ 10070abc     libucrt:stat.obj
 0002:00002ac8       ??_C@_19PINKOIBI@?$AA?4?$AAb?$AAa?$AAt@ 10070ac8     libucrt:stat.obj
 0002:00002ad4       ??_C@_19CDGLJBOD@?$AA?4?$AAc?$AAo?$AAm@ 10070ad4     libucrt:stat.obj
 0002:00002ae0       ??_C@_17BAAFHAL@?$AA?4?$AA?1?$AA?2@ 10070ae0     libucrt:stat.obj
 0002:00002ae8       ___dnames                  10070ae8     libucrt:timeset.obj
 0002:00002b00       ___mnames                  10070b00     libucrt:timeset.obj
 0002:00002b28       ??_C@_15HNJCPLHL@?$AAT?$AAZ@ 10070b28     libucrt:tzset.obj
 0002:00002b30       _RtlNtPathSeperatorString  10070b30     libucrt:exit.obj
 0002:00002b38       ??_C@_13FPGAJAPJ@?$AA?2@   10070b38     libucrt:exit.obj
 0002:00002b3c       _RtlDosPathSeperatorsString 10070b3c     libucrt:exit.obj
 0002:00002b44       ??_C@_15MNCACJLI@?$AA?2?$AA?1@ 10070b44     libucrt:exit.obj
 0002:00002b4c       _RtlAlternateDosPathSeperatorString 10070b4c     libucrt:exit.obj
 0002:00002b54       ??_C@_13CGOKJPIL@?$AA?1@   10070b54     libucrt:exit.obj
 0002:00002b58       ??_C@_1BI@BGOHAHKC@?$AAm?$AAs?$AAc?$AAo?$AAr?$AAe?$AAe?$AA?4?$AAd?$AAl?$AAl@ 10070b58     libucrt:exit.obj
 0002:00002b70       ??_C@_0P@MIGLKIOC@CorExitProcess@ 10070b70     libucrt:exit.obj
 0002:00002b80       __Fenv1                    10070b80     libucrt:output.obj
 0002:00002b88       ?standard_lookup_table_spectre@__crt_stdio_output@@3V?$spectre_mitigated_lookup_table@Ustate_transition_pair@__crt_stdio_output@@$0IA@@1@B 10070b88     libucrt:output.obj
 0002:00002c88       ?format_validation_lookup_table_spectre@__crt_stdio_output@@3V?$spectre_mitigated_lookup_table@Ustate_transition_pair@__crt_stdio_output@@$0IA@@1@B 10070c88     libucrt:output.obj
 0002:00002d88       ??_C@_1O@CEDCILHN@?$AA?$CI?$AAn?$AAu?$AAl?$AAl?$AA?$CJ@ 10070d88     libucrt:output.obj
 0002:00002d98       ??_C@_06OJHGLDPL@?$CInull?$CJ@ 10070d98     libucrt:output.obj
 0002:00002da0       ??_C@_02LMMGGCAJ@?3?5@     10070da0     libucrt:perror.obj
 0002:00002da4       ??_C@_01EEMJAFIK@?6@       10070da4     libucrt:perror.obj
 0002:00003448       ??_C@_03KHJOGHMM@exp@      10071448     libucrt:fpexcept.obj
 0002:0000344c       ??_C@_03JGHBODFD@pow@      1007144c     libucrt:fpexcept.obj
 0002:00003450       ??_C@_03MGHMBJCF@log@      10071450     libucrt:fpexcept.obj
 0002:00003454       ??_C@_05HGHHAHAP@log10@    10071454     libucrt:fpexcept.obj
 0002:0000345c       ??_C@_04COOMCNPB@sinh@     1007145c     libucrt:fpexcept.obj
 0002:00003464       ??_C@_04HPJJNFIM@cosh@     10071464     libucrt:fpexcept.obj
 0002:0000346c       ??_C@_04FJHINJAO@tanh@     1007146c     libucrt:fpexcept.obj
 0002:00003474       ??_C@_04FIHNOPOL@asin@     10071474     libucrt:fpexcept.obj
 0002:0000347c       ??_C@_04PDIFKINK@acos@     1007147c     libucrt:fpexcept.obj
 0002:00003484       ??_C@_04MLLJIGOK@atan@     10071484     libucrt:fpexcept.obj
 0002:0000348c       ??_C@_05KNGEOGJB@atan2@    1007148c     libucrt:fpexcept.obj
 0002:00003494       ??_C@_04EIAKFFMI@sqrt@     10071494     libucrt:fpexcept.obj
 0002:0000349c       ??_C@_03BLEJJJBH@sin@      1007149c     libucrt:fpexcept.obj
 0002:000034a0       ??_C@_03LALBNOCG@cos@      100714a0     libucrt:fpexcept.obj
 0002:000034a4       ??_C@_03IIINPABG@tan@      100714a4     libucrt:fpexcept.obj
 0002:000034a8       ??_C@_04GFPJNGEK@ceil@     100714a8     libucrt:fpexcept.obj
 0002:000034b0       ??_C@_05PBJFFIGL@floor@    100714b0     libucrt:fpexcept.obj
 0002:000034b8       ??_C@_04ODHECPBC@fabs@     100714b8     libucrt:fpexcept.obj
 0002:000034c0       ??_C@_04EHEDPDJG@modf@     100714c0     libucrt:fpexcept.obj
 0002:000034c8       ??_C@_05CEJMAHNP@ldexp@    100714c8     libucrt:fpexcept.obj
 0002:000034d0       ??_C@_05KBKMEMPO@_cabs@    100714d0     libucrt:fpexcept.obj
 0002:000034d8       ??_C@_06MEIMCGCF@_hypot@   100714d8     libucrt:fpexcept.obj
 0002:000034e0       ??_C@_04KEPJIHGP@fmod@     100714e0     libucrt:fpexcept.obj
 0002:000034e8       ??_C@_05GKKHEGJL@frexp@    100714e8     libucrt:fpexcept.obj
 0002:000034f0       ??_C@_03MJLDFKDL@_y0@      100714f0     libucrt:fpexcept.obj
 0002:000034f4       ??_C@_03NAKIGLHK@_y1@      100714f4     libucrt:fpexcept.obj
 0002:000034f8       ??_C@_03ONILCKOB@_yn@      100714f8     libucrt:fpexcept.obj
 0002:000034fc       ??_C@_05JGDBENOH@_logb@    100714fc     libucrt:fpexcept.obj
 0002:00003504       ??_C@_0L@KDOEJCKC@_nextafter@ 10071504     libucrt:fpexcept.obj
 0002:00003510       ___acrt_exception_action_table 10071510     libucrt:exception_filter.obj
 0002:000035a0       ___acrt_signal_action_table_count 100715a0     libucrt:exception_filter.obj
 0002:000035a4       ___acrt_signal_action_table_size 100715a4     libucrt:exception_filter.obj
 0002:000035a8       ___acrt_signal_action_first_fpe_index 100715a8     libucrt:exception_filter.obj
 0002:000035ac       ___acrt_signal_action_fpe_count 100715ac     libucrt:exception_filter.obj
 0002:00003640       ___acrt_cos_sin_ctable     10071640     libucrt:cos_sin_ctable.obj
 0002:00004068       ??_C@_1EA@JGEFHKEI@?$AAa?$AAp?$AAi?$AA?9?$AAm?$AAs?$AA?9?$AAw?$AAi?$AAn?$AA?9?$AAc?$AAo?$AAr?$AAe@ 10072068     libucrt:winapi_thunks.obj
 0002:000040a8       ??_C@_1DI@IJCEHOCB@?$AAa?$AAp?$AAi?$AA?9?$AAm?$AAs?$AA?9?$AAw?$AAi?$AAn?$AA?9?$AAc?$AAo?$AAr?$AAe@ 100720a8     libucrt:winapi_thunks.obj
 0002:000040e0       ??_C@_1EI@MPIAOHOC@?$AAa?$AAp?$AAi?$AA?9?$AAm?$AAs?$AA?9?$AAw?$AAi?$AAn?$AA?9?$AAc?$AAo?$AAr?$AAe@ 100720e0     libucrt:winapi_thunks.obj
 0002:00004128       ??_C@_1FK@FPHCKFIE@?$AAa?$AAp?$AAi?$AA?9?$AAm?$AAs?$AA?9?$AAw?$AAi?$AAn?$AA?9?$AAc?$AAo?$AAr?$AAe@ 10072128     libucrt:winapi_thunks.obj
 0002:00004188       ??_C@_1EM@DILCGIIO@?$AAa?$AAp?$AAi?$AA?9?$AAm?$AAs?$AA?9?$AAw?$AAi?$AAn?$AA?9?$AAc?$AAo?$AAr?$AAe@ 10072188     libucrt:winapi_thunks.obj
 0002:000041d4       ??_C@_1DM@LNCGDDPN@?$AAa?$AAp?$AAi?$AA?9?$AAm?$AAs?$AA?9?$AAw?$AAi?$AAn?$AA?9?$AAc?$AAo?$AAr?$AAe@ 100721d4     libucrt:winapi_thunks.obj
 0002:00004210       ??_C@_1DO@FPAPJEMD@?$AAa?$AAp?$AAi?$AA?9?$AAm?$AAs?$AA?9?$AAw?$AAi?$AAn?$AA?9?$AAc?$AAo?$AAr?$AAe@ 10072210     libucrt:winapi_thunks.obj
 0002:00004250       ??_C@_1DK@NDHNAHIO@?$AAa?$AAp?$AAi?$AA?9?$AAm?$AAs?$AA?9?$AAw?$AAi?$AAn?$AA?9?$AAc?$AAo?$AAr?$AAe@ 10072250     libucrt:winapi_thunks.obj
 0002:0000428c       ??_C@_1DM@KGHDGBCM@?$AAa?$AAp?$AAi?$AA?9?$AAm?$AAs?$AA?9?$AAw?$AAi?$AAn?$AA?9?$AAc?$AAo?$AAr?$AAe@ 1007228c     libucrt:winapi_thunks.obj
 0002:000042c8       ??_C@_1EO@IJIOEFOH@?$AAa?$AAp?$AAi?$AA?9?$AAm?$AAs?$AA?9?$AAw?$AAi?$AAn?$AA?9?$AAr?$AAt?$AAc?$AAo@ 100722c8     libucrt:winapi_thunks.obj
 0002:00004318       ??_C@_1FG@HHGEKANL@?$AAa?$AAp?$AAi?$AA?9?$AAm?$AAs?$AA?9?$AAw?$AAi?$AAn?$AA?9?$AAs?$AAe?$AAc?$AAu@ 10072318     libucrt:winapi_thunks.obj
 0002:00004370       ??_C@_1EG@DBIOJECG@?$AAe?$AAx?$AAt?$AA?9?$AAm?$AAs?$AA?9?$AAw?$AAi?$AAn?$AA?9?$AAn?$AAt?$AAu?$AAs@ 10072370     libucrt:winapi_thunks.obj
 0002:000043b8       ??_C@_1EO@FIHMJCLF@?$AAe?$AAx?$AAt?$AA?9?$AAm?$AAs?$AA?9?$AAw?$AAi?$AAn?$AA?9?$AAn?$AAt?$AAu?$AAs@ 100723b8     libucrt:winapi_thunks.obj
 0002:00004408       ??_C@_1BC@DNHGCMLG@?$AAa?$AAd?$AAv?$AAa?$AAp?$AAi?$AA3?$AA2@ 10072408     libucrt:winapi_thunks.obj
 0002:0000441c       ??_C@_1M@OAIMIKLP@?$AAn?$AAt?$AAd?$AAl?$AAl@ 1007241c     libucrt:winapi_thunks.obj
 0002:00004428       ??_C@_1EG@DPGNFKGC@?$AAa?$AAp?$AAi?$AA?9?$AAm?$AAs?$AA?9?$AAw?$AAi?$AAn?$AA?9?$AAa?$AAp?$AAp?$AAm@ 10072428     libucrt:winapi_thunks.obj
 0002:00004470       ??_C@_1O@BCCLBEOE@?$AAu?$AAs?$AAe?$AAr?$AA3?$AA2@ 10072470     libucrt:winapi_thunks.obj
 0002:00004480       ??_C@_1DM@BPJLHKCE@?$AAa?$AAp?$AAi?$AA?9?$AAm?$AAs?$AA?9?$AAw?$AAi?$AAn?$AA?9?$AAc?$AAo?$AAr?$AAe@ 10072480     libucrt:winapi_thunks.obj
 0002:000044bc       ??_C@_1BA@IAIFMGEF@?$AAe?$AAx?$AAt?$AA?9?$AAm?$AAs?$AA?9@ 100724bc     libucrt:winapi_thunks.obj
 0002:000044d0       ??_C@_0BA@FHFNEAED@AreFileApisANSI@ 100724d0     libucrt:winapi_thunks.obj
 0002:000044e8       ??_C@_0BA@IHGNDAEB@CompareStringEx@ 100724e8     libucrt:winapi_thunks.obj
 0002:00004500       ??_C@_0BE@LJANKFHF@EnumSystemLocalesEx@ 10072500     libucrt:winapi_thunks.obj
 0002:0000451c       ??_C@_0BA@HNOPNCHB@GetActiveWindow@ 1007251c     libucrt:winapi_thunks.obj
 0002:00004534       ??_C@_0BA@EPCJIIPD@GetDateFormatEx@ 10072534     libucrt:winapi_thunks.obj
 0002:0000454c       ??_C@_0BJ@DIBIJBHA@GetEnabledXStateFeatures@ 1007254c     libucrt:winapi_thunks.obj
 0002:00004570       ??_C@_0BD@HHGDFDBJ@GetLastActivePopup@ 10072570     libucrt:winapi_thunks.obj
 0002:0000458c       ??_C@_0BA@ONOKGCMP@GetLocaleInfoEx@ 1007258c     libucrt:winapi_thunks.obj
 0002:000045a4       ??_C@_0BI@DFKBFLJE@GetProcessWindowStation@ 100725a4     libucrt:winapi_thunks.obj
 0002:000045c0       ??_C@_0BP@FPNJPEJC@GetSystemTimePreciseAsFileTime@ 100725c0     libucrt:winapi_thunks.obj
 0002:000045e8       ??_C@_0BA@CIJJKCJJ@GetTimeFormatEx@ 100725e8     libucrt:winapi_thunks.obj
 0002:00004600       ??_C@_0BJ@PBCCBIPI@GetUserDefaultLocaleName@ 10072600     libucrt:winapi_thunks.obj
 0002:00004624       ??_C@_0BK@DEKFELLI@GetUserObjectInformationW@ 10072624     libucrt:winapi_thunks.obj
 0002:00004648       ??_C@_0BG@IKLDMBLM@GetXStateFeaturesMask@ 10072648     libucrt:winapi_thunks.obj
 0002:00004670       ??_C@_0BC@CELBKLLA@IsValidLocaleName@ 10072670     libucrt:winapi_thunks.obj
 0002:0000468c       ??_C@_0O@KKBNKAPF@LCMapStringEx@ 1007268c     libucrt:winapi_thunks.obj
 0002:000046a4       ??_C@_0BB@CDHDDLLP@LCIDToLocaleName@ 100726a4     libucrt:winapi_thunks.obj
 0002:000046c0       ??_C@_0BB@HBDEELFH@LocaleNameToLCID@ 100726c0     libucrt:winapi_thunks.obj
 0002:000046dc       ??_C@_0BE@KINNKFDA@LocateXStateFeature@ 100726dc     libucrt:winapi_thunks.obj
 0002:000046f8       ??_C@_0M@CHKKJDAI@MessageBoxA@ 100726f8     libucrt:winapi_thunks.obj
 0002:0000470c       ??_C@_0M@DLDCCGNP@MessageBoxW@ 1007270c     libucrt:winapi_thunks.obj
 0002:0000471c       ??_C@_0N@PPOMPGGK@RoInitialize@ 1007271c     libucrt:winapi_thunks.obj
 0002:00004730       ??_C@_0P@LLFHBIJD@RoUninitialize@ 10072730     libucrt:winapi_thunks.obj
 0002:00004744       ??_C@_0CF@OJOFEIGO@AppPolicyGetProcessTerminationM@ 10072744     libucrt:winapi_thunks.obj
 0002:00004770       ??_C@_0CF@NNDFDCOC@AppPolicyGetThreadInitializatio@ 10072770     libucrt:winapi_thunks.obj
 0002:0000479c       ??_C@_0CE@OICFMIKE@AppPolicyGetShowDeveloperDiagno@ 1007279c     libucrt:winapi_thunks.obj
 0002:000047c4       ??_C@_0BL@ODDJNEDA@AppPolicyGetWindowingModel@ 100727c4     libucrt:winapi_thunks.obj
 0002:000047e8       ??_C@_0BI@BKLFFAPO@SetThreadStackGuarantee@ 100727e8     libucrt:winapi_thunks.obj
 0002:00004808       ??_C@_0BC@JEAENNKH@SystemFunction036@ 10072808     libucrt:winapi_thunks.obj
 0002:000048c0       ___lc_category             100728c0     libucrt:wsetlocale.obj
 0002:00004908       ??_C@_1O@GIFLHMA@?$AAL?$AAC?$AA_?$AAA?$AAL?$AAL@ 10072908     libucrt:wsetlocale.obj
 0002:00004918       ??_C@_1BG@PPOMIBNJ@?$AAL?$AAC?$AA_?$AAC?$AAO?$AAL?$AAL?$AAA?$AAT?$AAE@ 10072918     libucrt:wsetlocale.obj
 0002:00004930       ??_C@_1BC@FFJGAPJM@?$AAL?$AAC?$AA_?$AAC?$AAT?$AAY?$AAP?$AAE@ 10072930     libucrt:wsetlocale.obj
 0002:00004944       ??_C@_1BI@PCKFNJFB@?$AAL?$AAC?$AA_?$AAM?$AAO?$AAN?$AAE?$AAT?$AAA?$AAR?$AAY@ 10072944     libucrt:wsetlocale.obj
 0002:0000495c       ??_C@_1BG@ENIEDKID@?$AAL?$AAC?$AA_?$AAN?$AAU?$AAM?$AAE?$AAR?$AAI?$AAC@ 1007295c     libucrt:wsetlocale.obj
 0002:00004974       ??_C@_1BA@HAAOMIIG@?$AAL?$AAC?$AA_?$AAT?$AAI?$AAM?$AAE@ 10072974     libucrt:wsetlocale.obj
 0002:00004984       ??_C@_15NBPDDFIP@?$AA?$DN?$AA?$DL@ 10072984     libucrt:wsetlocale.obj
 0002:0000498c       ??_C@_13PJJBFPED@?$AA?$DL@ 1007298c     libucrt:wsetlocale.obj
 0002:00004990       ??_C@_13NMPKAAJP@?$AA?$DN@ 10072990     libucrt:wsetlocale.obj
 0002:00004994       ??_C@_13IMODFHAA@?$AA?9@   10072994     libucrt:wsetlocale.obj
 0002:00004998       ??_C@_17EFJLDFDO@?$AA?9?$AA_?$AA?4@ 10072998     libucrt:wsetlocale.obj
 0002:000049a0       ??_C@_13FHBKNHDA@?$AAC@    100729a0     libucrt:wsetlocale.obj
 0002:000049a4       ??_C@_17MBJJLFDM@?$AA_?$AA?4?$AA?0@ 100729a4     libucrt:wsetlocale.obj
 0002:000049ac       ??_C@_13ENNFDPBH@?$AA_@    100729ac     libucrt:wsetlocale.obj
 0002:000049b0       ??_C@_13JOFGPIOO@?$AA?4@   100729b0     libucrt:wsetlocale.obj
 0002:000049b8       ___lc_time_c               100729b8     libucrt:nlsdata.obj
 0002:00004b1c       ??_C@_03KOEHGMDN@Sun@      10072b1c     libucrt:nlsdata.obj
 0002:00004b20       ??_C@_03PDAGKDH@Mon@       10072b20     libucrt:nlsdata.obj
 0002:00004b24       ??_C@_03NAGEINEP@Tue@      10072b24     libucrt:nlsdata.obj
 0002:00004b28       ??_C@_03MHOMLAJA@Wed@      10072b28     libucrt:nlsdata.obj
 0002:00004b2c       ??_C@_03IOFIKPDN@Thu@      10072b2c     libucrt:nlsdata.obj
 0002:00004b30       ??_C@_03IDIOELNC@Fri@      10072b30     libucrt:nlsdata.obj
 0002:00004b34       ??_C@_03FEFJNEK@Sat@       10072b34     libucrt:nlsdata.obj
 0002:00004b38       ??_C@_06OOPIFAJ@Sunday@    10072b38     libucrt:nlsdata.obj
 0002:00004b40       ??_C@_06JLEDEDGH@Monday@   10072b40     libucrt:nlsdata.obj
 0002:00004b48       ??_C@_07BAAGCFCM@Tuesday@  10072b48     libucrt:nlsdata.obj
 0002:00004b50       ??_C@_09DLIGFAKA@Wednesday@ 10072b50     libucrt:nlsdata.obj
 0002:00004b5c       ??_C@_08HACCIKIA@Thursday@ 10072b5c     libucrt:nlsdata.obj
 0002:00004b68       ??_C@_06JECMNKMI@Friday@   10072b68     libucrt:nlsdata.obj
 0002:00004b70       ??_C@_08INBOOONO@Saturday@ 10072b70     libucrt:nlsdata.obj
 0002:00004b7c       ??_C@_03JIHJHPIE@Jan@      10072b7c     libucrt:nlsdata.obj
 0002:00004b80       ??_C@_03HJBDCHOM@Feb@      10072b80     libucrt:nlsdata.obj
 0002:00004b84       ??_C@_03ODNJBKGA@Mar@      10072b84     libucrt:nlsdata.obj
 0002:00004b88       ??_C@_03LEOLGMJP@Apr@      10072b88     libucrt:nlsdata.obj
 0002:00004b8c       ??_C@_03CNMDKL@May@        10072b8c     libucrt:nlsdata.obj
 0002:00004b90       ??_C@_03IDFGHECI@Jun@      10072b90     libucrt:nlsdata.obj
 0002:00004b94       ??_C@_03LBGABGKK@Jul@      10072b94     libucrt:nlsdata.obj
 0002:00004b98       ??_C@_03IFJFEIGA@Aug@      10072b98     libucrt:nlsdata.obj
 0002:00004b9c       ??_C@_03GGCAPAJC@Sep@      10072b9c     libucrt:nlsdata.obj
 0002:00004ba0       ??_C@_03BMAOKBAD@Oct@      10072ba0     libucrt:nlsdata.obj
 0002:00004ba4       ??_C@_03JPJOFNIA@Nov@      10072ba4     libucrt:nlsdata.obj
 0002:00004ba8       ??_C@_03MKABNOCG@Dec@      10072ba8     libucrt:nlsdata.obj
 0002:00004bac       ??_C@_07CGJPFGJA@January@  10072bac     libucrt:nlsdata.obj
 0002:00004bb4       ??_C@_08GNJGEPFN@February@ 10072bb4     libucrt:nlsdata.obj
 0002:00004bc0       ??_C@_05HPCKOFNC@March@    10072bc0     libucrt:nlsdata.obj
 0002:00004bc8       ??_C@_05DMJDNLEJ@April@    10072bc8     libucrt:nlsdata.obj
 0002:00004bd0       ??_C@_04CNLMGBGM@June@     10072bd0     libucrt:nlsdata.obj
 0002:00004bd8       ??_C@_04MIEPOIFP@July@     10072bd8     libucrt:nlsdata.obj
 0002:00004be0       ??_C@_06LBBHFDDG@August@   10072be0     libucrt:nlsdata.obj
 0002:00004be8       ??_C@_09BHHEALKD@September@ 10072be8     libucrt:nlsdata.obj
 0002:00004bf4       ??_C@_07JJNFCEND@October@  10072bf4     libucrt:nlsdata.obj
 0002:00004bfc       ??_C@_08HCHEGEOA@November@ 10072bfc     libucrt:nlsdata.obj
 0002:00004c08       ??_C@_08EDHMEBNP@December@ 10072c08     libucrt:nlsdata.obj
 0002:00004c14       ??_C@_02DEDBPAFC@AM@       10072c14     libucrt:nlsdata.obj
 0002:00004c18       ??_C@_02CJNFDJBF@PM@       10072c18     libucrt:nlsdata.obj
 0002:00004c1c       ??_C@_08BPBNCDIB@MM?1dd?1yy@ 10072c1c     libucrt:nlsdata.obj
 0002:00004c28       ??_C@_0BE@CKGJFCPC@dddd?0?5MMMM?5dd?0?5yyyy@ 10072c28     libucrt:nlsdata.obj
 0002:00004c3c       ??_C@_08JCCMCCIL@HH?3mm?3ss@ 10072c3c     libucrt:nlsdata.obj
 0002:00004c48       ??_C@_17MBGCMIPB@?$AAS?$AAu?$AAn@ 10072c48     libucrt:nlsdata.obj
 0002:00004c50       ??_C@_17KBOMKBF@?$AAM?$AAo?$AAn@ 10072c50     libucrt:nlsdata.obj
 0002:00004c58       ??_C@_17BMKGEGOJ@?$AAT?$AAu?$AAe@ 10072c58     libucrt:nlsdata.obj
 0002:00004c60       ??_C@_17CJEDCEPE@?$AAW?$AAe?$AAd@ 10072c60     libucrt:nlsdata.obj
 0002:00004c68       ??_C@_17PDPHAADD@?$AAT?$AAh?$AAu@ 10072c68     libucrt:nlsdata.obj
 0002:00004c70       ??_C@_17HFOLPPLP@?$AAF?$AAr?$AAi@ 10072c70     libucrt:nlsdata.obj
 0002:00004c78       ??_C@_17GGIBDPIH@?$AAS?$AAa?$AAt@ 10072c78     libucrt:nlsdata.obj
 0002:00004c80       ??_C@_1O@IHNHDHPB@?$AAS?$AAu?$AAn?$AAd?$AAa?$AAy@ 10072c80     libucrt:nlsdata.obj
 0002:00004c90       ??_C@_1O@MMNBFLIA@?$AAM?$AAo?$AAn?$AAd?$AAa?$AAy@ 10072c90     libucrt:nlsdata.obj
 0002:00004ca0       ??_C@_1BA@ENFBFFEK@?$AAT?$AAu?$AAe?$AAs?$AAd?$AAa?$AAy@ 10072ca0     libucrt:nlsdata.obj
 0002:00004cb0       ??_C@_1BE@EBOGMDOH@?$AAW?$AAe?$AAd?$AAn?$AAe?$AAs?$AAd?$AAa?$AAy@ 10072cb0     libucrt:nlsdata.obj
 0002:00004cc4       ??_C@_1BC@HHMNLIHE@?$AAT?$AAh?$AAu?$AAr?$AAs?$AAd?$AAa?$AAy@ 10072cc4     libucrt:nlsdata.obj
 0002:00004cd8       ??_C@_1O@PDICJHAG@?$AAF?$AAr?$AAi?$AAd?$AAa?$AAy@ 10072cd8     libucrt:nlsdata.obj
 0002:00004ce8       ??_C@_1BC@ENMNNPAJ@?$AAS?$AAa?$AAt?$AAu?$AAr?$AAd?$AAa?$AAy@ 10072ce8     libucrt:nlsdata.obj
 0002:00004cfc       ??_C@_17DKNBKCHM@?$AAJ?$AAa?$AAn@ 10072cfc     libucrt:nlsdata.obj
 0002:00004d04       ??_C@_17LMDJEKJN@?$AAF?$AAe?$AAb@ 10072d04     libucrt:nlsdata.obj
 0002:00004d0c       ??_C@_17CKNLEDEC@?$AAM?$AAa?$AAr@ 10072d0c     libucrt:nlsdata.obj
 0002:00004d14       ??_C@_17LFPOIHDD@?$AAA?$AAp?$AAr@ 10072d14     libucrt:nlsdata.obj
 0002:00004d1c       ??_C@_17PNNKMEED@?$AAM?$AAa?$AAy@ 10072d1c     libucrt:nlsdata.obj
 0002:00004d24       ??_C@_17KCJGOCPB@?$AAJ?$AAu?$AAn@ 10072d24     libucrt:nlsdata.obj
 0002:00004d2c       ??_C@_17IJPCKHK@?$AAJ?$AAu?$AAl@ 10072d2c     libucrt:nlsdata.obj
 0002:00004d34       ??_C@_17ICPELBCN@?$AAA?$AAu?$AAg@ 10072d34     libucrt:nlsdata.obj
 0002:00004d3c       ??_C@_17HCHCOKMG@?$AAS?$AAe?$AAp@ 10072d3c     libucrt:nlsdata.obj
 0002:00004d44       ??_C@_17FNLKOI@?$AAO?$AAc?$AAt@ 10072d44     libucrt:nlsdata.obj
 0002:00004d4c       ??_C@_17BBDMLCIG@?$AAN?$AAo?$AAv@ 10072d4c     libucrt:nlsdata.obj
 0002:00004d54       ??_C@_17EGKACKIF@?$AAD?$AAe?$AAc@ 10072d54     libucrt:nlsdata.obj
 0002:00004d5c       ??_C@_1BA@EFMEIEBA@?$AAJ?$AAa?$AAn?$AAu?$AAa?$AAr?$AAy@ 10072d5c     libucrt:nlsdata.obj
 0002:00004d6c       ??_C@_1BC@JGDDFFAM@?$AAF?$AAe?$AAb?$AAr?$AAu?$AAa?$AAr?$AAy@ 10072d6c     libucrt:nlsdata.obj
 0002:00004d80       ??_C@_1M@IKEENEDF@?$AAM?$AAa?$AAr?$AAc?$AAh@ 10072d80     libucrt:nlsdata.obj
 0002:00004d8c       ??_C@_1M@GJNLMHFD@?$AAA?$AAp?$AAr?$AAi?$AAl@ 10072d8c     libucrt:nlsdata.obj
 0002:00004d98       ??_C@_19EPFLPGAP@?$AAJ?$AAu?$AAn?$AAe@ 10072d98     libucrt:nlsdata.obj
 0002:00004da4       ??_C@_19BIFMLPCD@?$AAJ?$AAu?$AAl?$AAy@ 10072da4     libucrt:nlsdata.obj
 0002:00004db0       ??_C@_1O@PAHLKOAC@?$AAA?$AAu?$AAg?$AAu?$AAs?$AAt@ 10072db0     libucrt:nlsdata.obj
 0002:00004dc0       ??_C@_1BE@DKAAMBJL@?$AAS?$AAe?$AAp?$AAt?$AAe?$AAm?$AAb?$AAe?$AAr@ 10072dc0     libucrt:nlsdata.obj
 0002:00004dd4       ??_C@_1BA@EPANDLNG@?$AAO?$AAc?$AAt?$AAo?$AAb?$AAe?$AAr@ 10072dd4     libucrt:nlsdata.obj
 0002:00004de4       ??_C@_1BC@BGLIFPF@?$AAN?$AAo?$AAv?$AAe?$AAm?$AAb?$AAe?$AAr@ 10072de4     libucrt:nlsdata.obj
 0002:00004df8       ??_C@_1BC@FEMKIFH@?$AAD?$AAe?$AAc?$AAe?$AAm?$AAb?$AAe?$AAr@ 10072df8     libucrt:nlsdata.obj
 0002:00004e0c       ??_C@_15ODEHAHHF@?$AAA?$AAM@ 10072e0c     libucrt:nlsdata.obj
 0002:00004e14       ??_C@_15CLMNNGEL@?$AAP?$AAM@ 10072e14     libucrt:nlsdata.obj
 0002:00004e1c       ??_C@_1BC@IEBCMHCM@?$AAM?$AAM?$AA?1?$AAd?$AAd?$AA?1?$AAy?$AAy@ 10072e1c     libucrt:nlsdata.obj
 0002:00004e30       ??_C@_1CI@KNAKOEBC@?$AAd?$AAd?$AAd?$AAd?$AA?0?$AA?5?$AAM?$AAM?$AAM?$AAM?$AA?5?$AAd?$AAd?$AA?0?$AA?5@ 10072e30     libucrt:nlsdata.obj
 0002:00004e58       ??_C@_1BC@GDGBMEMK@?$AAH?$AAH?$AA?3?$AAm?$AAm?$AA?3?$AAs?$AAs@ 10072e58     libucrt:nlsdata.obj
 0002:00004e6c       ??_C@_1M@BMHNFIME@?$AAe?$AAn?$AA?9?$AAU?$AAS@ 10072e6c     libucrt:nlsdata.obj
 0002:00004e78       __days                     10072e78     libucrt:days.obj
 0002:00004eac       __lpdays                   10072eac     libucrt:days.obj
 0002:00004ee0       ?ccs@?1???$__acrt_stdio_parse_mode@D@@YA?AU__acrt_stdio_stream_mode@@QBD@Z@4QBDB 10072ee0     libucrt:openfile.obj
 0002:00004ee4       ?utf8_encoding@?1???$__acrt_stdio_parse_mode@D@@YA?AU__acrt_stdio_stream_mode@@QBD@Z@4QBDB 10072ee4     libucrt:openfile.obj
 0002:00004eec       ?utf16_encoding@?1???$__acrt_stdio_parse_mode@D@@YA?AU__acrt_stdio_stream_mode@@QBD@Z@4QBDB 10072eec     libucrt:openfile.obj
 0002:00004ef4       ?unicode_encoding@?1???$__acrt_stdio_parse_mode@D@@YA?AU__acrt_stdio_stream_mode@@QBD@Z@4QBDB 10072ef4     libucrt:openfile.obj
 0002:00004efc       ?ccs@?1???$__acrt_stdio_parse_mode@_W@@YA?AU__acrt_stdio_stream_mode@@QB_W@Z@4QB_WB 10072efc     libucrt:openfile.obj
 0002:00004f04       ?utf8_encoding@?1???$__acrt_stdio_parse_mode@_W@@YA?AU__acrt_stdio_stream_mode@@QB_W@Z@4QB_WB 10072f04     libucrt:openfile.obj
 0002:00004f10       ?utf16_encoding@?1???$__acrt_stdio_parse_mode@_W@@YA?AU__acrt_stdio_stream_mode@@QB_W@Z@4QB_WB 10072f10     libucrt:openfile.obj
 0002:00004f20       ?unicode_encoding@?1???$__acrt_stdio_parse_mode@_W@@YA?AU__acrt_stdio_stream_mode@@QB_W@Z@4QB_WB 10072f20     libucrt:openfile.obj
 0002:00004f70       ??_C@_03OEIAHPBN@INF@      10072f70     libucrt:cvt.obj
 0002:00004f74       ??_C@_03OJHLLCGB@inf@      10072f74     libucrt:cvt.obj
 0002:00004f78       ??_C@_03LKNCIKJB@NAN@      10072f78     libucrt:cvt.obj
 0002:00004f7c       ??_C@_03LHCJEHON@nan@      10072f7c     libucrt:cvt.obj
 0002:00004f80       ??_C@_09OFJJIMPC@NAN?$CISNAN?$CJ@ 10072f80     libucrt:cvt.obj
 0002:00004f8c       ??_C@_09IPFBKMDL@nan?$CIsnan?$CJ@ 10072f8c     libucrt:cvt.obj
 0002:00004f98       ??_C@_08IKHNHAJ@NAN?$CIIND?$CJ@ 10072f98     libucrt:cvt.obj
 0002:00004fa4       ??_C@_08OFCDMILK@nan?$CIind?$CJ@ 10072fa4     libucrt:cvt.obj
 0002:00004fb0       ??_C@_05KLBDPFGC@e?$CL000@ 10072fb0     libucrt:cvt.obj
 0002:00004fb8       __sys_first_posix_error    10072fb8     libucrt:syserr.obj
 0002:00004fbc       __sys_last_posix_error     10072fbc     libucrt:syserr.obj
 0002:00004fc0       __sys_posix_errlist        10072fc0     libucrt:syserr.obj
 0002:00005068       __sys_errlist              10073068     libucrt:syserr.obj
 0002:00005118       ??_C@_08INEPGKHH@No?5error@ 10073118     libucrt:syserr.obj
 0002:00005124       ??_C@_0BI@BJFCGOHL@Operation?5not?5permitted@ 10073124     libucrt:syserr.obj
 0002:0000513c       ??_C@_0BK@FMDHKPNF@No?5such?5file?5or?5directory@ 1007313c     libucrt:syserr.obj
 0002:00005158       ??_C@_0BA@FKIAIBGA@No?5such?5process@ 10073158     libucrt:syserr.obj
 0002:00005168       ??_C@_0BK@FJBOAFDK@Interrupted?5function?5call@ 10073168     libucrt:syserr.obj
 0002:00005184       ??_C@_0BD@KKNFOBBD@Input?1output?5error@ 10073184     libucrt:syserr.obj
 0002:00005198       ??_C@_0BK@DPKMCKJ@No?5such?5device?5or?5address@ 10073198     libucrt:syserr.obj
 0002:000051b4       ??_C@_0BC@MFFGCDFL@Arg?5list?5too?5long@ 100731b4     libucrt:syserr.obj
 0002:000051c8       ??_C@_0BC@HKPNECK@Exec?5format?5error@ 100731c8     libucrt:syserr.obj
 0002:000051dc       ??_C@_0BE@NFGDDCEF@Bad?5file?5descriptor@ 100731dc     libucrt:syserr.obj
 0002:000051f0       ??_C@_0BD@LOHELEP@No?5child?5processes@ 100731f0     libucrt:syserr.obj
 0002:00005204       ??_C@_0CB@EPFKGNAK@Resource?5temporarily?5unavailabl@ 10073204     libucrt:syserr.obj
 0002:00005228       ??_C@_0BB@IMDKMPFB@Not?5enough?5space@ 10073228     libucrt:syserr.obj
 0002:0000523c       ??_C@_0BC@HFNFNKAI@Permission?5denied@ 1007323c     libucrt:syserr.obj
 0002:00005250       ??_C@_0M@LOEHLCJD@Bad?5address@ 10073250     libucrt:syserr.obj
 0002:0000525c       ??_C@_0O@NIPGCINC@Unknown?5error@ 1007325c     libucrt:syserr.obj
 0002:0000526c       ??_C@_0BA@BIBLIOEK@Resource?5device@ 1007326c     libucrt:syserr.obj
 0002:0000527c       ??_C@_0M@NAAJNNGH@File?5exists@ 1007327c     libucrt:syserr.obj
 0002:00005288       ??_C@_0O@OAMDNOCP@Improper?5link@ 10073288     libucrt:syserr.obj
 0002:00005298       ??_C@_0P@NLEIANHE@No?5such?5device@ 10073298     libucrt:syserr.obj
 0002:000052a8       ??_C@_0BA@CJBACOOL@Not?5a?5directory@ 100732a8     libucrt:syserr.obj
 0002:000052b8       ??_C@_0P@NDHGCGKE@Is?5a?5directory@ 100732b8     libucrt:syserr.obj
 0002:000052c8       ??_C@_0BB@HMGGCEBG@Invalid?5argument@ 100732c8     libucrt:syserr.obj
 0002:000052dc       ??_C@_0BO@IIFBODJE@Too?5many?5open?5files?5in?5system@ 100732dc     libucrt:syserr.obj
 0002:000052fc       ??_C@_0BE@INBJMKGG@Too?5many?5open?5files@ 100732fc     libucrt:syserr.obj
 0002:00005310       ??_C@_0CE@ONOKNLPF@Inappropriate?5I?1O?5control?5opera@ 10073310     libucrt:syserr.obj
 0002:00005334       ??_C@_0P@LFMMIPAE@File?5too?5large@ 10073334     libucrt:syserr.obj
 0002:00005344       ??_C@_0BI@FEALHKLD@No?5space?5left?5on?5device@ 10073344     libucrt:syserr.obj
 0002:0000535c       ??_C@_0N@FEHLOILP@Invalid?5seek@ 1007335c     libucrt:syserr.obj
 0002:0000536c       ??_C@_0BG@DDBFNKBH@Read?9only?5file?5system@ 1007336c     libucrt:syserr.obj
 0002:00005384       ??_C@_0P@PKCJJLLM@Too?5many?5links@ 10073384     libucrt:syserr.obj
 0002:00005394       ??_C@_0M@LHEPIIOM@Broken?5pipe@ 10073394     libucrt:syserr.obj
 0002:000053a0       ??_C@_0N@MMJPGLJK@Domain?5error@ 100733a0     libucrt:syserr.obj
 0002:000053b0       ??_C@_0BB@FCBJFCAJ@Result?5too?5large@ 100733b0     libucrt:syserr.obj
 0002:000053c4       ??_C@_0BK@JAEBMJJM@Resource?5deadlock?5avoided@ 100733c4     libucrt:syserr.obj
 0002:000053e0       ??_C@_0BC@BEDIHIDK@Filename?5too?5long@ 100733e0     libucrt:syserr.obj
 0002:000053f4       ??_C@_0BD@CLHBCGPB@No?5locks?5available@ 100733f4     libucrt:syserr.obj
 0002:00005408       ??_C@_0BJ@IHEHINLI@Function?5not?5implemented@ 10073408     libucrt:syserr.obj
 0002:00005424       ??_C@_0BE@ICMCHPHH@Directory?5not?5empty@ 10073424     libucrt:syserr.obj
 0002:00005438       ??_C@_0BG@KLEAJEFJ@Illegal?5byte?5sequence@ 10073438     libucrt:syserr.obj
 0002:00005450       ??_C@_0P@LDMLAFHI@address?5in?5use@ 10073450     libucrt:syserr.obj
 0002:00005460       ??_C@_0BG@DHPCNBJB@address?5not?5available@ 10073460     libucrt:syserr.obj
 0002:00005478       ??_C@_0BN@LKKBCCDB@address?5family?5not?5supported@ 10073478     libucrt:syserr.obj
 0002:00005498       ??_C@_0BP@KAIHPOGN@connection?5already?5in?5progress@ 10073498     libucrt:syserr.obj
 0002:000054b8       ??_C@_0M@PMMIEFCP@bad?5message@ 100734b8     libucrt:syserr.obj
 0002:000054c4       ??_C@_0BD@MOLBPMEA@operation?5canceled@ 100734c4     libucrt:syserr.obj
 0002:000054d8       ??_C@_0BD@MGNDDEGM@connection?5aborted@ 100734d8     libucrt:syserr.obj
 0002:000054ec       ??_C@_0BD@PJLIIJEL@connection?5refused@ 100734ec     libucrt:syserr.obj
 0002:00005500       ??_C@_0BB@IECNJNOI@connection?5reset@ 10073500     libucrt:syserr.obj
 0002:00005514       ??_C@_0BN@KDMIFEIP@destination?5address?5required@ 10073514     libucrt:syserr.obj
 0002:00005534       ??_C@_0BB@DHFDFGDM@host?5unreachable@ 10073534     libucrt:syserr.obj
 0002:00005548       ??_C@_0BD@JPHBMONG@identifier?5removed@ 10073548     libucrt:syserr.obj
 0002:0000555c       ??_C@_0BG@KDKHOPCO@operation?5in?5progress@ 1007355c     libucrt:syserr.obj
 0002:00005574       ??_C@_0BC@DFIBIBIL@already?5connected@ 10073574     libucrt:syserr.obj
 0002:00005588       ??_C@_0BO@EFGOJEF@too?5many?5symbolic?5link?5levels@ 10073588     libucrt:syserr.obj
 0002:000055a8       ??_C@_0N@IFLPBIOP@message?5size@ 100735a8     libucrt:syserr.obj
 0002:000055b8       ??_C@_0N@KIIEAAIO@network?5down@ 100735b8     libucrt:syserr.obj
 0002:000055c8       ??_C@_0O@FNPDBHEE@network?5reset@ 100735c8     libucrt:syserr.obj
 0002:000055d8       ??_C@_0BE@IFNCKGE@network?5unreachable@ 100735d8     libucrt:syserr.obj
 0002:000055ec       ??_C@_0BA@PFFCAOFK@no?5buffer?5space@ 100735ec     libucrt:syserr.obj
 0002:000055fc       ??_C@_0BF@PBGGPKKE@no?5message?5available@ 100735fc     libucrt:syserr.obj
 0002:00005614       ??_C@_07PLECNNKG@no?5link@ 10073614     libucrt:syserr.obj
 0002:0000561c       ??_C@_0L@EDOLMPAK@no?5message@ 1007361c     libucrt:syserr.obj
 0002:00005628       ??_C@_0BD@EAMBFIDF@no?5protocol?5option@ 10073628     libucrt:syserr.obj
 0002:0000563c       ??_C@_0BE@MKFDAFMP@no?5stream?5resources@ 1007363c     libucrt:syserr.obj
 0002:00005650       ??_C@_0N@LGAPMMPI@not?5a?5stream@ 10073650     libucrt:syserr.obj
 0002:00005660       ??_C@_0O@GLMIBBEG@not?5connected@ 10073660     libucrt:syserr.obj
 0002:00005670       ??_C@_0BG@MPLKFPAE@state?5not?5recoverable@ 10073670     libucrt:syserr.obj
 0002:00005688       ??_C@_0N@POEIPGGF@not?5a?5socket@ 10073688     libucrt:syserr.obj
 0002:00005698       ??_C@_0O@NHEDABJP@not?5supported@ 10073698     libucrt:syserr.obj
 0002:000056a8       ??_C@_0BI@LNEGIFLN@operation?5not?5supported@ 100736a8     libucrt:syserr.obj
 0002:000056c0       ??_C@_0BA@KGKGOOJA@value?5too?5large@ 100736c0     libucrt:syserr.obj
 0002:000056d0       ??_C@_0L@BLPOFLNJ@owner?5dead@ 100736d0     libucrt:syserr.obj
 0002:000056dc       ??_C@_0P@FNPOCJBE@protocol?5error@ 100736dc     libucrt:syserr.obj
 0002:000056ec       ??_C@_0BH@JPPPLHJB@protocol?5not?5supported@ 100736ec     libucrt:syserr.obj
 0002:00005704       ??_C@_0BE@MIEJDDNH@wrong?5protocol?5type@ 10073704     libucrt:syserr.obj
 0002:00005718       ??_C@_0P@DIIFGFCG@stream?5timeout@ 10073718     libucrt:syserr.obj
 0002:00005728       ??_C@_09KJPPMAOI@timed?5out@ 10073728     libucrt:syserr.obj
 0002:00005734       ??_C@_0P@IPFDMIFL@text?5file?5busy@ 10073734     libucrt:syserr.obj
 0002:00005744       ??_C@_0BG@OEMDKMEE@operation?5would?5block@ 10073744     libucrt:syserr.obj
 0002:0000575c       __sys_nerr                 1007375c     libucrt:syserr.obj
 0002:00005764       __half                     10073764     libucrt:pow_impl.obj
 0002:00005770       ___acrt_pow_rcp_t1         10073770     libucrt:pow_tables.obj
 0002:00005b80       ___acrt_pow_log2_t1        10073b80     libucrt:pow_tables.obj
 0002:00006390       ___acrt_pow_rcp_t2         10074390     libucrt:pow_tables.obj
 0002:000067a0       ___acrt_pow_log2_t2        100747a0     libucrt:pow_tables.obj
 0002:00006fb0       ___acrt_pow_rcp_t3         10074fb0     libucrt:pow_tables.obj
 0002:000077c0       ___acrt_pow_log2_t3        100757c0     libucrt:pow_tables.obj
 0002:000087d0       ___acrt_pow_clv            100767d0     libucrt:pow_tables.obj
 0002:000087f0       ___acrt_pow_exp2_tbl       100767f0     libucrt:pow_tables.obj
 0002:00008ff0       ___acrt_exp_tbl_addr       10076ff0     libucrt:exp_tables.obj
 0002:000093fa       __OP_SINHjmptab            100773fa     libucrt:87trigh.obj
 0002:0000941a       __OP_COSHjmptab            1007741a     libucrt:87trigh.obj
 0002:0000943a       __OP_TANHjmptab            1007743a     libucrt:87trigh.obj
 0002:000094a0       ___acrt_log_table_b        100774a0     libucrt:log_tables.obj
 0002:000098b0       ___acrt_log_table_t        100778b0     libucrt:log_tables.obj
 0002:00009ce0       ___acrt_log10_table_t      10077ce0     libucrt:log10_tables.obj
 0002:0000a0f0       ___acrt_log10_table_cb     100780f0     libucrt:log10_tables.obj
 0002:0000a508       __atan_table               10078508     libucrt:atan_table.obj
 0002:0000bd20       __d_inf                    10079d20     libucrt:util.obj
 0002:0000bd28       __d_ind                    10079d28     libucrt:util.obj
 0002:0000bd30       __d_max                    10079d30     libucrt:util.obj
 0002:0000bd38       __d_min                    10079d38     libucrt:util.obj
 0002:0000bd40       __d_mzero                  10079d40     libucrt:util.obj
 0002:0000bd70       ??_C@_1M@HPNHIDJI@?$AAj?$AAa?$AA?9?$AAJ?$AAP@ 10079d70     libucrt:mbctype.obj
 0002:0000bd7c       ??_C@_1M@BIBDDEMK@?$AAz?$AAh?$AA?9?$AAC?$AAN@ 10079d7c     libucrt:mbctype.obj
 0002:0000bd88       ??_C@_1M@JLOOOEGK@?$AAk?$AAo?$AA?9?$AAK?$AAR@ 10079d88     libucrt:mbctype.obj
 0002:0000bd94       ??_C@_1M@CLNBBOPM@?$AAz?$AAh?$AA?9?$AAT?$AAW@ 10079d94     libucrt:mbctype.obj
 0002:0000bda0       ___newctype                10079da0     libucrt:ctype.obj
 0002:0000c0a0       ___newclmap                1007a0a0     libucrt:ctype.obj
 0002:0000c220       ___newcumap                1007a220     libucrt:ctype.obj
 0002:0000c3a0       __wctype                   1007a3a0     libucrt:ctype.obj
 0002:0000c660       __indefinite               1007a660     libucrt:87disp.obj
 0002:0000c66a       __piby2                    1007a66a     libucrt:87disp.obj
 0002:0000c674       __piby4                    1007a674     libucrt:87disp.obj
 0002:0000c6a8       __DEFAULT_CW_in_mem        1007a6a8     libucrt:common.obj
 0002:0000c6aa       __pi_by_2_to_61            1007a6aa     libucrt:common.obj
 0002:0000ceb8       ??_C@_15EMKDOKLE@?$AAa?$AAr@ 1007aeb8     libucrt:lcidtoname_downlevel.obj
 0002:0000cec0       ??_C@_15KNPADPLH@?$AAb?$AAg@ 1007aec0     libucrt:lcidtoname_downlevel.obj
 0002:0000cec8       ??_C@_15EDMHLDMO@?$AAc?$AAa@ 1007aec8     libucrt:lcidtoname_downlevel.obj
 0002:0000ced0       ??_C@_1O@BPEAJADD@?$AAz?$AAh?$AA?9?$AAC?$AAH?$AAS@ 1007aed0     libucrt:lcidtoname_downlevel.obj
 0002:0000cee0       ??_C@_15LJNHCMNK@?$AAc?$AAs@ 1007aee0     libucrt:lcidtoname_downlevel.obj
 0002:0000cee8       ??_C@_15FOMCIDHG@?$AAd?$AAa@ 1007aee8     libucrt:lcidtoname_downlevel.obj
 0002:0000cef0       ??_C@_15NBKABECB@?$AAd?$AAe@ 1007aef0     libucrt:lcidtoname_downlevel.obj
 0002:0000cef8       ??_C@_15GHPEIIAO@?$AAe?$AAl@ 1007aef8     libucrt:lcidtoname_downlevel.obj
 0002:0000cf00       ??_C@_15MNPNEAIF@?$AAe?$AAn@ 1007af00     libucrt:lcidtoname_downlevel.obj
 0002:0000cf08       ??_C@_15GPIOMPMH@?$AAe?$AAs@ 1007af08     libucrt:lcidtoname_downlevel.obj
 0002:0000cf10       ??_C@_15NGLOAKJC@?$AAf?$AAi@ 1007af10     libucrt:lcidtoname_downlevel.obj
 0002:0000cf18       ??_C@_15FBKGNKAM@?$AAf?$AAr@ 1007af18     libucrt:lcidtoname_downlevel.obj
 0002:0000cf20       ??_C@_15KGGCNEFK@?$AAh?$AAe@ 1007af20     libucrt:lcidtoname_downlevel.obj
 0002:0000cf28       ??_C@_15PGHLIDMF@?$AAh?$AAu@ 1007af28     libucrt:lcidtoname_downlevel.obj
 0002:0000cf30       ??_C@_15BIEMAPLM@?$AAi?$AAs@ 1007af30     libucrt:lcidtoname_downlevel.obj
 0002:0000cf38       ??_C@_15IFJLDHAF@?$AAi?$AAt@ 1007af38     libucrt:lcidtoname_downlevel.obj
 0002:0000cf40       ??_C@_15GEMIOCAG@?$AAj?$AAa@ 1007af40     libucrt:lcidtoname_downlevel.obj
 0002:0000cf48       ??_C@_15EPELEGJA@?$AAk?$AAo@ 1007af48     libucrt:lcidtoname_downlevel.obj
 0002:0000cf50       ??_C@_15NDDHIMN@?$AAn?$AAl@ 1007af50     libucrt:lcidtoname_downlevel.obj
 0002:0000cf58       ??_C@_15BPIGNHCD@?$AAn?$AAo@ 1007af58     libucrt:lcidtoname_downlevel.obj
 0002:0000cf60       ??_C@_15DEOPBLCG@?$AAp?$AAl@ 1007af60     libucrt:lcidtoname_downlevel.obj
 0002:0000cf68       ??_C@_15KBECGEFG@?$AAp?$AAt@ 1007af68     libucrt:lcidtoname_downlevel.obj
 0002:0000cf70       ??_C@_15GLJCBFMD@?$AAr?$AAo@ 1007af70     libucrt:lcidtoname_downlevel.obj
 0002:0000cf78       ??_C@_15FEDGKCDI@?$AAr?$AAu@ 1007af78     libucrt:lcidtoname_downlevel.obj
 0002:0000cf80       ??_C@_15GLKMLLHM@?$AAh?$AAr@ 1007af80     libucrt:lcidtoname_downlevel.obj
 0002:0000cf88       ??_C@_15CPKMFBDB@?$AAs?$AAk@ 1007af88     libucrt:lcidtoname_downlevel.obj
 0002:0000cf90       ??_C@_15BAAIOGMK@?$AAs?$AAq@ 1007af90     libucrt:lcidtoname_downlevel.obj
 0002:0000cf98       ??_C@_15INNPNOHD@?$AAs?$AAv@ 1007af98     libucrt:lcidtoname_downlevel.obj
 0002:0000cfa0       ??_C@_15CABMMOGH@?$AAt?$AAh@ 1007afa0     libucrt:lcidtoname_downlevel.obj
 0002:0000cfa8       ??_C@_15BPLIHJJM@?$AAt?$AAr@ 1007afa8     libucrt:lcidtoname_downlevel.obj
 0002:0000cfb0       ??_C@_15NEOEKKDJ@?$AAu?$AAr@ 1007afb0     libucrt:lcidtoname_downlevel.obj
 0002:0000cfb8       ??_C@_15NFICGAJK@?$AAi?$AAd@ 1007afb8     libucrt:lcidtoname_downlevel.obj
 0002:0000cfc0       ??_C@_15PJPFLCCM@?$AAu?$AAk@ 1007afc0     libucrt:lcidtoname_downlevel.obj
 0002:0000cfc8       ??_C@_15HPJPHDM@?$AAb?$AAe@ 1007afc8     libucrt:lcidtoname_downlevel.obj
 0002:0000cfd0       ??_C@_15LCHLGJII@?$AAs?$AAl@ 1007afd0     libucrt:lcidtoname_downlevel.obj
 0002:0000cfd8       ??_C@_15PCFJPHHO@?$AAe?$AAt@ 1007afd8     libucrt:lcidtoname_downlevel.obj
 0002:0000cfe0       ??_C@_15HPFPGODN@?$AAl?$AAv@ 1007afe0     libucrt:lcidtoname_downlevel.obj
 0002:0000cfe8       ??_C@_15NFFGKGLG@?$AAl?$AAt@ 1007afe8     libucrt:lcidtoname_downlevel.obj
 0002:0000cff0       ??_C@_15BDAKCCHN@?$AAf?$AAa@ 1007aff0     libucrt:lcidtoname_downlevel.obj
 0002:0000cff8       ??_C@_15NFGIAIAJ@?$AAv?$AAi@ 1007aff8     libucrt:lcidtoname_downlevel.obj
 0002:0000d000       ??_C@_15LMKNDMHN@?$AAh?$AAy@ 1007b000     libucrt:lcidtoname_downlevel.obj
 0002:0000d008       ??_C@_15IJBHMCFL@?$AAa?$AAz@ 1007b008     libucrt:lcidtoname_downlevel.obj
 0002:0000d010       ??_C@_15EKOFJABL@?$AAe?$AAu@ 1007b010     libucrt:lcidtoname_downlevel.obj
 0002:0000d018       ??_C@_15BGHADCNK@?$AAm?$AAk@ 1007b018     libucrt:lcidtoname_downlevel.obj
 0002:0000d020       ??_C@_15JDNICKHM@?$AAa?$AAf@ 1007b020     libucrt:lcidtoname_downlevel.obj
 0002:0000d028       ??_C@_15KPJEDBKD@?$AAk?$AAa@ 1007b028     libucrt:lcidtoname_downlevel.obj
 0002:0000d030       ??_C@_15PDNFFFEO@?$AAf?$AAo@ 1007b030     libucrt:lcidtoname_downlevel.obj
 0002:0000d038       ??_C@_15OMLEGLOC@?$AAh?$AAi@ 1007b038     libucrt:lcidtoname_downlevel.obj
 0002:0000d040       ??_C@_15IDNNENKK@?$AAm?$AAs@ 1007b040     libucrt:lcidtoname_downlevel.obj
 0002:0000d048       ??_C@_15MACJNBMH@?$AAk?$AAk@ 1007b048     libucrt:lcidtoname_downlevel.obj
 0002:0000d050       ??_C@_15DKDJEOND@?$AAk?$AAy@ 1007b050     libucrt:lcidtoname_downlevel.obj
 0002:0000d058       ??_C@_15DFGDLJBG@?$AAs?$AAw@ 1007b058     libucrt:lcidtoname_downlevel.obj
 0002:0000d060       ??_C@_15BBFAICNG@?$AAu?$AAz@ 1007b060     libucrt:lcidtoname_downlevel.obj
 0002:0000d068       ??_C@_15DKNDCGEA@?$AAt?$AAt@ 1007b068     libucrt:lcidtoname_downlevel.obj
 0002:0000d070       ??_C@_15MGIFMDPL@?$AAp?$AAa@ 1007b070     libucrt:lcidtoname_downlevel.obj
 0002:0000d078       ??_C@_15HCNDBBA@?$AAg?$AAu@ 1007b078     libucrt:lcidtoname_downlevel.obj
 0002:0000d080       ??_C@_15FNBEIBON@?$AAt?$AAa@ 1007b080     libucrt:lcidtoname_downlevel.obj
 0002:0000d088       ??_C@_15NCHGBGLK@?$AAt?$AAe@ 1007b088     libucrt:lcidtoname_downlevel.obj
 0002:0000d090       ??_C@_15PHPHCBPF@?$AAk?$AAn@ 1007b090     libucrt:lcidtoname_downlevel.obj
 0002:0000d098       ??_C@_15DLGBCKMP@?$AAm?$AAr@ 1007b098     libucrt:lcidtoname_downlevel.obj
 0002:0000d0a0       ??_C@_15EABBLBFF@?$AAs?$AAa@ 1007b0a0     libucrt:lcidtoname_downlevel.obj
 0002:0000d0a8       ??_C@_15CBKOMCOI@?$AAm?$AAn@ 1007b0a8     libucrt:lcidtoname_downlevel.obj
 0002:0000d0b0       ??_C@_15CKDMCJAF@?$AAg?$AAl@ 1007b0b0     libucrt:lcidtoname_downlevel.obj
 0002:0000d0b8       ??_C@_17CNJFBPG@?$AAk?$AAo?$AAk@ 1007b0b8     libucrt:lcidtoname_downlevel.obj
 0002:0000d0c0       ??_C@_17FFBJICPL@?$AAs?$AAy?$AAr@ 1007b0c0     libucrt:lcidtoname_downlevel.obj
 0002:0000d0c8       ??_C@_17KPNDCPAF@?$AAd?$AAi?$AAv@ 1007b0c8     libucrt:lcidtoname_downlevel.obj
 0002:0000d0d0       ??_C@_11LOCGONAA@@         1007b0d0     libucrt:lcidtoname_downlevel.obj
 0002:0000d0d4       ??_C@_1M@OKAHONE@?$AAa?$AAr?$AA?9?$AAS?$AAA@ 1007b0d4     libucrt:lcidtoname_downlevel.obj
 0002:0000d0e0       ??_C@_1M@FFFIGIGK@?$AAb?$AAg?$AA?9?$AAB?$AAG@ 1007b0e0     libucrt:lcidtoname_downlevel.obj
 0002:0000d0ec       ??_C@_1M@BJNKEDC@?$AAc?$AAa?$AA?9?$AAE?$AAS@ 1007b0ec     libucrt:lcidtoname_downlevel.obj
 0002:0000d0f8       ??_C@_1M@IJJHFJHA@?$AAc?$AAs?$AA?9?$AAC?$AAZ@ 1007b0f8     libucrt:lcidtoname_downlevel.obj
 0002:0000d104       ??_C@_1M@CLPEOBGI@?$AAd?$AAa?$AA?9?$AAD?$AAK@ 1007b104     libucrt:lcidtoname_downlevel.obj
 0002:0000d110       ??_C@_1M@MCMADGCB@?$AAd?$AAe?$AA?9?$AAD?$AAE@ 1007b110     libucrt:lcidtoname_downlevel.obj
 0002:0000d11c       ??_C@_1M@OOCKEMAM@?$AAe?$AAl?$AA?9?$AAG?$AAR@ 1007b11c     libucrt:lcidtoname_downlevel.obj
 0002:0000d128       ??_C@_1M@DDNJFGID@?$AAf?$AAi?$AA?9?$AAF?$AAI@ 1007b128     libucrt:lcidtoname_downlevel.obj
 0002:0000d134       ??_C@_1M@GLIPPMAC@?$AAf?$AAr?$AA?9?$AAF?$AAR@ 1007b134     libucrt:lcidtoname_downlevel.obj
 0002:0000d140       ??_C@_1M@GFMCHPE@?$AAh?$AAe?$AA?9?$AAI?$AAL@ 1007b140     libucrt:lcidtoname_downlevel.obj
 0002:0000d14c       ??_C@_1M@MHLPGNKM@?$AAh?$AAu?$AA?9?$AAH?$AAU@ 1007b14c     libucrt:lcidtoname_downlevel.obj
 0002:0000d158       ??_C@_1M@LPDDNNPN@?$AAi?$AAs?$AA?9?$AAI?$AAS@ 1007b158     libucrt:lcidtoname_downlevel.obj
 0002:0000d164       ??_C@_1M@MADIPODN@?$AAi?$AAt?$AA?9?$AAI?$AAT@ 1007b164     libucrt:lcidtoname_downlevel.obj
 0002:0000d170       ??_C@_1M@IHBJJGG@?$AAn?$AAl?$AA?9?$AAN?$AAL@ 1007b170     libucrt:lcidtoname_downlevel.obj
 0002:0000d17c       ??_C@_1M@EANAGDL@?$AAn?$AAb?$AA?9?$AAN?$AAO@ 1007b17c     libucrt:lcidtoname_downlevel.obj
 0002:0000d188       ??_C@_1M@NEIEMEGP@?$AAp?$AAl?$AA?9?$AAP?$AAL@ 1007b188     libucrt:lcidtoname_downlevel.obj
 0002:0000d194       ??_C@_1M@BOCFIGEP@?$AAp?$AAt?$AA?9?$AAB?$AAR@ 1007b194     libucrt:lcidtoname_downlevel.obj
 0002:0000d1a0       ??_C@_1M@IMPFOPBG@?$AAr?$AAo?$AA?9?$AAR?$AAO@ 1007b1a0     libucrt:lcidtoname_downlevel.obj
 0002:0000d1ac       ??_C@_1M@IDNNEJMM@?$AAr?$AAu?$AA?9?$AAR?$AAU@ 1007b1ac     libucrt:lcidtoname_downlevel.obj
 0002:0000d1b8       ??_C@_1M@LILEEOGM@?$AAh?$AAr?$AA?9?$AAH?$AAR@ 1007b1b8     libucrt:lcidtoname_downlevel.obj
 0002:0000d1c4       ??_C@_1M@FKIFEHPB@?$AAs?$AAk?$AA?9?$AAS?$AAK@ 1007b1c4     libucrt:lcidtoname_downlevel.obj
 0002:0000d1d0       ??_C@_1M@LJMAMNPJ@?$AAs?$AAq?$AA?9?$AAA?$AAL@ 1007b1d0     libucrt:lcidtoname_downlevel.obj
 0002:0000d1dc       ??_C@_1M@GIAKDKJK@?$AAs?$AAv?$AA?9?$AAS?$AAE@ 1007b1dc     libucrt:lcidtoname_downlevel.obj
 0002:0000d1e8       ??_C@_1M@MKJKIKCL@?$AAt?$AAh?$AA?9?$AAT?$AAH@ 1007b1e8     libucrt:lcidtoname_downlevel.obj
 0002:0000d1f4       ??_C@_1M@MFLCCMPB@?$AAt?$AAr?$AA?9?$AAT?$AAR@ 1007b1f4     libucrt:lcidtoname_downlevel.obj
 0002:0000d200       ??_C@_1M@OIJHDKJN@?$AAu?$AAr?$AA?9?$AAP?$AAK@ 1007b200     libucrt:lcidtoname_downlevel.obj
 0002:0000d20c       ??_C@_1M@LHIPCIEK@?$AAi?$AAd?$AA?9?$AAI?$AAD@ 1007b20c     libucrt:lcidtoname_downlevel.obj
 0002:0000d218       ??_C@_1M@MFMOBGI@?$AAu?$AAk?$AA?9?$AAU?$AAA@ 1007b218     libucrt:lcidtoname_downlevel.obj
 0002:0000d224       ??_C@_1M@OBGLJIPL@?$AAb?$AAe?$AA?9?$AAB?$AAY@ 1007b224     libucrt:lcidtoname_downlevel.obj
 0002:0000d230       ??_C@_1M@BCFAJEAD@?$AAs?$AAl?$AA?9?$AAS?$AAI@ 1007b230     libucrt:lcidtoname_downlevel.obj
 0002:0000d23c       ??_C@_1M@FKFFEDDN@?$AAe?$AAt?$AA?9?$AAE?$AAE@ 1007b23c     libucrt:lcidtoname_downlevel.obj
 0002:0000d248       ??_C@_1M@KGKKAACI@?$AAl?$AAv?$AA?9?$AAL?$AAV@ 1007b248     libucrt:lcidtoname_downlevel.obj
 0002:0000d254       ??_C@_1M@IFGBIJO@?$AAl?$AAt?$AA?9?$AAL?$AAT@ 1007b254     libucrt:lcidtoname_downlevel.obj
 0002:0000d260       ??_C@_1M@FGEAHEDM@?$AAf?$AAa?$AA?9?$AAI?$AAR@ 1007b260     libucrt:lcidtoname_downlevel.obj
 0002:0000d26c       ??_C@_1M@KBMAIBFN@?$AAv?$AAi?$AA?9?$AAV?$AAN@ 1007b26c     libucrt:lcidtoname_downlevel.obj
 0002:0000d278       ??_C@_1M@GPCBKDJK@?$AAh?$AAy?$AA?9?$AAA?$AAM@ 1007b278     libucrt:lcidtoname_downlevel.obj
 0002:0000d284       ??_C@_1BG@BECMDDJB@?$AAa?$AAz?$AA?9?$AAA?$AAZ?$AA?9?$AAL?$AAa?$AAt?$AAn@ 1007b284     libucrt:lcidtoname_downlevel.obj
 0002:0000d29c       ??_C@_1M@MAOFCAEA@?$AAe?$AAu?$AA?9?$AAE?$AAS@ 1007b29c     libucrt:lcidtoname_downlevel.obj
 0002:0000d2a8       ??_C@_1M@IGHABKPI@?$AAm?$AAk?$AA?9?$AAM?$AAK@ 1007b2a8     libucrt:lcidtoname_downlevel.obj
 0002:0000d2b4       ??_C@_1M@IAIGNEJG@?$AAt?$AAn?$AA?9?$AAZ?$AAA@ 1007b2b4     libucrt:lcidtoname_downlevel.obj
 0002:0000d2c0       ??_C@_1M@IIJCOJFA@?$AAx?$AAh?$AA?9?$AAZ?$AAA@ 1007b2c0     libucrt:lcidtoname_downlevel.obj
 0002:0000d2cc       ??_C@_1M@LGPJHNJH@?$AAz?$AAu?$AA?9?$AAZ?$AAA@ 1007b2cc     libucrt:lcidtoname_downlevel.obj
 0002:0000d2d8       ??_C@_1M@HOKAOIO@?$AAa?$AAf?$AA?9?$AAZ?$AAA@ 1007b2d8     libucrt:lcidtoname_downlevel.obj
 0002:0000d2e4       ??_C@_1M@DPCLHLIE@?$AAk?$AAa?$AA?9?$AAG?$AAE@ 1007b2e4     libucrt:lcidtoname_downlevel.obj
 0002:0000d2f0       ??_C@_1M@BLKMHJBI@?$AAf?$AAo?$AA?9?$AAF?$AAO@ 1007b2f0     libucrt:lcidtoname_downlevel.obj
 0002:0000d2fc       ??_C@_1M@LGGJAPPB@?$AAh?$AAi?$AA?9?$AAI?$AAN@ 1007b2fc     libucrt:lcidtoname_downlevel.obj
 0002:0000d308       ??_C@_1M@FIKPIHFE@?$AAm?$AAt?$AA?9?$AAM?$AAT@ 1007b308     libucrt:lcidtoname_downlevel.obj
 0002:0000d314       ??_C@_1M@HEGGPBFA@?$AAs?$AAe?$AA?9?$AAN?$AAO@ 1007b314     libucrt:lcidtoname_downlevel.obj
 0002:0000d320       ??_C@_1M@EIBJEEPA@?$AAm?$AAs?$AA?9?$AAM?$AAY@ 1007b320     libucrt:lcidtoname_downlevel.obj
 0002:0000d32c       ??_C@_1M@FHLBGMPP@?$AAk?$AAk?$AA?9?$AAK?$AAZ@ 1007b32c     libucrt:lcidtoname_downlevel.obj
 0002:0000d338       ??_C@_1M@NGJJLCGI@?$AAk?$AAy?$AA?9?$AAK?$AAG@ 1007b338     libucrt:lcidtoname_downlevel.obj
 0002:0000d344       ??_C@_1M@GIENNBFC@?$AAs?$AAw?$AA?9?$AAK?$AAE@ 1007b344     libucrt:lcidtoname_downlevel.obj
 0002:0000d350       ??_C@_1BG@NDGMJIMJ@?$AAu?$AAz?$AA?9?$AAU?$AAZ?$AA?9?$AAL?$AAa?$AAt?$AAn@ 1007b350     libucrt:lcidtoname_downlevel.obj
 0002:0000d368       ??_C@_1M@IDCCIHBC@?$AAt?$AAt?$AA?9?$AAR?$AAU@ 1007b368     libucrt:lcidtoname_downlevel.obj
 0002:0000d374       ??_C@_1M@LOICPMOJ@?$AAb?$AAn?$AA?9?$AAI?$AAN@ 1007b374     libucrt:lcidtoname_downlevel.obj
 0002:0000d380       ??_C@_1M@KPKKNEAH@?$AAp?$AAa?$AA?9?$AAI?$AAN@ 1007b380     libucrt:lcidtoname_downlevel.obj
 0002:0000d38c       ??_C@_1M@PJGPPBOG@?$AAg?$AAu?$AA?9?$AAI?$AAN@ 1007b38c     libucrt:lcidtoname_downlevel.obj
 0002:0000d398       ??_C@_1M@KMKMOPHI@?$AAt?$AAa?$AA?9?$AAI?$AAN@ 1007b398     libucrt:lcidtoname_downlevel.obj
 0002:0000d3a4       ??_C@_1M@KFEHEPAC@?$AAt?$AAe?$AA?9?$AAI?$AAN@ 1007b3a4     libucrt:lcidtoname_downlevel.obj
 0002:0000d3b0       ??_C@_1M@CDCLMGHI@?$AAk?$AAn?$AA?9?$AAI?$AAN@ 1007b3b0     libucrt:lcidtoname_downlevel.obj
 0002:0000d3bc       ??_C@_1M@MIODLDKF@?$AAm?$AAl?$AA?9?$AAI?$AAN@ 1007b3bc     libucrt:lcidtoname_downlevel.obj
 0002:0000d3c8       ??_C@_1M@PBIEACPO@?$AAm?$AAr?$AA?9?$AAI?$AAN@ 1007b3c8     libucrt:lcidtoname_downlevel.obj
 0002:0000d3d4       ??_C@_1M@NIDEAGPH@?$AAs?$AAa?$AA?9?$AAI?$AAN@ 1007b3d4     libucrt:lcidtoname_downlevel.obj
 0002:0000d3e0       ??_C@_1M@FHIHCBIO@?$AAm?$AAn?$AA?9?$AAM?$AAN@ 1007b3e0     libucrt:lcidtoname_downlevel.obj
 0002:0000d3ec       ??_C@_1M@JAIJPENP@?$AAc?$AAy?$AA?9?$AAG?$AAB@ 1007b3ec     libucrt:lcidtoname_downlevel.obj
 0002:0000d3f8       ??_C@_1M@PHGFBEPN@?$AAg?$AAl?$AA?9?$AAE?$AAS@ 1007b3f8     libucrt:lcidtoname_downlevel.obj
 0002:0000d404       ??_C@_1O@KPIPDNCP@?$AAk?$AAo?$AAk?$AA?9?$AAI?$AAN@ 1007b404     libucrt:lcidtoname_downlevel.obj
 0002:0000d414       ??_C@_1O@KNHJLDJA@?$AAs?$AAy?$AAr?$AA?9?$AAS?$AAY@ 1007b414     libucrt:lcidtoname_downlevel.obj
 0002:0000d424       ??_C@_1O@MKEKBLAH@?$AAd?$AAi?$AAv?$AA?9?$AAM?$AAV@ 1007b424     libucrt:lcidtoname_downlevel.obj
 0002:0000d434       ??_C@_1O@OHDCKDDF@?$AAq?$AAu?$AAz?$AA?9?$AAB?$AAO@ 1007b434     libucrt:lcidtoname_downlevel.obj
 0002:0000d444       ??_C@_1M@LEPJNLFD@?$AAn?$AAs?$AA?9?$AAZ?$AAA@ 1007b444     libucrt:lcidtoname_downlevel.obj
 0002:0000d450       ??_C@_1M@OMLEIIJB@?$AAm?$AAi?$AA?9?$AAN?$AAZ@ 1007b450     libucrt:lcidtoname_downlevel.obj
 0002:0000d45c       ??_C@_1M@PMPEAILG@?$AAa?$AAr?$AA?9?$AAI?$AAQ@ 1007b45c     libucrt:lcidtoname_downlevel.obj
 0002:0000d468       ??_C@_1M@CNKPNOEE@?$AAd?$AAe?$AA?9?$AAC?$AAH@ 1007b468     libucrt:lcidtoname_downlevel.obj
 0002:0000d474       ??_C@_1M@LKMGMLKO@?$AAe?$AAn?$AA?9?$AAG?$AAB@ 1007b474     libucrt:lcidtoname_downlevel.obj
 0002:0000d480       ??_C@_1M@PGKJFFGL@?$AAe?$AAs?$AA?9?$AAM?$AAX@ 1007b480     libucrt:lcidtoname_downlevel.obj
 0002:0000d48c       ??_C@_1M@DNNANBDC@?$AAf?$AAr?$AA?9?$AAB?$AAE@ 1007b48c     libucrt:lcidtoname_downlevel.obj
 0002:0000d498       ??_C@_1M@HLGMDFHM@?$AAi?$AAt?$AA?9?$AAC?$AAH@ 1007b498     libucrt:lcidtoname_downlevel.obj
 0002:0000d4a4       ??_C@_1M@CLLBGJH@?$AAn?$AAl?$AA?9?$AAB?$AAE@ 1007b4a4     libucrt:lcidtoname_downlevel.obj
 0002:0000d4b0       ??_C@_1M@BODBOGLF@?$AAn?$AAn?$AA?9?$AAN?$AAO@ 1007b4b0     libucrt:lcidtoname_downlevel.obj
 0002:0000d4bc       ??_C@_1M@HFFAHKAD@?$AAp?$AAt?$AA?9?$AAP?$AAT@ 1007b4bc     libucrt:lcidtoname_downlevel.obj
 0002:0000d4c8       ??_C@_1BG@LNOAKHIE@?$AAs?$AAr?$AA?9?$AAS?$AAP?$AA?9?$AAL?$AAa?$AAt?$AAn@ 1007b4c8     libucrt:lcidtoname_downlevel.obj
 0002:0000d4e0       ??_C@_1M@HBMHBGAK@?$AAs?$AAv?$AA?9?$AAF?$AAI@ 1007b4e0     libucrt:lcidtoname_downlevel.obj
 0002:0000d4ec       ??_C@_1BG@DGCJGJBE@?$AAa?$AAz?$AA?9?$AAA?$AAZ?$AA?9?$AAC?$AAy?$AAr?$AAl@ 1007b4ec     libucrt:lcidtoname_downlevel.obj
 0002:0000d504       ??_C@_1M@KEJDAAHB@?$AAs?$AAe?$AA?9?$AAS?$AAE@ 1007b504     libucrt:lcidtoname_downlevel.obj
 0002:0000d510       ??_C@_1M@HEIBJJAD@?$AAm?$AAs?$AA?9?$AAB?$AAN@ 1007b510     libucrt:lcidtoname_downlevel.obj
 0002:0000d51c       ??_C@_1BG@PBGJMCEM@?$AAu?$AAz?$AA?9?$AAU?$AAZ?$AA?9?$AAC?$AAy?$AAr?$AAl@ 1007b51c     libucrt:lcidtoname_downlevel.obj
 0002:0000d534       ??_C@_1O@LAOBCMDF@?$AAq?$AAu?$AAz?$AA?9?$AAE?$AAC@ 1007b534     libucrt:lcidtoname_downlevel.obj
 0002:0000d544       ??_C@_1M@POEEMAIO@?$AAa?$AAr?$AA?9?$AAE?$AAG@ 1007b544     libucrt:lcidtoname_downlevel.obj
 0002:0000d550       ??_C@_1M@EFAKDEDL@?$AAz?$AAh?$AA?9?$AAH?$AAK@ 1007b550     libucrt:lcidtoname_downlevel.obj
 0002:0000d55c       ??_C@_1M@HKKIJHGI@?$AAd?$AAe?$AA?9?$AAA?$AAT@ 1007b55c     libucrt:lcidtoname_downlevel.obj
 0002:0000d568       ??_C@_1M@KBFBEHJF@?$AAe?$AAn?$AA?9?$AAA?$AAU@ 1007b568     libucrt:lcidtoname_downlevel.obj
 0002:0000d574       ??_C@_1M@MNPLFAAH@?$AAe?$AAs?$AA?9?$AAE?$AAS@ 1007b574     libucrt:lcidtoname_downlevel.obj
 0002:0000d580       ??_C@_1M@HJOOJFMA@?$AAf?$AAr?$AA?9?$AAC?$AAA@ 1007b580     libucrt:lcidtoname_downlevel.obj
 0002:0000d58c       ??_C@_1BG@JPOFPNAB@?$AAs?$AAr?$AA?9?$AAS?$AAP?$AA?9?$AAC?$AAy?$AAr?$AAl@ 1007b58c     libucrt:lcidtoname_downlevel.obj
 0002:0000d5a4       ??_C@_1M@LNFOCMOB@?$AAs?$AAe?$AA?9?$AAF?$AAI@ 1007b5a4     libucrt:lcidtoname_downlevel.obj
 0002:0000d5b0       ??_C@_1O@MGJBOAMB@?$AAq?$AAu?$AAz?$AA?9?$AAP?$AAE@ 1007b5b0     libucrt:lcidtoname_downlevel.obj
 0002:0000d5c0       ??_C@_1M@GJINLBOK@?$AAa?$AAr?$AA?9?$AAL?$AAY@ 1007b5c0     libucrt:lcidtoname_downlevel.obj
 0002:0000d5cc       ??_C@_1M@GGMNHJNL@?$AAz?$AAh?$AA?9?$AAS?$AAG@ 1007b5cc     libucrt:lcidtoname_downlevel.obj
 0002:0000d5d8       ??_C@_1M@HOIKODND@?$AAd?$AAe?$AA?9?$AAL?$AAU@ 1007b5d8     libucrt:lcidtoname_downlevel.obj
 0002:0000d5e4       ??_C@_1M@DDOCCGFG@?$AAe?$AAn?$AA?9?$AAC?$AAA@ 1007b5e4     libucrt:lcidtoname_downlevel.obj
 0002:0000d5f0       ??_C@_1M@BNOEMJLF@?$AAe?$AAs?$AA?9?$AAG?$AAT@ 1007b5f0     libucrt:lcidtoname_downlevel.obj
 0002:0000d5fc       ??_C@_1M@EOGNKEK@?$AAf?$AAr?$AA?9?$AAC?$AAH@ 1007b5fc     libucrt:lcidtoname_downlevel.obj
 0002:0000d608       ??_C@_1M@FLIDJFHL@?$AAh?$AAr?$AA?9?$AAB?$AAA@ 1007b608     libucrt:lcidtoname_downlevel.obj
 0002:0000d614       ??_C@_1O@FMCELNAJ@?$AAs?$AAm?$AAj?$AA?9?$AAN?$AAO@ 1007b614     libucrt:lcidtoname_downlevel.obj
 0002:0000d624       ??_C@_1M@JHGLJMGJ@?$AAa?$AAr?$AA?9?$AAD?$AAZ@ 1007b624     libucrt:lcidtoname_downlevel.obj
 0002:0000d630       ??_C@_1M@JKKFDCNP@?$AAz?$AAh?$AA?9?$AAM?$AAO@ 1007b630     libucrt:lcidtoname_downlevel.obj
 0002:0000d63c       ??_C@_1M@GEEFALPE@?$AAd?$AAe?$AA?9?$AAL?$AAI@ 1007b63c     libucrt:lcidtoname_downlevel.obj
 0002:0000d648       ??_C@_1M@IGEOFBG@?$AAe?$AAn?$AA?9?$AAN?$AAZ@ 1007b648     libucrt:lcidtoname_downlevel.obj
 0002:0000d654       ??_C@_1M@KDBONEHP@?$AAe?$AAs?$AA?9?$AAC?$AAR@ 1007b654     libucrt:lcidtoname_downlevel.obj
 0002:0000d660       ??_C@_1M@FHMDOHNN@?$AAf?$AAr?$AA?9?$AAL?$AAU@ 1007b660     libucrt:lcidtoname_downlevel.obj
 0002:0000d66c       ??_C@_1BG@NFKKMAFG@?$AAb?$AAs?$AA?9?$AAB?$AAA?$AA?9?$AAL?$AAa?$AAt?$AAn@ 1007b66c     libucrt:lcidtoname_downlevel.obj
 0002:0000d684       ??_C@_1O@IMNBEMCI@?$AAs?$AAm?$AAj?$AA?9?$AAS?$AAE@ 1007b684     libucrt:lcidtoname_downlevel.obj
 0002:0000d694       ??_C@_1M@DHHMBNDP@?$AAa?$AAr?$AA?9?$AAM?$AAA@ 1007b694     libucrt:lcidtoname_downlevel.obj
 0002:0000d6a0       ??_C@_1M@BNBLJCGH@?$AAe?$AAn?$AA?9?$AAI?$AAE@ 1007b6a0     libucrt:lcidtoname_downlevel.obj
 0002:0000d6ac       ??_C@_1M@GEPAFMDL@?$AAe?$AAs?$AA?9?$AAP?$AAA@ 1007b6ac     libucrt:lcidtoname_downlevel.obj
 0002:0000d6b8       ??_C@_1M@OJONDMDL@?$AAf?$AAr?$AA?9?$AAM?$AAC@ 1007b6b8     libucrt:lcidtoname_downlevel.obj
 0002:0000d6c4       ??_C@_1BG@OBCNFJB@?$AAs?$AAr?$AA?9?$AAB?$AAA?$AA?9?$AAL?$AAa?$AAt?$AAn@ 1007b6c4     libucrt:lcidtoname_downlevel.obj
 0002:0000d6dc       ??_C@_1O@KEMEEGPO@?$AAs?$AAm?$AAa?$AA?9?$AAN?$AAO@ 1007b6dc     libucrt:lcidtoname_downlevel.obj
 0002:0000d6ec       ??_C@_1M@ELMGFODK@?$AAa?$AAr?$AA?9?$AAT?$AAN@ 1007b6ec     libucrt:lcidtoname_downlevel.obj
 0002:0000d6f8       ??_C@_1M@BHDLHFAF@?$AAe?$AAn?$AA?9?$AAZ?$AAA@ 1007b6f8     libucrt:lcidtoname_downlevel.obj
 0002:0000d704       ??_C@_1M@BMGIGLIF@?$AAe?$AAs?$AA?9?$AAD?$AAO@ 1007b704     libucrt:lcidtoname_downlevel.obj
 0002:0000d710       ??_C@_1BG@CMBHIPBE@?$AAs?$AAr?$AA?9?$AAB?$AAA?$AA?9?$AAC?$AAy?$AAr?$AAl@ 1007b710     libucrt:lcidtoname_downlevel.obj
 0002:0000d728       ??_C@_1O@HEDBLHNP@?$AAs?$AAm?$AAa?$AA?9?$AAS?$AAE@ 1007b728     libucrt:lcidtoname_downlevel.obj
 0002:0000d738       ??_C@_1M@DAGCADIM@?$AAa?$AAr?$AA?9?$AAO?$AAM@ 1007b738     libucrt:lcidtoname_downlevel.obj
 0002:0000d744       ??_C@_1M@FODLMICG@?$AAe?$AAn?$AA?9?$AAJ?$AAM@ 1007b744     libucrt:lcidtoname_downlevel.obj
 0002:0000d750       ??_C@_1M@DNMLCIHB@?$AAe?$AAs?$AA?9?$AAV?$AAE@ 1007b750     libucrt:lcidtoname_downlevel.obj
 0002:0000d75c       ??_C@_1O@EOKHMKJK@?$AAs?$AAm?$AAs?$AA?9?$AAF?$AAI@ 1007b75c     libucrt:lcidtoname_downlevel.obj
 0002:0000d76c       ??_C@_1M@CAFJMKOF@?$AAa?$AAr?$AA?9?$AAY?$AAE@ 1007b76c     libucrt:lcidtoname_downlevel.obj
 0002:0000d778       ??_C@_1M@CBFHIJLI@?$AAe?$AAn?$AA?9?$AAC?$AAB@ 1007b778     libucrt:lcidtoname_downlevel.obj
 0002:0000d784       ??_C@_1M@BGNFLDN@?$AAe?$AAs?$AA?9?$AAC?$AAO@ 1007b784     libucrt:lcidtoname_downlevel.obj
 0002:0000d790       ??_C@_1O@JMPHMAMC@?$AAs?$AAm?$AAn?$AA?9?$AAF?$AAI@ 1007b790     libucrt:lcidtoname_downlevel.obj
 0002:0000d7a0       ??_C@_1M@JLANABKE@?$AAa?$AAr?$AA?9?$AAS?$AAY@ 1007b7a0     libucrt:lcidtoname_downlevel.obj
 0002:0000d7ac       ??_C@_1M@HPKGCFGN@?$AAe?$AAn?$AA?9?$AAB?$AAZ@ 1007b7ac     libucrt:lcidtoname_downlevel.obj
 0002:0000d7b8       ??_C@_1M@OLJCMLGM@?$AAe?$AAs?$AA?9?$AAP?$AAE@ 1007b7b8     libucrt:lcidtoname_downlevel.obj
 0002:0000d7c4       ??_C@_1M@MKKGFKLE@?$AAa?$AAr?$AA?9?$AAJ?$AAO@ 1007b7c4     libucrt:lcidtoname_downlevel.obj
 0002:0000d7d0       ??_C@_1M@EKPGLDNI@?$AAe?$AAn?$AA?9?$AAT?$AAT@ 1007b7d0     libucrt:lcidtoname_downlevel.obj
 0002:0000d7dc       ??_C@_1M@OONGHFHE@?$AAe?$AAs?$AA?9?$AAA?$AAR@ 1007b7dc     libucrt:lcidtoname_downlevel.obj
 0002:0000d7e8       ??_C@_1M@OOJFGBHE@?$AAa?$AAr?$AA?9?$AAL?$AAB@ 1007b7e8     libucrt:lcidtoname_downlevel.obj
 0002:0000d7f4       ??_C@_1M@GCEJHNEG@?$AAe?$AAn?$AA?9?$AAZ?$AAW@ 1007b7f4     libucrt:lcidtoname_downlevel.obj
 0002:0000d800       ??_C@_1M@JNOCAHJI@?$AAe?$AAs?$AA?9?$AAE?$AAC@ 1007b800     libucrt:lcidtoname_downlevel.obj
 0002:0000d80c       ??_C@_1M@JEFHPGGB@?$AAa?$AAr?$AA?9?$AAK?$AAW@ 1007b80c     libucrt:lcidtoname_downlevel.obj
 0002:0000d818       ??_C@_1M@MLKIBJOJ@?$AAe?$AAn?$AA?9?$AAP?$AAH@ 1007b818     libucrt:lcidtoname_downlevel.obj
 0002:0000d824       ??_C@_1M@BDNIPEND@?$AAe?$AAs?$AA?9?$AAC?$AAL@ 1007b824     libucrt:lcidtoname_downlevel.obj
 0002:0000d830       ??_C@_1M@MPNMEKBD@?$AAa?$AAr?$AA?9?$AAA?$AAE@ 1007b830     libucrt:lcidtoname_downlevel.obj
 0002:0000d83c       ??_C@_1M@KBJALCPI@?$AAe?$AAs?$AA?9?$AAU?$AAY@ 1007b83c     libucrt:lcidtoname_downlevel.obj
 0002:0000d848       ??_C@_1M@LLCCOAGA@?$AAa?$AAr?$AA?9?$AAB?$AAH@ 1007b848     libucrt:lcidtoname_downlevel.obj
 0002:0000d854       ??_C@_1M@PBFNCDEL@?$AAe?$AAs?$AA?9?$AAP?$AAY@ 1007b854     libucrt:lcidtoname_downlevel.obj
 0002:0000d860       ??_C@_1M@EDGINPNP@?$AAa?$AAr?$AA?9?$AAQ?$AAA@ 1007b860     libucrt:lcidtoname_downlevel.obj
 0002:0000d86c       ??_C@_1M@MKDBIIJI@?$AAe?$AAs?$AA?9?$AAB?$AAO@ 1007b86c     libucrt:lcidtoname_downlevel.obj
 0002:0000d878       ??_C@_1M@CPKKEBLD@?$AAe?$AAs?$AA?9?$AAS?$AAV@ 1007b878     libucrt:lcidtoname_downlevel.obj
 0002:0000d884       ??_C@_1M@NDBGMMJL@?$AAe?$AAs?$AA?9?$AAH?$AAN@ 1007b884     libucrt:lcidtoname_downlevel.obj
 0002:0000d890       ??_C@_1M@JIJIBHDP@?$AAe?$AAs?$AA?9?$AAN?$AAI@ 1007b890     libucrt:lcidtoname_downlevel.obj
 0002:0000d89c       ??_C@_1M@CGFMKEEK@?$AAe?$AAs?$AA?9?$AAP?$AAR@ 1007b89c     libucrt:lcidtoname_downlevel.obj
 0002:0000d8a8       ??_C@_1O@ICJHKIIK@?$AAz?$AAh?$AA?9?$AAC?$AAH?$AAT@ 1007b8a8     libucrt:lcidtoname_downlevel.obj
 0002:0000d8b8       ??_C@_15CLNEJCE@?$AAs?$AAr@ 1007b8b8     libucrt:lcidtoname_downlevel.obj
 0002:0000dfe0       ??_C@_1M@KAHEKEIG@?$AAa?$AAf?$AA?9?$AAz?$AAa@ 1007bfe0     libucrt:lcidtoname_downlevel.obj
 0002:0000dfec       ??_C@_1M@GIECOABL@?$AAa?$AAr?$AA?9?$AAa?$AAe@ 1007bfec     libucrt:lcidtoname_downlevel.obj
 0002:0000dff8       ??_C@_1M@BMLMEKGI@?$AAa?$AAr?$AA?9?$AAb?$AAh@ 1007bff8     libucrt:lcidtoname_downlevel.obj
 0002:0000e004       ??_C@_1M@DAPFDGGB@?$AAa?$AAr?$AA?9?$AAd?$AAz@ 1007c004     libucrt:lcidtoname_downlevel.obj
 0002:0000e010       ??_C@_1M@FJNKGKIG@?$AAa?$AAr?$AA?9?$AAe?$AAg@ 1007c010     libucrt:lcidtoname_downlevel.obj
 0002:0000e01c       ??_C@_1M@FLGKKCLO@?$AAa?$AAr?$AA?9?$AAi?$AAq@ 1007c01c     libucrt:lcidtoname_downlevel.obj
 0002:0000e028       ??_C@_1M@GNDIPALM@?$AAa?$AAr?$AA?9?$AAj?$AAo@ 1007c028     libucrt:lcidtoname_downlevel.obj
 0002:0000e034       ??_C@_1M@DDMJFMGJ@?$AAa?$AAr?$AA?9?$AAk?$AAw@ 1007c034     libucrt:lcidtoname_downlevel.obj
 0002:0000e040       ??_C@_1M@EJALMLHM@?$AAa?$AAr?$AA?9?$AAl?$AAb@ 1007c040     libucrt:lcidtoname_downlevel.obj
 0002:0000e04c       ??_C@_1M@MOBDBLOC@?$AAa?$AAr?$AA?9?$AAl?$AAy@ 1007c04c     libucrt:lcidtoname_downlevel.obj
 0002:0000e058       ??_C@_1M@JAOCLHDH@?$AAa?$AAr?$AA?9?$AAm?$AAa@ 1007c058     libucrt:lcidtoname_downlevel.obj
 0002:0000e064       ??_C@_1M@JHPMKJIE@?$AAa?$AAr?$AA?9?$AAo?$AAm@ 1007c064     libucrt:lcidtoname_downlevel.obj
 0002:0000e070       ??_C@_1M@OEPGHFNH@?$AAa?$AAr?$AA?9?$AAq?$AAa@ 1007c070     libucrt:lcidtoname_downlevel.obj
 0002:0000e07c       ??_C@_1M@KJDONENM@?$AAa?$AAr?$AA?9?$AAs?$AAa@ 1007c07c     libucrt:lcidtoname_downlevel.obj
 0002:0000e088       ??_C@_1M@DMJDKLKM@?$AAa?$AAr?$AA?9?$AAs?$AAy@ 1007c088     libucrt:lcidtoname_downlevel.obj
 0002:0000e094       ??_C@_1M@OMFIPEDC@?$AAa?$AAr?$AA?9?$AAt?$AAn@ 1007c094     libucrt:lcidtoname_downlevel.obj
 0002:0000e0a0       ??_C@_1M@IHMHGAON@?$AAa?$AAr?$AA?9?$AAy?$AAe@ 1007c0a0     libucrt:lcidtoname_downlevel.obj
 0002:0000e0ac       ??_C@_1BG@KDCPGJGB@?$AAa?$AAz?$AA?9?$AAa?$AAz?$AA?9?$AAc?$AAy?$AAr?$AAl@ 1007c0ac     libucrt:lcidtoname_downlevel.obj
 0002:0000e0c4       ??_C@_1BG@IBCKDDOE@?$AAa?$AAz?$AA?9?$AAa?$AAz?$AA?9?$AAl?$AAa?$AAt?$AAn@ 1007c0c4     libucrt:lcidtoname_downlevel.obj
 0002:0000e0dc       ??_C@_1M@EGPFDCPD@?$AAb?$AAe?$AA?9?$AAb?$AAy@ 1007c0dc     libucrt:lcidtoname_downlevel.obj
 0002:0000e0e8       ??_C@_1M@PCMGMCGC@?$AAb?$AAg?$AA?9?$AAb?$AAg@ 1007c0e8     libucrt:lcidtoname_downlevel.obj
 0002:0000e0f4       ??_C@_1M@BJBMFGOB@?$AAb?$AAn?$AA?9?$AAi?$AAn@ 1007c0f4     libucrt:lcidtoname_downlevel.obj
 0002:0000e100       ??_C@_1BG@EAKMMACD@?$AAb?$AAs?$AA?9?$AAb?$AAa?$AA?9?$AAl?$AAa?$AAt?$AAn@ 1007c100     libucrt:lcidtoname_downlevel.obj
 0002:0000e118       ??_C@_1M@KGADAODK@?$AAc?$AAa?$AA?9?$AAe?$AAs@ 1007c118     libucrt:lcidtoname_downlevel.obj
 0002:0000e124       ??_C@_1M@COAJPDHI@?$AAc?$AAs?$AA?9?$AAc?$AAz@ 1007c124     libucrt:lcidtoname_downlevel.obj
 0002:0000e130       ??_C@_1M@DHBHFONH@?$AAc?$AAy?$AA?9?$AAg?$AAb@ 1007c130     libucrt:lcidtoname_downlevel.obj
 0002:0000e13c       ??_C@_1M@IMGKELGA@?$AAd?$AAa?$AA?9?$AAd?$AAk@ 1007c13c     libucrt:lcidtoname_downlevel.obj
 0002:0000e148       ??_C@_1M@NNDGDNGA@?$AAd?$AAe?$AA?9?$AAa?$AAt@ 1007c148     libucrt:lcidtoname_downlevel.obj
 0002:0000e154       ??_C@_1M@IKDBHEEM@?$AAd?$AAe?$AA?9?$AAc?$AAh@ 1007c154     libucrt:lcidtoname_downlevel.obj
 0002:0000e160       ??_C@_1M@GFFOJMCJ@?$AAd?$AAe?$AA?9?$AAd?$AAe@ 1007c160     libucrt:lcidtoname_downlevel.obj
 0002:0000e16c       ??_C@_1M@MDNLKBPM@?$AAd?$AAe?$AA?9?$AAl?$AAi@ 1007c16c     libucrt:lcidtoname_downlevel.obj
 0002:0000e178       ??_C@_1M@NJBEEJNL@?$AAd?$AAe?$AA?9?$AAl?$AAu@ 1007c178     libucrt:lcidtoname_downlevel.obj
 0002:0000e184       ??_C@_1O@GNNELBAP@?$AAd?$AAi?$AAv?$AA?9?$AAm?$AAv@ 1007c184     libucrt:lcidtoname_downlevel.obj
 0002:0000e194       ??_C@_1M@EJLEOGAE@?$AAe?$AAl?$AA?9?$AAg?$AAr@ 1007c194     libucrt:lcidtoname_downlevel.obj
 0002:0000e1a0       ??_C@_1M@GMPONJN@?$AAe?$AAn?$AA?9?$AAa?$AAu@ 1007c1a0     libucrt:lcidtoname_downlevel.obj
 0002:0000e1ac       ??_C@_1M@NIDIIPGF@?$AAe?$AAn?$AA?9?$AAb?$AAz@ 1007c1ac     libucrt:lcidtoname_downlevel.obj
 0002:0000e1b8       ??_C@_1M@JEHMIMFO@?$AAe?$AAn?$AA?9?$AAc?$AAa@ 1007c1b8     libucrt:lcidtoname_downlevel.obj
 0002:0000e1c4       ??_C@_1M@IGMJCDLA@?$AAe?$AAn?$AA?9?$AAc?$AAb@ 1007c1c4     libucrt:lcidtoname_downlevel.obj
 0002:0000e1d0       ??_C@_1M@BNFIGBKG@?$AAe?$AAn?$AA?9?$AAg?$AAb@ 1007c1d0     libucrt:lcidtoname_downlevel.obj
 0002:0000e1dc       ??_C@_1M@LKIFDIGP@?$AAe?$AAn?$AA?9?$AAi?$AAe@ 1007c1dc     libucrt:lcidtoname_downlevel.obj
 0002:0000e1e8       ??_C@_1M@PJKFGCCO@?$AAe?$AAn?$AA?9?$AAj?$AAm@ 1007c1e8     libucrt:lcidtoname_downlevel.obj
 0002:0000e1f4       ??_C@_1M@KPPKEPBO@?$AAe?$AAn?$AA?9?$AAn?$AAz@ 1007c1f4     libucrt:lcidtoname_downlevel.obj
 0002:0000e200       ??_C@_1M@GMDGLDOB@?$AAe?$AAn?$AA?9?$AAp?$AAh@ 1007c200     libucrt:lcidtoname_downlevel.obj
 0002:0000e20c       ??_C@_1M@ONGIBJNA@?$AAe?$AAn?$AA?9?$AAt?$AAt@ 1007c20c     libucrt:lcidtoname_downlevel.obj
 0002:0000e218       ??_C@_1M@LLODPCMM@?$AAe?$AAn?$AA?9?$AAu?$AAs@ 1007c218     libucrt:lcidtoname_downlevel.obj
 0002:0000e224       ??_C@_1M@LAKFNPAN@?$AAe?$AAn?$AA?9?$AAz?$AAa@ 1007c224     libucrt:lcidtoname_downlevel.obj
 0002:0000e230       ??_C@_1M@MFNHNHEO@?$AAe?$AAn?$AA?9?$AAz?$AAw@ 1007c230     libucrt:lcidtoname_downlevel.obj
 0002:0000e23c       ??_C@_1M@EJEINPHM@?$AAe?$AAs?$AA?9?$AAa?$AAr@ 1007c23c     libucrt:lcidtoname_downlevel.obj
 0002:0000e248       ??_C@_1M@GNKPCCJA@?$AAe?$AAs?$AA?9?$AAb?$AAo@ 1007c248     libucrt:lcidtoname_downlevel.obj
 0002:0000e254       ??_C@_1M@LEEGFONL@?$AAe?$AAs?$AA?9?$AAc?$AAl@ 1007c254     libucrt:lcidtoname_downlevel.obj
 0002:0000e260       ??_C@_1M@KGPDPBDF@?$AAe?$AAs?$AA?9?$AAc?$AAo@ 1007c260     libucrt:lcidtoname_downlevel.obj
 0002:0000e26c       ??_C@_1M@EIAHOHH@?$AAe?$AAs?$AA?9?$AAc?$AAr@ 1007c26c     libucrt:lcidtoname_downlevel.obj
 0002:0000e278       ??_C@_1M@LLPGMBIN@?$AAe?$AAs?$AA?9?$AAd?$AAo@ 1007c278     libucrt:lcidtoname_downlevel.obj
 0002:0000e284       ??_C@_1M@DKHMKNJA@?$AAe?$AAs?$AA?9?$AAe?$AAc@ 1007c284     libucrt:lcidtoname_downlevel.obj
 0002:0000e290       ??_C@_1M@GKGFPKAP@?$AAe?$AAs?$AA?9?$AAe?$AAs@ 1007c290     libucrt:lcidtoname_downlevel.obj
 0002:0000e29c       ??_C@_1M@LKHKGDLN@?$AAe?$AAs?$AA?9?$AAg?$AAt@ 1007c29c     libucrt:lcidtoname_downlevel.obj
 0002:0000e2a8       ??_C@_1M@HEIIGGJD@?$AAe?$AAs?$AA?9?$AAh?$AAn@ 1007c2a8     libucrt:lcidtoname_downlevel.obj
 0002:0000e2b4       ??_C@_1M@FBDHPPGD@?$AAe?$AAs?$AA?9?$AAm?$AAx@ 1007c2b4     libucrt:lcidtoname_downlevel.obj
 0002:0000e2c0       ??_C@_1M@DPAGLNDH@?$AAe?$AAs?$AA?9?$AAn?$AAi@ 1007c2c0     libucrt:lcidtoname_downlevel.obj
 0002:0000e2cc       ??_C@_1M@MDGOPGDD@?$AAe?$AAs?$AA?9?$AAp?$AAa@ 1007c2cc     libucrt:lcidtoname_downlevel.obj
 0002:0000e2d8       ??_C@_1M@EMAMGBGE@?$AAe?$AAs?$AA?9?$AAp?$AAe@ 1007c2d8     libucrt:lcidtoname_downlevel.obj
 0002:0000e2e4       ??_C@_1M@IBMCAOEC@?$AAe?$AAs?$AA?9?$AAp?$AAr@ 1007c2e4     libucrt:lcidtoname_downlevel.obj
 0002:0000e2f0       ??_C@_1M@FGMDIJED@?$AAe?$AAs?$AA?9?$AAp?$AAy@ 1007c2f0     libucrt:lcidtoname_downlevel.obj
 0002:0000e2fc       ??_C@_1M@IIDEOLLL@?$AAe?$AAs?$AA?9?$AAs?$AAv@ 1007c2fc     libucrt:lcidtoname_downlevel.obj
 0002:0000e308       ??_C@_1M@GAOBIPA@?$AAe?$AAs?$AA?9?$AAu?$AAy@ 1007c308     libucrt:lcidtoname_downlevel.obj
 0002:0000e314       ??_C@_1M@JKFFICHJ@?$AAe?$AAs?$AA?9?$AAv?$AAe@ 1007c314     libucrt:lcidtoname_downlevel.obj
 0002:0000e320       ??_C@_1M@PNMLOJDF@?$AAe?$AAt?$AA?9?$AAe?$AAe@ 1007c320     libucrt:lcidtoname_downlevel.obj
 0002:0000e32c       ??_C@_1M@GHHLIKEI@?$AAe?$AAu?$AA?9?$AAe?$AAs@ 1007c32c     libucrt:lcidtoname_downlevel.obj
 0002:0000e338       ??_C@_1M@PBNONODE@?$AAf?$AAa?$AA?9?$AAi?$AAr@ 1007c338     libucrt:lcidtoname_downlevel.obj
 0002:0000e344       ??_C@_1M@JEEHPMIL@?$AAf?$AAi?$AA?9?$AAf?$AAi@ 1007c344     libucrt:lcidtoname_downlevel.obj
 0002:0000e350       ??_C@_1M@LMDCNDBA@?$AAf?$AAo?$AA?9?$AAf?$AAo@ 1007c350     libucrt:lcidtoname_downlevel.obj
 0002:0000e35c       ??_C@_1M@JKEOHLDK@?$AAf?$AAr?$AA?9?$AAb?$AAe@ 1007c35c     libucrt:lcidtoname_downlevel.obj
 0002:0000e368       ??_C@_1M@NOHADPMI@?$AAf?$AAr?$AA?9?$AAc?$AAa@ 1007c368     libucrt:lcidtoname_downlevel.obj
 0002:0000e374       ??_C@_1M@KDHIHAEC@?$AAf?$AAr?$AA?9?$AAc?$AAh@ 1007c374     libucrt:lcidtoname_downlevel.obj
 0002:0000e380       ??_C@_1M@MMBBFGAK@?$AAf?$AAr?$AA?9?$AAf?$AAr@ 1007c380     libucrt:lcidtoname_downlevel.obj
 0002:0000e38c       ??_C@_1M@PAFNENNF@?$AAf?$AAr?$AA?9?$AAl?$AAu@ 1007c38c     libucrt:lcidtoname_downlevel.obj
 0002:0000e398       ??_C@_1M@EOHDJGDD@?$AAf?$AAr?$AA?9?$AAm?$AAc@ 1007c398     libucrt:lcidtoname_downlevel.obj
 0002:0000e3a4       ??_C@_1M@FAPLLOPF@?$AAg?$AAl?$AA?9?$AAe?$AAs@ 1007c3a4     libucrt:lcidtoname_downlevel.obj
 0002:0000e3b0       ??_C@_1M@FOPBFLOO@?$AAg?$AAu?$AA?9?$AAi?$AAn@ 1007c3b0     libucrt:lcidtoname_downlevel.obj
 0002:0000e3bc       ??_C@_1M@KBMCINPM@?$AAh?$AAe?$AA?9?$AAi?$AAl@ 1007c3bc     libucrt:lcidtoname_downlevel.obj
 0002:0000e3c8       ??_C@_1M@BBPHKFPJ@?$AAh?$AAi?$AA?9?$AAi?$AAn@ 1007c3c8     libucrt:lcidtoname_downlevel.obj
 0002:0000e3d4       ??_C@_1M@PMBNDPHD@?$AAh?$AAr?$AA?9?$AAb?$AAa@ 1007c3d4     libucrt:lcidtoname_downlevel.obj
 0002:0000e3e0       ??_C@_1M@BPCKOEGE@?$AAh?$AAr?$AA?9?$AAh?$AAr@ 1007c3e0     libucrt:lcidtoname_downlevel.obj
 0002:0000e3ec       ??_C@_1M@GACBMHKE@?$AAh?$AAu?$AA?9?$AAh?$AAu@ 1007c3ec     libucrt:lcidtoname_downlevel.obj
 0002:0000e3f8       ??_C@_1M@MILPAJJC@?$AAh?$AAy?$AA?9?$AAa?$AAm@ 1007c3f8     libucrt:lcidtoname_downlevel.obj
 0002:0000e404       ??_C@_1M@BABBICEC@?$AAi?$AAd?$AA?9?$AAi?$AAd@ 1007c404     libucrt:lcidtoname_downlevel.obj
 0002:0000e410       ??_C@_1M@BIKNHHPF@?$AAi?$AAs?$AA?9?$AAi?$AAs@ 1007c410     libucrt:lcidtoname_downlevel.obj
 0002:0000e41c       ??_C@_1M@NMPCJPHE@?$AAi?$AAt?$AA?9?$AAc?$AAh@ 1007c41c     libucrt:lcidtoname_downlevel.obj
 0002:0000e428       ??_C@_1M@GHKGFEDF@?$AAi?$AAt?$AA?9?$AAi?$AAt@ 1007c428     libucrt:lcidtoname_downlevel.obj
 0002:0000e434       ??_C@_1M@NIEJCJJA@?$AAj?$AAa?$AA?9?$AAj?$AAp@ 1007c434     libucrt:lcidtoname_downlevel.obj
 0002:0000e440       ??_C@_1M@JILFNBIM@?$AAk?$AAa?$AA?9?$AAg?$AAe@ 1007c440     libucrt:lcidtoname_downlevel.obj
 0002:0000e44c       ??_C@_1M@PACPMGPH@?$AAk?$AAk?$AA?9?$AAk?$AAz@ 1007c44c     libucrt:lcidtoname_downlevel.obj
 0002:0000e458       ??_C@_1M@IELFGMHA@?$AAk?$AAn?$AA?9?$AAi?$AAn@ 1007c458     libucrt:lcidtoname_downlevel.obj
 0002:0000e464       ??_C@_1O@IBBJHCH@?$AAk?$AAo?$AAk?$AA?9?$AAi?$AAn@ 1007c464     libucrt:lcidtoname_downlevel.obj
 0002:0000e474       ??_C@_1M@DMHAEOGC@?$AAk?$AAo?$AA?9?$AAk?$AAr@ 1007c474     libucrt:lcidtoname_downlevel.obj
 0002:0000e480       ??_C@_1M@HBAHBIGA@?$AAk?$AAy?$AA?9?$AAk?$AAg@ 1007c480     libucrt:lcidtoname_downlevel.obj
 0002:0000e48c       ??_C@_1M@KPMILCJG@?$AAl?$AAt?$AA?9?$AAl?$AAt@ 1007c48c     libucrt:lcidtoname_downlevel.obj
 0002:0000e498       ??_C@_1M@BDEKKCA@?$AAl?$AAv?$AA?9?$AAl?$AAv@ 1007c498     libucrt:lcidtoname_downlevel.obj
 0002:0000e4a4       ??_C@_1M@ELCKCCJJ@?$AAm?$AAi?$AA?9?$AAn?$AAz@ 1007c4a4     libucrt:lcidtoname_downlevel.obj
 0002:0000e4b0       ??_C@_1M@CBOOLAPA@?$AAm?$AAk?$AA?9?$AAm?$AAk@ 1007c4b0     libucrt:lcidtoname_downlevel.obj
 0002:0000e4bc       ??_C@_1M@GPHNBJKN@?$AAm?$AAl?$AA?9?$AAi?$AAn@ 1007c4bc     libucrt:lcidtoname_downlevel.obj
 0002:0000e4c8       ??_C@_1M@PABJILIG@?$AAm?$AAn?$AA?9?$AAm?$AAn@ 1007c4c8     libucrt:lcidtoname_downlevel.obj
 0002:0000e4d4       ??_C@_1M@FGBKKIPG@?$AAm?$AAr?$AA?9?$AAi?$AAn@ 1007c4d4     libucrt:lcidtoname_downlevel.obj
 0002:0000e4e0       ??_C@_1M@NDBPDDAL@?$AAm?$AAs?$AA?9?$AAb?$AAn@ 1007c4e0     libucrt:lcidtoname_downlevel.obj
 0002:0000e4ec       ??_C@_1M@OPIHOOPI@?$AAm?$AAs?$AA?9?$AAm?$AAy@ 1007c4ec     libucrt:lcidtoname_downlevel.obj
 0002:0000e4f8       ??_C@_1M@PPDBCNFM@?$AAm?$AAt?$AA?9?$AAm?$AAt@ 1007c4f8     libucrt:lcidtoname_downlevel.obj
 0002:0000e504       ??_C@_1M@KDJDKMDD@?$AAn?$AAb?$AA?9?$AAn?$AAo@ 1007c504     libucrt:lcidtoname_downlevel.obj
 0002:0000e510       ??_C@_1M@KFCFLMJP@?$AAn?$AAl?$AA?9?$AAb?$AAe@ 1007c510     libucrt:lcidtoname_downlevel.obj
 0002:0000e51c       ??_C@_1M@KPOPDDGO@?$AAn?$AAl?$AA?9?$AAn?$AAl@ 1007c51c     libucrt:lcidtoname_downlevel.obj
 0002:0000e528       ??_C@_1M@LJKPEMLN@?$AAn?$AAn?$AA?9?$AAn?$AAo@ 1007c528     libucrt:lcidtoname_downlevel.obj
 0002:0000e534       ??_C@_1M@BDGHHBFL@?$AAn?$AAs?$AA?9?$AAz?$AAa@ 1007c534     libucrt:lcidtoname_downlevel.obj
 0002:0000e540       ??_C@_1M@IDEHOAP@?$AAp?$AAa?$AA?9?$AAi?$AAn@ 1007c540     libucrt:lcidtoname_downlevel.obj
 0002:0000e54c       ??_C@_1M@HDBKGOGH@?$AAp?$AAl?$AA?9?$AAp?$AAl@ 1007c54c     libucrt:lcidtoname_downlevel.obj
 0002:0000e558       ??_C@_1M@LJLLCMEH@?$AAp?$AAt?$AA?9?$AAb?$AAr@ 1007c558     libucrt:lcidtoname_downlevel.obj
 0002:0000e564       ??_C@_1M@NCMONAAL@?$AAp?$AAt?$AA?9?$AAp?$AAt@ 1007c564     libucrt:lcidtoname_downlevel.obj
 0002:0000e570       ??_C@_1O@EAKMAJDN@?$AAq?$AAu?$AAz?$AA?9?$AAb?$AAo@ 1007c570     libucrt:lcidtoname_downlevel.obj
 0002:0000e580       ??_C@_1O@BHHPIGDN@?$AAq?$AAu?$AAz?$AA?9?$AAe?$AAc@ 1007c580     libucrt:lcidtoname_downlevel.obj
 0002:0000e590       ??_C@_1O@GBAPEKMJ@?$AAq?$AAu?$AAz?$AA?9?$AAp?$AAe@ 1007c590     libucrt:lcidtoname_downlevel.obj
 0002:0000e5a0       ??_C@_1M@CLGLEFBO@?$AAr?$AAo?$AA?9?$AAr?$AAo@ 1007c5a0     libucrt:lcidtoname_downlevel.obj
 0002:0000e5ac       ??_C@_1M@CEEDODME@?$AAr?$AAu?$AA?9?$AAr?$AAu@ 1007c5ac     libucrt:lcidtoname_downlevel.obj
 0002:0000e5b8       ??_C@_1M@HPKKKMPP@?$AAs?$AAa?$AA?9?$AAi?$AAn@ 1007c5b8     libucrt:lcidtoname_downlevel.obj
 0002:0000e5c4       ??_C@_1M@BKMAIGOJ@?$AAs?$AAe?$AA?9?$AAf?$AAi@ 1007c5c4     libucrt:lcidtoname_downlevel.obj
 0002:0000e5d0       ??_C@_1M@NDPIFLFI@?$AAs?$AAe?$AA?9?$AAn?$AAo@ 1007c5d0     libucrt:lcidtoname_downlevel.obj
 0002:0000e5dc       ??_C@_1M@DANKKHJ@?$AAs?$AAe?$AA?9?$AAs?$AAe@ 1007c5dc     libucrt:lcidtoname_downlevel.obj
 0002:0000e5e8       ??_C@_1M@PNBLONPJ@?$AAs?$AAk?$AA?9?$AAs?$AAk@ 1007c5e8     libucrt:lcidtoname_downlevel.obj
 0002:0000e5f4       ??_C@_1M@LFMODOAL@?$AAs?$AAl?$AA?9?$AAs?$AAi@ 1007c5f4     libucrt:lcidtoname_downlevel.obj
 0002:0000e600       ??_C@_1O@DFKOMPG@?$AAs?$AAm?$AAa?$AA?9?$AAn?$AAo@ 1007c600     libucrt:lcidtoname_downlevel.obj
 0002:0000e610       ??_C@_1O@NDKPBNNH@?$AAs?$AAm?$AAa?$AA?9?$AAs?$AAe@ 1007c610     libucrt:lcidtoname_downlevel.obj
 0002:0000e620       ??_C@_1O@PLLKBHAB@?$AAs?$AAm?$AAj?$AA?9?$AAn?$AAo@ 1007c620     libucrt:lcidtoname_downlevel.obj
 0002:0000e630       ??_C@_1O@CLEPOGCA@?$AAs?$AAm?$AAj?$AA?9?$AAs?$AAe@ 1007c630     libucrt:lcidtoname_downlevel.obj
 0002:0000e640       ??_C@_1O@DLGJGKMK@?$AAs?$AAm?$AAn?$AA?9?$AAf?$AAi@ 1007c640     libucrt:lcidtoname_downlevel.obj
 0002:0000e650       ??_C@_1O@OJDJGAJC@?$AAs?$AAm?$AAs?$AA?9?$AAf?$AAi@ 1007c650     libucrt:lcidtoname_downlevel.obj
 0002:0000e660       ??_C@_1M@BOFOGHPB@?$AAs?$AAq?$AA?9?$AAa?$AAl@ 1007c660     libucrt:lcidtoname_downlevel.obj
 0002:0000e66c       ??_C@_1BG@LJBBIPGB@?$AAs?$AAr?$AA?9?$AAb?$AAa?$AA?9?$AAc?$AAy?$AAr?$AAl@ 1007c66c     libucrt:lcidtoname_downlevel.obj
 0002:0000e684       ??_C@_1BG@JLBENFOE@?$AAs?$AAr?$AA?9?$AAb?$AAa?$AA?9?$AAl?$AAa?$AAt?$AAn@ 1007c684     libucrt:lcidtoname_downlevel.obj
 0002:0000e69c       ??_C@_1BG@KODPNHE@?$AAs?$AAr?$AA?9?$AAs?$AAp?$AA?9?$AAc?$AAy?$AAr?$AAl@ 1007c69c     libucrt:lcidtoname_downlevel.obj
 0002:0000e6b4       ??_C@_1BG@CIOGKHPB@?$AAs?$AAr?$AA?9?$AAs?$AAp?$AA?9?$AAl?$AAa?$AAt?$AAn@ 1007c6b4     libucrt:lcidtoname_downlevel.obj
 0002:0000e6cc       ??_C@_1M@NGFJLMAC@?$AAs?$AAv?$AA?9?$AAf?$AAi@ 1007c6cc     libucrt:lcidtoname_downlevel.obj
 0002:0000e6d8       ??_C@_1M@MPJEJAJC@?$AAs?$AAv?$AA?9?$AAs?$AAe@ 1007c6d8     libucrt:lcidtoname_downlevel.obj
 0002:0000e6e4       ??_C@_1M@MPNDHLFK@?$AAs?$AAw?$AA?9?$AAk?$AAe@ 1007c6e4     libucrt:lcidtoname_downlevel.obj
 0002:0000e6f0       ??_C@_1O@KOHBJJI@?$AAs?$AAy?$AAr?$AA?9?$AAs?$AAy@ 1007c6f0     libucrt:lcidtoname_downlevel.obj
 0002:0000e700       ??_C@_1M@LDCEFHA@?$AAt?$AAa?$AA?9?$AAi?$AAn@ 1007c700     libucrt:lcidtoname_downlevel.obj
 0002:0000e70c       ??_C@_1M@CNJOFAK@?$AAt?$AAe?$AA?9?$AAi?$AAn@ 1007c70c     libucrt:lcidtoname_downlevel.obj
 0002:0000e718       ??_C@_1M@GNAECACD@?$AAt?$AAh?$AA?9?$AAt?$AAh@ 1007c718     libucrt:lcidtoname_downlevel.obj
 0002:0000e724       ??_C@_1M@CHBIHOJO@?$AAt?$AAn?$AA?9?$AAz?$AAa@ 1007c724     libucrt:lcidtoname_downlevel.obj
 0002:0000e730       ??_C@_1M@GCCMIGPJ@?$AAt?$AAr?$AA?9?$AAt?$AAr@ 1007c730     libucrt:lcidtoname_downlevel.obj
 0002:0000e73c       ??_C@_1M@CELMCNBK@?$AAt?$AAt?$AA?9?$AAr?$AAu@ 1007c73c     libucrt:lcidtoname_downlevel.obj
 0002:0000e748       ??_C@_1M@KLMCELGA@?$AAu?$AAk?$AA?9?$AAu?$AAa@ 1007c748     libucrt:lcidtoname_downlevel.obj
 0002:0000e754       ??_C@_1M@EPAJJAJF@?$AAu?$AAr?$AA?9?$AAp?$AAk@ 1007c754     libucrt:lcidtoname_downlevel.obj
 0002:0000e760       ??_C@_1BG@GEGPMCDJ@?$AAu?$AAz?$AA?9?$AAu?$AAz?$AA?9?$AAc?$AAy?$AAr?$AAl@ 1007c760     libucrt:lcidtoname_downlevel.obj
 0002:0000e778       ??_C@_1BG@EGGKJILM@?$AAu?$AAz?$AA?9?$AAu?$AAz?$AA?9?$AAl?$AAa?$AAt?$AAn@ 1007c778     libucrt:lcidtoname_downlevel.obj
 0002:0000e790       ??_C@_1M@GFOCLFF@?$AAv?$AAi?$AA?9?$AAv?$AAn@ 1007c790     libucrt:lcidtoname_downlevel.obj
 0002:0000e79c       ??_C@_1M@CPAMEDFI@?$AAx?$AAh?$AA?9?$AAz?$AAa@ 1007c79c     libucrt:lcidtoname_downlevel.obj
 0002:0000e7a8       ??_C@_1O@EBKIFIGN@?$AAz?$AAh?$AA?9?$AAc?$AAh?$AAs@ 1007c7a8     libucrt:lcidtoname_downlevel.obj
 0002:0000e7b8       ??_C@_1O@NMHPGANE@?$AAz?$AAh?$AA?9?$AAc?$AAh?$AAt@ 1007c7b8     libucrt:lcidtoname_downlevel.obj
 0002:0000e7c8       ??_C@_1M@LPINJOMC@?$AAz?$AAh?$AA?9?$AAc?$AAn@ 1007c7c8     libucrt:lcidtoname_downlevel.obj
 0002:0000e7d4       ??_C@_1M@OCJEJODD@?$AAz?$AAh?$AA?9?$AAh?$AAk@ 1007c7d4     libucrt:lcidtoname_downlevel.obj
 0002:0000e7e0       ??_C@_1M@DNDLJINH@?$AAz?$AAh?$AA?9?$AAm?$AAo@ 1007c7e0     libucrt:lcidtoname_downlevel.obj
 0002:0000e7ec       ??_C@_1M@MBFDNDND@?$AAz?$AAh?$AA?9?$AAs?$AAg@ 1007c7ec     libucrt:lcidtoname_downlevel.obj
 0002:0000e7f8       ??_C@_1M@IMEPLEPE@?$AAz?$AAh?$AA?9?$AAt?$AAw@ 1007c7f8     libucrt:lcidtoname_downlevel.obj
 0002:0000e804       ??_C@_1M@BBGHNHJP@?$AAz?$AAu?$AA?9?$AAz?$AAa@ 1007c804     libucrt:lcidtoname_downlevel.obj
 0002:0000e810       ??_C@_1DE@JNGNBFGO@?$AAR?$AAu?$AAn?$AAt?$AAi?$AAm?$AAe?$AA?5?$AAE?$AAr?$AAr?$AAo?$AAr?$AA?$CB?$AA?6@ 1007c810     libucrt:report_runtime_error.obj
 0002:0000e844       ??_C@_1CO@EAEJAADC@?$AA?$DM?$AAp?$AAr?$AAo?$AAg?$AAr?$AAa?$AAm?$AA?5?$AAn?$AAa?$AAm?$AAe?$AA?5?$AAu@ 1007c844     libucrt:report_runtime_error.obj
 0002:0000e874       ??_C@_17LGKOMLJ@?$AA?4?$AA?4?$AA?4@ 1007c874     libucrt:report_runtime_error.obj
 0002:0000e87c       ??_C@_15IABLJNFO@?$AA?6?$AA?6@ 1007c87c     libucrt:report_runtime_error.obj
 0002:0000e888       ??_C@_1EK@MBDPDCGA@?$AAM?$AAi?$AAc?$AAr?$AAo?$AAs?$AAo?$AAf?$AAt?$AA?5?$AAV?$AAi?$AAs?$AAu?$AAa@ 1007c888     libucrt:report_runtime_error.obj
 0002:0000e8d8       ___acrt_rg_language        1007c8d8     libucrt:get_qualified_locale.obj
 0002:0000ebe4       ___acrt_rg_language_count  1007cbe4     libucrt:get_qualified_locale.obj
 0002:0000ebe8       ___acrt_rg_country         1007cbe8     libucrt:get_qualified_locale.obj
 0002:0000ecfc       ___acrt_rg_country_count   1007ccfc     libucrt:get_qualified_locale.obj
 0002:0000ed00       ??_C@_1BC@LLOKLNP@?$AAa?$AAm?$AAe?$AAr?$AAi?$AAc?$AAa?$AAn@ 1007cd00     libucrt:get_qualified_locale.obj
 0002:0000ed14       ??_C@_1CC@HEIGCDGG@?$AAa?$AAm?$AAe?$AAr?$AAi?$AAc?$AAa?$AAn?$AA?5?$AAe?$AAn?$AAg?$AAl?$AAi?$AAs@ 1007cd14     libucrt:get_qualified_locale.obj
 0002:0000ed38       ??_C@_1CC@IHCNOMIN@?$AAa?$AAm?$AAe?$AAr?$AAi?$AAc?$AAa?$AAn?$AA?9?$AAe?$AAn?$AAg?$AAl?$AAi?$AAs@ 1007cd38     libucrt:get_qualified_locale.obj
 0002:0000ed5c       ??_C@_1BG@GKAGPCGG@?$AAa?$AAu?$AAs?$AAt?$AAr?$AAa?$AAl?$AAi?$AAa?$AAn@ 1007cd5c     libucrt:get_qualified_locale.obj
 0002:0000ed74       ??_C@_1BA@GMENCENF@?$AAb?$AAe?$AAl?$AAg?$AAi?$AAa?$AAn@ 1007cd74     libucrt:get_qualified_locale.obj
 0002:0000ed84       ??_C@_1BC@PJMIIAAN@?$AAc?$AAa?$AAn?$AAa?$AAd?$AAi?$AAa?$AAn@ 1007cd84     libucrt:get_qualified_locale.obj
 0002:0000ed98       ??_C@_17NOIMNFBF@?$AAc?$AAh?$AAh@ 1007cd98     libucrt:get_qualified_locale.obj
 0002:0000eda0       ??_C@_17GGDALCHA@?$AAc?$AAh?$AAi@ 1007cda0     libucrt:get_qualified_locale.obj
 0002:0000eda8       ??_C@_1BA@NPNJKIBL@?$AAc?$AAh?$AAi?$AAn?$AAe?$AAs?$AAe@ 1007cda8     libucrt:get_qualified_locale.obj
 0002:0000edb8       ??_C@_1CC@DINBAMMJ@?$AAc?$AAh?$AAi?$AAn?$AAe?$AAs?$AAe?$AA?9?$AAh?$AAo?$AAn?$AAg?$AAk?$AAo?$AAn@ 1007cdb8     libucrt:get_qualified_locale.obj
 0002:0000eddc       ??_C@_1CG@IOBJPACO@?$AAc?$AAh?$AAi?$AAn?$AAe?$AAs?$AAe?$AA?9?$AAs?$AAi?$AAm?$AAp?$AAl?$AAi?$AAf@ 1007cddc     libucrt:get_qualified_locale.obj
 0002:0000ee04       ??_C@_1CE@GAJNDCKG@?$AAc?$AAh?$AAi?$AAn?$AAe?$AAs?$AAe?$AA?9?$AAs?$AAi?$AAn?$AAg?$AAa?$AAp?$AAo@ 1007ce04     libucrt:get_qualified_locale.obj
 0002:0000ee28       ??_C@_1CI@PAJPIOOD@?$AAc?$AAh?$AAi?$AAn?$AAe?$AAs?$AAe?$AA?9?$AAt?$AAr?$AAa?$AAd?$AAi?$AAt?$AAi@ 1007ce28     libucrt:get_qualified_locale.obj
 0002:0000ee50       ??_C@_1BM@NILJBMMD@?$AAd?$AAu?$AAt?$AAc?$AAh?$AA?9?$AAb?$AAe?$AAl?$AAg?$AAi?$AAa?$AAn@ 1007ce50     libucrt:get_qualified_locale.obj
 0002:0000ee6c       ??_C@_1CC@OOJPJNEJ@?$AAe?$AAn?$AAg?$AAl?$AAi?$AAs?$AAh?$AA?9?$AAa?$AAm?$AAe?$AAr?$AAi?$AAc?$AAa@ 1007ce6c     libucrt:get_qualified_locale.obj
 0002:0000ee90       ??_C@_1BI@IOLFEEM@?$AAe?$AAn?$AAg?$AAl?$AAi?$AAs?$AAh?$AA?9?$AAa?$AAu?$AAs@ 1007ce90     libucrt:get_qualified_locale.obj
 0002:0000eea8       ??_C@_1BO@HFFNLENJ@?$AAe?$AAn?$AAg?$AAl?$AAi?$AAs?$AAh?$AA?9?$AAb?$AAe?$AAl?$AAi?$AAz?$AAe@ 1007cea8     libucrt:get_qualified_locale.obj
 0002:0000eec8       ??_C@_1BI@HAPKJMPO@?$AAe?$AAn?$AAg?$AAl?$AAi?$AAs?$AAh?$AA?9?$AAc?$AAa?$AAn@ 1007cec8     libucrt:get_qualified_locale.obj
 0002:0000eee0       ??_C@_1CE@HLNDMIOJ@?$AAe?$AAn?$AAg?$AAl?$AAi?$AAs?$AAh?$AA?9?$AAc?$AAa?$AAr?$AAi?$AAb?$AAb?$AAe@ 1007cee0     libucrt:get_qualified_locale.obj
 0002:0000ef04       ??_C@_1BI@LDHJHHAC@?$AAe?$AAn?$AAg?$AAl?$AAi?$AAs?$AAh?$AA?9?$AAi?$AAr?$AAe@ 1007cf04     libucrt:get_qualified_locale.obj
 0002:0000ef1c       ??_C@_1CA@NJMMCFOC@?$AAe?$AAn?$AAg?$AAl?$AAi?$AAs?$AAh?$AA?9?$AAj?$AAa?$AAm?$AAa?$AAi?$AAc?$AAa@ 1007cf1c     libucrt:get_qualified_locale.obj
 0002:0000ef3c       ??_C@_1BG@BHJEBBGG@?$AAe?$AAn?$AAg?$AAl?$AAi?$AAs?$AAh?$AA?9?$AAn?$AAz@ 1007cf3c     libucrt:get_qualified_locale.obj
 0002:0000ef54       ??_C@_1CK@FGOEJJCO@?$AAe?$AAn?$AAg?$AAl?$AAi?$AAs?$AAh?$AA?9?$AAs?$AAo?$AAu?$AAt?$AAh?$AA?5?$AAa@ 1007cf54     libucrt:get_qualified_locale.obj
 0002:0000ef80       ??_C@_1DE@PDBJPCJ@?$AAe?$AAn?$AAg?$AAl?$AAi?$AAs?$AAh?$AA?9?$AAt?$AAr?$AAi?$AAn?$AAi?$AAd?$AAa@ 1007cf80     libucrt:get_qualified_locale.obj
 0002:0000efb4       ??_C@_1BG@JGCANDME@?$AAe?$AAn?$AAg?$AAl?$AAi?$AAs?$AAh?$AA?9?$AAu?$AAk@ 1007cfb4     libucrt:get_qualified_locale.obj
 0002:0000efcc       ??_C@_1BG@DINKMLE@?$AAe?$AAn?$AAg?$AAl?$AAi?$AAs?$AAh?$AA?9?$AAu?$AAs@ 1007cfcc     libucrt:get_qualified_locale.obj
 0002:0000efe4       ??_C@_1BI@NMFDBHJE@?$AAe?$AAn?$AAg?$AAl?$AAi?$AAs?$AAh?$AA?9?$AAu?$AAs?$AAa@ 1007cfe4     libucrt:get_qualified_locale.obj
 0002:0000effc       ??_C@_1BO@OIHKJKII@?$AAf?$AAr?$AAe?$AAn?$AAc?$AAh?$AA?9?$AAb?$AAe?$AAl?$AAg?$AAi?$AAa?$AAn@ 1007cffc     libucrt:get_qualified_locale.obj
 0002:0000f01c       ??_C@_1CA@NKAELJKI@?$AAf?$AAr?$AAe?$AAn?$AAc?$AAh?$AA?9?$AAc?$AAa?$AAn?$AAa?$AAd?$AAi?$AAa?$AAn@ 1007d01c     libucrt:get_qualified_locale.obj
 0002:0000f03c       ??_C@_1CE@MGKCNLGN@?$AAf?$AAr?$AAe?$AAn?$AAc?$AAh?$AA?9?$AAl?$AAu?$AAx?$AAe?$AAm?$AAb?$AAo?$AAu@ 1007d03c     libucrt:get_qualified_locale.obj
 0002:0000f060       ??_C@_1BK@CEGEAILM@?$AAf?$AAr?$AAe?$AAn?$AAc?$AAh?$AA?9?$AAs?$AAw?$AAi?$AAs?$AAs@ 1007d060     libucrt:get_qualified_locale.obj
 0002:0000f07c       ??_C@_1CA@PAFKEOCC@?$AAg?$AAe?$AAr?$AAm?$AAa?$AAn?$AA?9?$AAa?$AAu?$AAs?$AAt?$AAr?$AAi?$AAa?$AAn@ 1007d07c     libucrt:get_qualified_locale.obj
 0002:0000f09c       ??_C@_1CI@HCFHGOFD@?$AAg?$AAe?$AAr?$AAm?$AAa?$AAn?$AA?9?$AAl?$AAi?$AAc?$AAh?$AAt?$AAe?$AAn?$AAs@ 1007d09c     libucrt:get_qualified_locale.obj
 0002:0000f0c4       ??_C@_1CE@FEDDNPDG@?$AAg?$AAe?$AAr?$AAm?$AAa?$AAn?$AA?9?$AAl?$AAu?$AAx?$AAe?$AAm?$AAb?$AAo?$AAu@ 1007d0c4     libucrt:get_qualified_locale.obj
 0002:0000f0e8       ??_C@_1BK@LIMINNMN@?$AAg?$AAe?$AAr?$AAm?$AAa?$AAn?$AA?9?$AAs?$AAw?$AAi?$AAs?$AAs@ 1007d0e8     libucrt:get_qualified_locale.obj
 0002:0000f104       ??_C@_1BM@LGMDBEPD@?$AAi?$AAr?$AAi?$AAs?$AAh?$AA?9?$AAe?$AAn?$AAg?$AAl?$AAi?$AAs?$AAh@ 1007d104     libucrt:get_qualified_locale.obj
 0002:0000f120       ??_C@_1BM@NNCFBAEE@?$AAi?$AAt?$AAa?$AAl?$AAi?$AAa?$AAn?$AA?9?$AAs?$AAw?$AAi?$AAs?$AAs@ 1007d120     libucrt:get_qualified_locale.obj
 0002:0000f13c       ??_C@_1BE@FEDJNPIB@?$AAn?$AAo?$AAr?$AAw?$AAe?$AAg?$AAi?$AAa?$AAn@ 1007d13c     libucrt:get_qualified_locale.obj
 0002:0000f150       ??_C@_1CC@CILKDEIE@?$AAn?$AAo?$AAr?$AAw?$AAe?$AAg?$AAi?$AAa?$AAn?$AA?9?$AAb?$AAo?$AAk?$AAm?$AAa@ 1007d150     libucrt:get_qualified_locale.obj
 0002:0000f174       ??_C@_1CE@DHMMHEPL@?$AAn?$AAo?$AAr?$AAw?$AAe?$AAg?$AAi?$AAa?$AAn?$AA?9?$AAn?$AAy?$AAn?$AAo?$AAr@ 1007d174     libucrt:get_qualified_locale.obj
 0002:0000f198       ??_C@_1CK@OPNMHECD@?$AAp?$AAo?$AAr?$AAt?$AAu?$AAg?$AAu?$AAe?$AAs?$AAe?$AA?9?$AAb?$AAr?$AAa?$AAz@ 1007d198     libucrt:get_qualified_locale.obj
 0002:0000f1c4       ??_C@_1CE@KEEHCDB@?$AAs?$AAp?$AAa?$AAn?$AAi?$AAs?$AAh?$AA?9?$AAa?$AAr?$AAg?$AAe?$AAn?$AAt?$AAi@ 1007d1c4     libucrt:get_qualified_locale.obj
 0002:0000f1e8       ??_C@_1CA@GIAOLHJD@?$AAs?$AAp?$AAa?$AAn?$AAi?$AAs?$AAh?$AA?9?$AAb?$AAo?$AAl?$AAi?$AAv?$AAi?$AAa@ 1007d1e8     libucrt:get_qualified_locale.obj
 0002:0000f208       ??_C@_1BM@OJNDFNPD@?$AAs?$AAp?$AAa?$AAn?$AAi?$AAs?$AAh?$AA?9?$AAc?$AAh?$AAi?$AAl?$AAe@ 1007d208     libucrt:get_qualified_locale.obj
 0002:0000f224       ??_C@_1CC@OCOLPALL@?$AAs?$AAp?$AAa?$AAn?$AAi?$AAs?$AAh?$AA?9?$AAc?$AAo?$AAl?$AAo?$AAm?$AAb?$AAi@ 1007d224     libucrt:get_qualified_locale.obj
 0002:0000f248       ??_C@_1CG@BPOFMKBB@?$AAs?$AAp?$AAa?$AAn?$AAi?$AAs?$AAh?$AA?9?$AAc?$AAo?$AAs?$AAt?$AAa?$AA?5?$AAr@ 1007d248     libucrt:get_qualified_locale.obj
 0002:0000f270       ??_C@_1DG@IGOBAPBB@?$AAs?$AAp?$AAa?$AAn?$AAi?$AAs?$AAh?$AA?9?$AAd?$AAo?$AAm?$AAi?$AAn?$AAi?$AAc@ 1007d270     libucrt:get_qualified_locale.obj
 0002:0000f2a8       ??_C@_1CA@JHAPGEGI@?$AAs?$AAp?$AAa?$AAn?$AAi?$AAs?$AAh?$AA?9?$AAe?$AAc?$AAu?$AAa?$AAd?$AAo?$AAr@ 1007d2a8     libucrt:get_qualified_locale.obj
 0002:0000f2c8       ??_C@_1CI@LAPALJPP@?$AAs?$AAp?$AAa?$AAn?$AAi?$AAs?$AAh?$AA?9?$AAe?$AAl?$AA?5?$AAs?$AAa?$AAl?$AAv@ 1007d2c8     libucrt:get_qualified_locale.obj
 0002:0000f2f0       ??_C@_1CE@PDGBOFOM@?$AAs?$AAp?$AAa?$AAn?$AAi?$AAs?$AAh?$AA?9?$AAg?$AAu?$AAa?$AAt?$AAe?$AAm?$AAa@ 1007d2f0     libucrt:get_qualified_locale.obj
 0002:0000f314       ??_C@_1CC@NBEBAODI@?$AAs?$AAp?$AAa?$AAn?$AAi?$AAs?$AAh?$AA?9?$AAh?$AAo?$AAn?$AAd?$AAu?$AAr?$AAa@ 1007d314     libucrt:get_qualified_locale.obj
 0002:0000f338       ??_C@_1CA@LLKGHBMF@?$AAs?$AAp?$AAa?$AAn?$AAi?$AAs?$AAh?$AA?9?$AAm?$AAe?$AAx?$AAi?$AAc?$AAa?$AAn@ 1007d338     libucrt:get_qualified_locale.obj
 0002:0000f358       ??_C@_1BO@LKNDOIGD@?$AAs?$AAp?$AAa?$AAn?$AAi?$AAs?$AAh?$AA?9?$AAm?$AAo?$AAd?$AAe?$AAr?$AAn@ 1007d358     libucrt:get_qualified_locale.obj
 0002:0000f378       ??_C@_1CE@NMDMOEEB@?$AAs?$AAp?$AAa?$AAn?$AAi?$AAs?$AAh?$AA?9?$AAn?$AAi?$AAc?$AAa?$AAr?$AAa?$AAg@ 1007d378     libucrt:get_qualified_locale.obj
 0002:0000f39c       ??_C@_1BO@LLCBEJGB@?$AAs?$AAp?$AAa?$AAn?$AAi?$AAs?$AAh?$AA?9?$AAp?$AAa?$AAn?$AAa?$AAm?$AAa@ 1007d39c     libucrt:get_qualified_locale.obj
 0002:0000f3bc       ??_C@_1CC@FKPGGIHO@?$AAs?$AAp?$AAa?$AAn?$AAi?$AAs?$AAh?$AA?9?$AAp?$AAa?$AAr?$AAa?$AAg?$AAu?$AAa@ 1007d3bc     libucrt:get_qualified_locale.obj
 0002:0000f3e0       ??_C@_1BK@CDEIHOOP@?$AAs?$AAp?$AAa?$AAn?$AAi?$AAs?$AAh?$AA?9?$AAp?$AAe?$AAr?$AAu@ 1007d3e0     libucrt:get_qualified_locale.obj
 0002:0000f3fc       ??_C@_1CI@GAHAKKGP@?$AAs?$AAp?$AAa?$AAn?$AAi?$AAs?$AAh?$AA?9?$AAp?$AAu?$AAe?$AAr?$AAt?$AAo?$AA?5@ 1007d3fc     libucrt:get_qualified_locale.obj
 0002:0000f424       ??_C@_1CA@NKJBCAGP@?$AAs?$AAp?$AAa?$AAn?$AAi?$AAs?$AAh?$AA?9?$AAu?$AAr?$AAu?$AAg?$AAu?$AAa?$AAy@ 1007d424     libucrt:get_qualified_locale.obj
 0002:0000f444       ??_C@_1CE@ODILCONM@?$AAs?$AAp?$AAa?$AAn?$AAi?$AAs?$AAh?$AA?9?$AAv?$AAe?$AAn?$AAe?$AAz?$AAu?$AAe@ 1007d444     libucrt:get_qualified_locale.obj
 0002:0000f468       ??_C@_1CA@OBNMCGFO@?$AAs?$AAw?$AAe?$AAd?$AAi?$AAs?$AAh?$AA?9?$AAf?$AAi?$AAn?$AAl?$AAa?$AAn?$AAd@ 1007d468     libucrt:get_qualified_locale.obj
 0002:0000f488       ??_C@_1M@PIPDDPPI@?$AAs?$AAw?$AAi?$AAs?$AAs@ 1007d488     libucrt:get_qualified_locale.obj
 0002:0000f494       ??_C@_15GMFIMNFM@?$AAu?$AAs@ 1007d494     libucrt:get_qualified_locale.obj
 0002:0000f49c       ??_C@_17HAEBFAGL@?$AAu?$AAs?$AAa@ 1007d49c     libucrt:get_qualified_locale.obj
 0002:0000f4a4       ??_C@_1BA@DPFJEPHB@?$AAa?$AAm?$AAe?$AAr?$AAi?$AAc?$AAa@ 1007d4a4     libucrt:get_qualified_locale.obj
 0002:0000f4b4       ??_C@_1BA@ELOGGFK@?$AAb?$AAr?$AAi?$AAt?$AAa?$AAi?$AAn@ 1007d4b4     libucrt:get_qualified_locale.obj
 0002:0000f4c4       ??_C@_1M@GHBGIGDA@?$AAc?$AAh?$AAi?$AAn?$AAa@ 1007d4c4     libucrt:get_qualified_locale.obj
 0002:0000f4d0       ??_C@_1M@NCHEJOPO@?$AAc?$AAz?$AAe?$AAc?$AAh@ 1007d4d0     libucrt:get_qualified_locale.obj
 0002:0000f4dc       ??_C@_1BA@BKPAPBLA@?$AAe?$AAn?$AAg?$AAl?$AAa?$AAn?$AAd@ 1007d4dc     libucrt:get_qualified_locale.obj
 0002:0000f4ec       ??_C@_1BM@HKBCKIPC@?$AAg?$AAr?$AAe?$AAa?$AAt?$AA?5?$AAb?$AAr?$AAi?$AAt?$AAa?$AAi?$AAn@ 1007d4ec     libucrt:get_qualified_locale.obj
 0002:0000f508       ??_C@_1BA@PPCHPGJB@?$AAh?$AAo?$AAl?$AAl?$AAa?$AAn?$AAd@ 1007d508     libucrt:get_qualified_locale.obj
 0002:0000f518       ??_C@_1BE@JBMPEGDG@?$AAh?$AAo?$AAn?$AAg?$AA?9?$AAk?$AAo?$AAn?$AAg@ 1007d518     libucrt:get_qualified_locale.obj
 0002:0000f52c       ??_C@_1BI@KOELBBPJ@?$AAn?$AAe?$AAw?$AA?9?$AAz?$AAe?$AAa?$AAl?$AAa?$AAn?$AAd@ 1007d52c     libucrt:get_qualified_locale.obj
 0002:0000f544       ??_C@_15HIEBHAIO@?$AAn?$AAz@ 1007d544     libucrt:get_qualified_locale.obj
 0002:0000f54c       ??_C@_1BC@CHBCPFPI@?$AAp?$AAr?$AA?5?$AAc?$AAh?$AAi?$AAn?$AAa@ 1007d54c     libucrt:get_qualified_locale.obj
 0002:0000f560       ??_C@_1BC@JAOIIFKD@?$AAp?$AAr?$AA?9?$AAc?$AAh?$AAi?$AAn?$AAa@ 1007d560     libucrt:get_qualified_locale.obj
 0002:0000f574       ??_C@_1BI@BEHPPHKC@?$AAp?$AAu?$AAe?$AAr?$AAt?$AAo?$AA?9?$AAr?$AAi?$AAc?$AAo@ 1007d574     libucrt:get_qualified_locale.obj
 0002:0000f58c       ??_C@_1O@PAEOFKDI@?$AAs?$AAl?$AAo?$AAv?$AAa?$AAk@ 1007d58c     libucrt:get_qualified_locale.obj
 0002:0000f59c       ??_C@_1BK@FIHMCKAM@?$AAs?$AAo?$AAu?$AAt?$AAh?$AA?5?$AAa?$AAf?$AAr?$AAi?$AAc?$AAa@ 1007d59c     libucrt:get_qualified_locale.obj
 0002:0000f5b8       ??_C@_1BI@NAEOODKB@?$AAs?$AAo?$AAu?$AAt?$AAh?$AA?5?$AAk?$AAo?$AAr?$AAe?$AAa@ 1007d5b8     libucrt:get_qualified_locale.obj
 0002:0000f5d0       ??_C@_1BK@FBDGGIFF@?$AAs?$AAo?$AAu?$AAt?$AAh?$AA?9?$AAa?$AAf?$AAr?$AAi?$AAc?$AAa@ 1007d5d0     libucrt:get_qualified_locale.obj
 0002:0000f5ec       ??_C@_1BI@GHLEJDPK@?$AAs?$AAo?$AAu?$AAt?$AAh?$AA?9?$AAk?$AAo?$AAr?$AAe?$AAa@ 1007d5ec     libucrt:get_qualified_locale.obj
 0002:0000f604       ??_C@_1CE@PLHLOMJF@?$AAt?$AAr?$AAi?$AAn?$AAi?$AAd?$AAa?$AAd?$AA?5?$AA?$CG?$AA?5?$AAt?$AAo?$AAb?$AAa@ 1007d604     libucrt:get_qualified_locale.obj
 0002:0000f628       ??_C@_1BO@MODIMHHI@?$AAu?$AAn?$AAi?$AAt?$AAe?$AAd?$AA?9?$AAk?$AAi?$AAn?$AAg?$AAd?$AAo?$AAm@ 1007d628     libucrt:get_qualified_locale.obj
 0002:0000f648       ??_C@_1BM@FFHJONBJ@?$AAu?$AAn?$AAi?$AAt?$AAe?$AAd?$AA?9?$AAs?$AAt?$AAa?$AAt?$AAe?$AAs@ 1007d648     libucrt:get_qualified_locale.obj
 0002:0000f664       ??_C@_19MPDNHKDG@?$AAu?$AAt?$AAf?$AA8@ 1007d664     libucrt:get_qualified_locale.obj
 0002:0000f670       ??_C@_17DNCLJFIF@?$AAA?$AAC?$AAP@ 1007d670     libucrt:get_qualified_locale.obj
 0002:0000f678       ??_C@_1M@FPEIIFAM@?$AAu?$AAt?$AAf?$AA?9?$AA8@ 1007d678     libucrt:get_qualified_locale.obj
 0002:0000f684       ??_C@_17CIKBIHLH@?$AAO?$AAC?$AAP@ 1007d684     libucrt:get_qualified_locale.obj
 0002:0000f68c       ___rglangidNotDefault      1007d68c     libucrt:getqloc_downlevel.obj
 0002:0000f6a0       ?large_power_data@?1??multiply_by_power_of_ten@__crt_strtox@@YA_NAAUbig_integer@2@I@Z@4QBIB 1007d6a0     libucrt:cfout.obj
 0002:0000ffa8       ?large_power_indices@?1??multiply_by_power_of_ten@__crt_strtox@@YA_NAAUbig_integer@2@I@Z@4QBUunpack_index@?1??12@YA_N0I@Z@B 1007dfa8     libucrt:cfout.obj
 0002:00010040       ?small_powers_of_ten@?1??multiply_by_power_of_ten@__crt_strtox@@YA_NAAUbig_integer@2@I@Z@4QBIB 1007e040     libucrt:cfout.obj
 0002:00010064       ??_C@_01GBGANLPD@0@        1007e064     libucrt:cfout.obj
 0002:00010068       ??_C@_05DNEBIAHO@1?$CDINF@ 1007e068     libucrt:cfout.obj
 0002:00010070       ??_C@_06IMKFLFPG@1?$CDQNAN@ 1007e070     libucrt:cfout.obj
 0002:00010078       ??_C@_06PGGFOGJG@1?$CDSNAN@ 1007e078     libucrt:cfout.obj
 0002:00010080       ??_C@_05PHHOCPM@1?$CDIND@  1007e080     libucrt:cfout.obj
 0002:00010150       __infinity                 1007e150     libucrt:87tran.obj
 0002:0001015a       __minfinity                1007e15a     libucrt:87tran.obj
 0002:00010164       __logemax                  1007e164     libucrt:87tran.obj
 0002:0001018a       __OP_EXPjmptab             1007e18a     libucrt:87tran.obj
 0002:000105e0       ??_C@_1BA@BALFACEM@?$AAC?$AAO?$AAN?$AAO?$AAU?$AAT?$AA$@ 1007e5e0     libucrt:initcon.obj
 0002:00010650       __Denorm_C                 1007e650     libucrt:_values.obj
 0002:00010658       __Inf_C                    1007e658     libucrt:_values.obj
 0002:00010660       __Nan_C                    1007e660     libucrt:_values.obj
 0002:00010668       __Snan_C                   1007e668     libucrt:_values.obj
 0002:00010670       __Hugeval_C                1007e670     libucrt:_values.obj
 0002:00010678       __FDenorm_C                1007e678     libucrt:_values.obj
 0002:00010680       __FInf_C                   1007e680     libucrt:_values.obj
 0002:00010688       __FNan_C                   1007e688     libucrt:_values.obj
 0002:00010690       __FSnan_C                  1007e690     libucrt:_values.obj
 0002:00010698       __LDenorm_C                1007e698     libucrt:_values.obj
 0002:000106a0       __LInf_C                   1007e6a0     libucrt:_values.obj
 0002:000106a8       __LNan_C                   1007e6a8     libucrt:_values.obj
 0002:000106b0       __LSnan_C                  1007e6b0     libucrt:_values.obj
 0002:000106b8       __Eps_C                    1007e6b8     libucrt:_values.obj
 0002:000106c0       __Rteps_C                  1007e6c0     libucrt:_values.obj
 0002:000106c8       __FEps_C                   1007e6c8     libucrt:_values.obj
 0002:000106d0       __FRteps_C                 1007e6d0     libucrt:_values.obj
 0002:000106d8       __LEps_C                   1007e6d8     libucrt:_values.obj
 0002:000106e0       __LRteps_C                 1007e6e0     libucrt:_values.obj
 0002:000106e8       __Zero_C                   1007e6e8     libucrt:_values.obj
 0002:000106f0       __Xbig_C                   1007e6f0     libucrt:_values.obj
 0002:000106f8       __FZero_C                  1007e6f8     libucrt:_values.obj
 0002:000106fc       __FXbig_C                  1007e6fc     libucrt:_values.obj
 0002:00010700       __LZero_C                  1007e700     libucrt:_values.obj
 0002:00010708       __LXbig_C                  1007e708     libucrt:_values.obj
 0002:00010714       ??_7type_info@@6B@         1007e714     LIBCMT:std_type_info_static.obj
 0002:00010770       __load_config_used         1007e770     LIBCMT:loadcfg.obj
 0002:00010840       ___CastGuardVftablesStart  1007e840     LIBCMT:guard_support.obj
 0002:00010844       ___CastGuardVftablesEnd    1007e844     LIBCMT:guard_support.obj
 0002:00010848       ??_R4DNameNode@@6B@        1007e848     libvcruntime:undname.obj
 0002:0001085c       ??_R3DNameNode@@8          1007e85c     libvcruntime:undname.obj
 0002:0001086c       ??_R2DNameNode@@8          1007e86c     libvcruntime:undname.obj
 0002:00010874       ??_R1A@?0A@EA@DNameNode@@8 1007e874     libvcruntime:undname.obj
 0002:00010890       ??_R4charNode@@6B@         1007e890     libvcruntime:undname.obj
 0002:000108a4       ??_R3charNode@@8           1007e8a4     libvcruntime:undname.obj
 0002:000108b4       ??_R2charNode@@8           1007e8b4     libvcruntime:undname.obj
 0002:000108c0       ??_R1A@?0A@EA@charNode@@8  1007e8c0     libvcruntime:undname.obj
 0002:000108dc       ??_R4pcharNode@@6B@        1007e8dc     libvcruntime:undname.obj
 0002:000108f0       ??_R3pcharNode@@8          1007e8f0     libvcruntime:undname.obj
 0002:00010900       ??_R2pcharNode@@8          1007e900     libvcruntime:undname.obj
 0002:0001090c       ??_R1A@?0A@EA@pcharNode@@8 1007e90c     libvcruntime:undname.obj
 0002:00010928       ??_R4pDNameNode@@6B@       1007e928     libvcruntime:undname.obj
 0002:0001093c       ??_R3pDNameNode@@8         1007e93c     libvcruntime:undname.obj
 0002:0001094c       ??_R2pDNameNode@@8         1007e94c     libvcruntime:undname.obj
 0002:00010958       ??_R1A@?0A@EA@pDNameNode@@8 1007e958     libvcruntime:undname.obj
 0002:00010974       ??_R4DNameStatusNode@@6B@  1007e974     libvcruntime:undname.obj
 0002:00010988       ??_R3DNameStatusNode@@8    1007e988     libvcruntime:undname.obj
 0002:00010998       ??_R2DNameStatusNode@@8    1007e998     libvcruntime:undname.obj
 0002:000109a4       ??_R1A@?0A@EA@DNameStatusNode@@8 1007e9a4     libvcruntime:undname.obj
 0002:000109c0       ??_R4pairNode@@6B@         1007e9c0     libvcruntime:undname.obj
 0002:000109d4       ??_R3pairNode@@8           1007e9d4     libvcruntime:undname.obj
 0002:000109e4       ??_R2pairNode@@8           1007e9e4     libvcruntime:undname.obj
 0002:000109f0       ??_R1A@?0A@EA@pairNode@@8  1007e9f0     libvcruntime:undname.obj
 0002:00010a0c       ??_R4exception@std@@6B@    1007ea0c     libvcruntime:frame.obj
 0002:00010a20       ??_R3exception@std@@8      1007ea20     libvcruntime:frame.obj
 0002:00010a30       ??_R2exception@std@@8      1007ea30     libvcruntime:frame.obj
 0002:00010a38       ??_R1A@?0A@EA@exception@std@@8 1007ea38     libvcruntime:frame.obj
 0002:00010a54       ??_R4bad_exception@std@@6B@ 1007ea54     libvcruntime:frame.obj
 0002:00010a68       ??_R3bad_exception@std@@8  1007ea68     libvcruntime:frame.obj
 0002:00010a78       ??_R2bad_exception@std@@8  1007ea78     libvcruntime:frame.obj
 0002:00010a84       ??_R1A@?0A@EA@bad_exception@std@@8 1007ea84     libvcruntime:frame.obj
 0002:00010aa0       ??_R4type_info@@6B@        1007eaa0     LIBCMT:std_type_info_static.obj
 0002:00010ab4       ??_R3type_info@@8          1007eab4     LIBCMT:std_type_info_static.obj
 0002:00010ac4       ??_R2type_info@@8          1007eac4     LIBCMT:std_type_info_static.obj
 0002:00010acc       ??_R1A@?0A@EA@type_info@@8 1007eacc     LIBCMT:std_type_info_static.obj
 0002:00010ae8       ___safe_se_handler_table   1007eae8     <linker-defined>
 0002:00010b38       ___volatile_metadata       1007eb38     <linker-defined>
 0002:00011268       ___rtc_iaa                 1007f268     LIBCMT:initsect.obj
 0002:0001126c       ___rtc_izz                 1007f26c     LIBCMT:initsect.obj
 0002:00011270       ___rtc_taa                 1007f270     LIBCMT:initsect.obj
 0002:00011274       ___rtc_tzz                 1007f274     LIBCMT:initsect.obj
 0002:0001144c       __TI2?AVbad_exception@std@@ 1007f44c     libvcruntime:frame.obj
 0002:0001145c       __CTA2?AVbad_exception@std@@ 1007f45c     libvcruntime:frame.obj
 0002:00011468       __CT??_R0?AVbad_exception@std@@@8??0bad_exception@std@@QAE@ABV01@@Z12 1007f468     libvcruntime:frame.obj
 0002:00011484       __CT??_R0?AVexception@std@@@8??0exception@std@@QAE@ABV01@@Z12 1007f484     libvcruntime:frame.obj
 0002:00013074       __IMPORT_DESCRIPTOR_WINMM  10081074     winMM:WINMM.dll
 0002:00013088       __IMPORT_DESCRIPTOR_libfftw3f-3 10081088     libfftw3f-3:libfftw3f-3.dll
 0002:0001309c       __IMPORT_DESCRIPTOR_pthreadVC 1008109c     pthreadVC:pthreadVC.dll
 0002:000130b0       __IMPORT_DESCRIPTOR_KERNEL32 100810b0     kernel32:KERNEL32.dll
 0002:000130c4       __NULL_IMPORT_DESCRIPTOR   100810c4     winMM:WINMM.dll
 0003:00000000       _IQdoit                    10082000     correctIQ.obj
 0003:00000004       _cxone                     10082004     cxops.obj
 0003:0000000c       _cxJ                       1008200c     cxops.obj
 0003:00000014       _cxminusone                10082014     cxops.obj
 0003:0000001c       _cxminusJ                  1008201c     cxops.obj
 0003:00000340       _SAMP_RATE                 10082340     keyd.obj
 0003:00000344       _key_poll_period           10082344     keyd.obj
 0003:00000348       _TONE_SIZE                 10082348     keyd.obj
 0003:0000034c       _SIZEBUF                   1008234c     keyd.obj
 0003:00000364       _threadno                  10082364     update.obj
 0003:0000076c       __fltused                  1008276c     LIBCMT:fltused.obj
 0003:00000770       ___security_cookie_complement 10082770     LIBCMT:gs_cookie.obj
 0003:00000774       ___security_cookie         10082774     LIBCMT:gs_cookie.obj
 0003:00000780       ___isa_enabled             10082780     LIBCMT:cpu_disp.obj
 0003:00000784       ___scrt_native_dllmain_reason 10082784     LIBCMT:utility.obj
 0003:000007a0       __NLG_Destination          100827a0     libvcruntime:exsup.obj
 0003:00000958       __iob                      10082958     libucrt:_file.obj
 0003:00000a00       ___abort_behavior          10082a00     libucrt:abort.obj
 0003:00000a20       ___acrt_initial_locale_data 10082a20     libucrt:nlsdata.obj
 0003:00000ad8       ___acrt_initial_locale_pointers 10082ad8     libucrt:nlsdata.obj
 0003:00000ae0       ___acrt_wide_c_locale_string 10082ae0     libucrt:nlsdata.obj
 0003:00000ae4       ___mb_cur_max              10082ae4     libucrt:nlsdata.obj
 0003:00000ae8       ___badioinfo               10082ae8     libucrt:ioinit.obj
 0003:00000b20       __lookuptrailbytes         10082b20     libucrt:read.obj
 0003:00000c28       ___acrt_initial_multibyte_data 10082c28     libucrt:mbctype.obj
 0003:00001148       __pctype                   10083148     libucrt:ctype.obj
 0003:0000114c       __pwctype                  1008314c     libucrt:ctype.obj
 0003:00001150       ___globallocalestatus      10083150     libucrt:glstatus.obj
 0003:00001158       ___acrt_lconv_c            10083158     libucrt:localeconv.obj
 0003:000011a8       ___acrt_lconv              100831a8     libucrt:localeconv.obj
 0003:000011ac       ___acrt_lconv_static_decimal 100831ac     libucrt:localeconv.obj
 0003:000011b0       ___acrt_lconv_static_W_decimal 100831b0     libucrt:localeconv.obj
 0003:000011d0       ??_R0?AVbad_alloc@std@@@8  100831d0     libvcruntime:ehhelpers.obj
 0003:000011ec       ??_R0?AVbad_exception@std@@@8 100831ec     libvcruntime:frame.obj
 0003:0000120c       ??_R0?AVexception@std@@@8  1008320c     libvcruntime:frame.obj
 0003:00001228       ??_R0?AVDNameNode@@@8      10083228     libvcruntime:undname.obj
 0003:00001240       ??_R0?AVcharNode@@@8       10083240     libvcruntime:undname.obj
 0003:00001258       ??_R0?AVpcharNode@@@8      10083258     libvcruntime:undname.obj
 0003:00001270       ??_R0?AVpDNameNode@@@8     10083270     libvcruntime:undname.obj
 0003:0000128c       ??_R0?AVDNameStatusNode@@@8 1008328c     libvcruntime:undname.obj
 0003:000012ac       ??_R0?AVpairNode@@@8       100832ac     libvcruntime:undname.obj
 0003:000012c4       ??_R0?AVtype_info@@@8      100832c4     LIBCMT:std_type_info_static.obj
 0003:000013e4       _cxzero                    100833e4     cxops.obj
 0003:00001404       _timerid                   10083404     keyd.obj
 0003:00001408       _dotkey                    10083408     keyd.obj
 0003:0000152c       _test                      1008352c     noiseblanker.obj
 0003:00001530       _PERCENT                   10083530     noiseblanker.obj
 0003:00001894       ___isa_available           10083894     LIBCMT:cpu_disp.obj
 0003:00001898       ___favor                   10083898     LIBCMT:cpu_disp.obj
 0003:000018a0       ?__type_info_root_node@@3U__type_info_node@@A 100838a0     LIBCMT:tncleanup.obj
 0003:000018a8       ?_OptionsStorage@?1??__local_stdio_printf_options@@9@4_KA 100838a8     LIBCMT:default_local_stdio_options.obj
 0003:000018b0       ?_OptionsStorage@?1??__local_stdio_scanf_options@@9@4_KA 100838b0     LIBCMT:default_local_stdio_options.obj
 0003:000018b8       ___scrt_current_native_startup_state 100838b8     LIBCMT:utility.obj
 0003:000018bc       ___scrt_native_startup_lock 100838bc     LIBCMT:utility.obj
 0003:000018dc       ___scrt_debugger_hook_flag 100838dc     LIBCMT:utility_desktop.obj
 0003:000018e0       ___castguard_check_failure_os_handled_fptr 100838e0     LIBCMT:guard_support.obj
 0003:000018e4       ?__WinRTOutOfMemoryExceptionCallback@@3P6GPAXXZA 100838e4     libvcruntime:ehhelpers.obj
 0003:000018e8       ?pArgList@UnDecorator@@0PAVReplicator@@A 100838e8     libvcruntime:undname.obj
 0003:000018ec       ?pZNameList@UnDecorator@@0PAVReplicator@@A 100838ec     libvcruntime:undname.obj
 0003:000018f0       ?pTemplateArgList@UnDecorator@@0PAVReplicator@@A 100838f0     libvcruntime:undname.obj
 0003:000018f4       ?gName@UnDecorator@@0PBDB  100838f4     libvcruntime:undname.obj
 0003:000018f8       ?name@UnDecorator@@0PBDB   100838f8     libvcruntime:undname.obj
 0003:000018fc       ?disableFlags@UnDecorator@@0KA 100838fc     libvcruntime:undname.obj
 0003:00001900       ?fExplicitTemplateParams@UnDecorator@@0_NA 10083900     libvcruntime:undname.obj
 0003:00001901       ?fGetTemplateArgumentList@UnDecorator@@0_NA 10083901     libvcruntime:undname.obj
 0003:00001904       ?m_pGetParameter@UnDecorator@@0P6APADJ@ZA 10083904     libvcruntime:undname.obj
 0003:00001908       ?m_CHPENameOffset@UnDecorator@@0KA 10083908     libvcruntime:undname.obj
 0003:0000190c       ?m_recursionLevel@UnDecorator@@0KA 1008390c     libvcruntime:undname.obj
 0003:00001988       ___pPurecall               10083988     libvcruntime:purevirt_data.obj
 0003:0000198c       ?_timezone@@3V?$dual_state_global@J@__crt_state_management@@A 1008398c     libucrt:timeset.obj
 0003:00001990       ?_daylight@@3V?$dual_state_global@H@__crt_state_management@@A 10083990     libucrt:timeset.obj
 0003:00001994       ?_dstbias@@3V?$dual_state_global@J@__crt_state_management@@A 10083994     libucrt:timeset.obj
 0003:00001a64       ?c_exit_complete@?1???R<lambda_6e4b09c48022b2350581041d5f6b0c4c>@@QBE@XZ@4_NA 10083a64     libucrt:exit.obj
 0003:00001a68       __nstream                  10083a68     libucrt:_file.obj
 0003:00001a6c       ___piob                    10083a6c     libucrt:_file.obj
 0003:00001a70       __cflush                   10083a70     libucrt:_file.obj
 0003:00001d8c       __environ_table            10083d8c     libucrt:environment_initialization.obj
 0003:00001d90       __wenviron_table           10083d90     libucrt:environment_initialization.obj
 0003:00001d94       ___dcrt_initial_wide_environment 10083d94     libucrt:environment_initialization.obj
 0003:00001d98       ___dcrt_initial_narrow_environment 10083d98     libucrt:environment_initialization.obj
 0003:00001d9c       ___acrt_atexit_table       10083d9c     libucrt:onexit.obj
 0003:00001da8       ___acrt_at_quick_exit_table 10083da8     libucrt:onexit.obj
 0003:00001e9c       ___acrt_locale_changed_data 10083e9c     libucrt:wsetlocale.obj
 0003:00001ea0       ___acrt_current_locale_data 10083ea0     libucrt:nlsdata.obj
 0003:00001ea8       ___pioinfo                 10083ea8     libucrt:ioinit.obj
 0003:000020a8       __nhandle                  100840a8     libucrt:ioinit.obj
 0003:0000221c       ___acrt_stdout_buffer      1008421c     libucrt:_sftbuf.obj
 0003:00002220       ___acrt_stderr_buffer      10084220     libucrt:_sftbuf.obj
 0003:00002228       __mbctype                  10084228     libucrt:mbctype.obj
 0003:0000222c       __mbcasemap                1008422c     libucrt:mbctype.obj
 0003:00002230       ___acrt_current_multibyte_data 10084230     libucrt:mbctype.obj
 0003:0000223c       __pgmptr                   1008423c     libucrt:argv_data.obj
 0003:00002240       __wpgmptr                  10084240     libucrt:argv_data.obj
 0003:00002244       ___argc                    10084244     libucrt:argv_data.obj
 0003:00002248       ___argv                    10084248     libucrt:argv_data.obj
 0003:0000224c       ___wargv                   1008424c     libucrt:argv_data.obj
 0003:00002250       __acmdln                   10084250     libucrt:argv_data.obj
 0003:00002254       __wcmdln                   10084254     libucrt:argv_data.obj
 0003:00002258       ___acrt_heap               10084258     libucrt:heap_handle.obj
 0003:0000228c       ___fastflag                1008428c     libucrt:fp_flags.obj
 0003:000028c0       ___acrt_lconv_static_null  100848c0     libucrt:localeconv.obj
 0003:000028c4       ___acrt_lconv_static_W_null 100848c4     libucrt:localeconv.obj
 0003:000028c8       __commode                  100848c8     libucrt:ncommode.obj
 0003:000028d8       __umaskval                 100848d8     libucrt:umask.obj
 0003:000028dc       __fmode                    100848dc     libucrt:txtmode.obj
 0003:000028e0       _APP_DATA_PATH             100848e0     <common>
 0003:000028e4       _reset_em                  100848e4     <common>
 0003:00002900       _loc                       10084900     <common>
 0003:0000b954       _thread_com                1008d954     <common>
 0003:0000b960       _top                       1008d960     <common>
 0003:0000efe0       _tx                        10090fe0     <common>
 0003:0000f380       _rx                        10091380     <common>
 0003:0000fcc0       _uni                       10091cc0     <common>
 0003:00040014       _gen                       100c2014     <common>
 0003:00040018       _rring                     100c2018     <common>
 0003:0004001c       _lring                     100c201c     <common>
 0003:00040020       _poll_fired                100c2020     <common>
 0003:00040024       _keyer_started             100c2024     <common>
 0003:00040028       _clock_fired               100c2028     <common>
 0003:0004002c       _kl                        100c202c     <common>
 0003:00040030       _ks                        100c2030     <common>
 0003:00040040       _diversity                 100c2040     <common>
 0003:00040070       ?_OptionsStorage@?1??__local_stdio_printf_options@@9@9 100c2070     <common>
 0003:00040078       ___scrt_ucrt_dll_is_in_use 100c2078     <common>
 0003:0004007c       ___dyn_tls_init_callback   100c207c     <common>
 0003:00040080       ___use_sse2_mathfcns       100c2080     <common>
 0003:00040084       __pmatherr                 100c2084     <common>

 entry point at        0001:000182ea

 Static symbols

 0000:fff37000       .debug$S                   10000000     DttSP.exp
 0000:fff3d000       _volmd                     10000000     ringb.obj
 0002:fff92000       __guard_fids_?dllmain_dispatch@@YAHQAUHINSTANCE__@@KQAX@Z 10000000     LIBCMT:dll_dllmain.obj
 0002:fff92000       __guard_fids__             10000000     LIBCMT:guard_support.obj
 0002:fff92000       __guard_fids__             10000000     LIBCMT:guard_support.obj
 0002:fff92000       __guard_fids___guard_icall_checks_enforced 10000000     LIBCMT:guard_support.obj
 0002:fff92000       __guard_fids__             10000000     LIBCMT:std_type_info_static.obj
 0002:fff92000       __guard_fids____scrt_set_unhandled_exception_filter 10000000     LIBCMT:utility_desktop.obj
 0002:fff92000       __guard_fids__             10000000     libvcruntime:ehhelpers.obj
 0002:fff92000       __guard_fids__             10000000     libvcruntime:frame.obj
 0002:fff92000       __guard_fids__             10000000     libvcruntime:frame.obj
 0002:fff92000       __guard_fids__             10000000     libvcruntime:frame.obj
 0002:fff92000       __guard_fids__             10000000     libvcruntime:frame.obj
 0002:fff92000       __guard_fids__             10000000     libvcruntime:frame.obj
 0002:fff92000       __guard_fids__             10000000     libvcruntime:jbcxrval.obj
 0002:fff92000       __guard_fids____except_validate_context_record 10000000     libvcruntime:jbcxrval.obj
 0002:fff92000       __guard_fids____except_validate_jump_buffer 10000000     libvcruntime:jbcxrval.obj
 0002:fff92000       __guard_fids____except_validate_jump_buffer_common 10000000     libvcruntime:jbcxrval.obj
 0002:fff92000       __guard_fids___guard_icall_checks_enforced 10000000     libvcruntime:jbcxrval.obj
 0002:fff92000       __guard_fids____vcrt_initialize_ptd 10000000     libvcruntime:per_thread_data.obj
 0002:fff92000       __guard_fids_??B_Closure_wrapper_94051dd7_1@@QBEP6APAXI@ZXZ 10000000     libvcruntime:std_type_info.obj
 0002:fff92000       __guard_fids_??B_Closure_wrapper_94051dd7_2@@QBEP6AXQAX@ZXZ 10000000     libvcruntime:std_type_info.obj
 0002:fff92000       __guard_fids____std_type_info_name 10000000     libvcruntime:std_type_info.obj
 0002:fff92000       __guard_fids__             10000000     libvcruntime:undname.obj
 0002:fff92000       __guard_fids__             10000000     libvcruntime:undname.obj
 0002:fff92000       __guard_fids__             10000000     libvcruntime:undname.obj
 0002:fff92000       __guard_fids__             10000000     libvcruntime:undname.obj
 0002:fff92000       __guard_fids__             10000000     libvcruntime:undname.obj
 0002:fff92000       __guard_fids__             10000000     libvcruntime:undname.obj
 0002:fff92000       __guard_fids_?get_unexpected_or_default@@YAP6AXXZQBU__vcrt_ptd@@@Z 10000000     libvcruntime:unexpected.obj
 0002:fff92000       __guard_fids___get_unexpected 10000000     libvcruntime:unexpected.obj
 0002:fff92000       __guard_fids__set_unexpected 10000000     libvcruntime:unexpected.obj
 0002:fff92000       __guard_fids__             10000000     libucrt:environment_initialization.obj
 0002:fff92000       __guard_fids__             10000000     libucrt:console_output_initializer.obj
 0000:fff3d000       _volmd                     10000000     libucrt:cfout.obj
 0000:fff3d000       _volmd                     10000000     libucrt:cvt.obj
 0000:fff3d000       _volmd                     10000000     libucrt:xtoa.obj
 0000:fff3d000       _volmd                     10000000     libucrt:xtoa.obj
 0000:fff3d000       _volmd                     10000000     libucrt:free.obj
 0000:fff3d000       _volmd                     10000000     libucrt:new_mode.obj
 0000:fff3d000       _volmd                     10000000     libucrt:new_mode.obj
 0000:fff3d000       _volmd                     10000000     libucrt:new_mode.obj
 0002:fff92000       __guard_fids__             10000000     libucrt:fmode_initializer.obj
 0002:fff92000       __guard_fids__             10000000     libucrt:locale_initializer.obj
 0002:fff92000       __guard_fids__             10000000     libucrt:multibyte_initializer.obj
 0002:fff92000       __guard_fids__             10000000     libucrt:sse2_initializer.obj
 0002:fff92000       __guard_fids__             10000000     libucrt:stdio_initializer.obj
 0002:fff92000       __guard_fids__             10000000     libucrt:timeset_initializer.obj
 0002:fff92000       __guard_fids__             10000000     libucrt:initialization.obj
 0002:fff92000       __guard_fids____acrt_initialize_ptd 10000000     libucrt:per_thread_data.obj
 0000:fff3d000       _volmd                     10000000     libucrt:win_policies.obj
 0000:fff3d000       _volmd                     10000000     libucrt:win_policies.obj
 0000:fff3d000       _volmd                     10000000     libucrt:win_policies.obj
 0000:fff3d000       _volmd                     10000000     libucrt:win_policies.obj
 0000:fff3d000       _volmd                     10000000     libucrt:win_policies.obj
 0000:fff3d000       _volmd                     10000000     libucrt:win_policies.obj
 0000:fff3d000       _volmd                     10000000     libucrt:win_policies.obj
 0000:fff3d000       _volmd                     10000000     libucrt:win_policies.obj
 0002:fff92000       __guard_fids_??$?RV<lambda_6b4b7855443974f2b4b77000ea21c99c>@@AAV<lambda_8f7d3b162ab39427f4fa9995c67a7986>@@V<lambda_cc9a5ba8a5d8428b9634eab82665e5dc>@@@?$__crt_seh_guarded_call@H@@QAEH$$QAV<lambda_6b4b7855443974f2b4b77000ea21c99c>@@AAV<lambda_8f7d3b162ab39427f4fa9995c67a7986>@@$$QAV<lambda_cc9a5ba8a5d8428b9634eab82665e5dc>@@@Z 10000000     libucrt:winapi_thunks.obj
 0002:fff92000       __guard_fids_??B<lambda_29d3c280b90b41c2ae070ffca879996a>@@QBEP6GHPA_W@ZXZ 10000000     libucrt:winapi_thunks.obj
 0002:fff92000       __guard_fids_??R<lambda_8f7d3b162ab39427f4fa9995c67a7986>@@QBEHXZ 10000000     libucrt:winapi_thunks.obj
 0002:fff92000       __guard_fids_?enum_system_locales_ex_nolock@@YAHQ6GHPA_WKJ@Z@Z 10000000     libucrt:winapi_thunks.obj
 0000:fff3d000       _volmd                     10000000     libucrt:winapi_thunks.obj
 0000:fff3d000       _volmd                     10000000     libucrt:winapi_thunks.obj
 0000:fff3d000       _volmd                     10000000     libucrt:winapi_thunks.obj
 0000:fff3d000       _volmd                     10000000     libucrt:winapi_thunks.obj
 0000:fff3d000       _volmd                     10000000     libucrt:winapi_thunks.obj
 0000:fff3d000       _volmd                     10000000     libucrt:winapi_thunks.obj
 0002:fff92000       __guard_fids__GetLocaleNameFromLangCountry 10000000     libucrt:get_qualified_locale.obj
 0002:fff92000       __guard_fids__GetLocaleNameFromLanguage 10000000     libucrt:get_qualified_locale.obj
 0002:fff92000       __guard_fids__GetLcidFromCountry 10000000     libucrt:getqloc_downlevel.obj
 0002:fff92000       __guard_fids__GetLcidFromLangCountry 10000000     libucrt:getqloc_downlevel.obj
 0002:fff92000       __guard_fids__GetLcidFromLanguage 10000000     libucrt:getqloc_downlevel.obj
 0000:fff3d000       _volmd                     10000000     libucrt:locale_refcounting.obj
 0000:fff3d000       _volmd                     10000000     libucrt:locale_refcounting.obj
 0000:fff3d000       _volmd                     10000000     libucrt:locale_refcounting.obj
 0002:fff92000       __guard_fids__             10000000     libucrt:wsetlocale.obj
 0000:fff3d000       _volmd                     10000000     libucrt:setmode.obj
 0000:fff3d000       _volmd                     10000000     libucrt:setmode.obj
 0000:fff3d000       _volmd                     10000000     libucrt:setmode.obj
 0002:fff92000       __guard_fids__signal       10000000     libucrt:signal.obj
 0002:fff92000       __guard_fids_?get_terminate_or_default@@YAP6AXXZQBU__acrt_ptd@@@Z 10000000     libucrt:terminate.obj
 0002:fff92000       __guard_fids___get_terminate 10000000     libucrt:terminate.obj
 0002:fff92000       __guard_fids__set_terminate 10000000     libucrt:terminate.obj
 0002:fff92000       __guard_fids_??$expand_argument_wildcards@D@@YAHQAD0AAV?$argument_list@D@?A0x5f5c8891@@@Z 10000000     libucrt:argv_wildcards.obj
 0002:fff92000       __guard_fids_??$expand_argument_wildcards@_W@@YAHQA_W0AAV?$argument_list@_W@?A0x5f5c8891@@@Z 10000000     libucrt:argv_wildcards.obj
 0002:fff92000       __guard_fids_??B<lambda_838c7f62c73c983481e27c09e84b0b5d>@@QBEP6AHPBX0@ZXZ 10000000     libucrt:argv_wildcards.obj
 0002:fff92000       __guard_fids_??B<lambda_d388dc2bcbe6079ffc891eec49d9b3b2>@@QBEP6AHPBX0@ZXZ 10000000     libucrt:argv_wildcards.obj
 0002:fff92000       __guard_fids__             10000000     libucrt:exit.obj
 0000:fff3d000       _volmd                     10000000     libucrt:exit.obj
 0000:fff3d000       _volmd                     10000000     libucrt:exit.obj
 0000:fff3d000       _volmd                     10000000     libucrt:exit.obj
 0000:fff3d000       _volmd                     10000000     libucrt:exit.obj
 0002:fff92000       __guard_fids__             10000000     libucrt:onexit.obj
 0000:fff3d000       _volmd                     10000000     libucrt:_filbuf.obj
 0000:fff3d000       _volmd                     10000000     libucrt:_filbuf.obj
 0000:fff3d000       _volmd                     10000000     libucrt:_filbuf.obj
 0000:fff3d000       _volmd                     10000000     libucrt:_filbuf.obj
 0000:fff3d000       _volmd                     10000000     libucrt:_filbuf.obj
 0000:fff3d000       _volmd                     10000000     libucrt:_filbuf.obj
 0000:fff3d000       _volmd                     10000000     libucrt:_filbuf.obj
 0000:fff3d000       _volmd                     10000000     libucrt:_filbuf.obj
 0000:fff3d000       _volmd                     10000000     libucrt:_filbuf.obj
 0000:fff3d000       _volmd                     10000000     libucrt:_filbuf.obj
 0000:fff3d000       _volmd                     10000000     libucrt:_filbuf.obj
 0000:fff3d000       _volmd                     10000000     libucrt:_flsbuf.obj
 0000:fff3d000       _volmd                     10000000     libucrt:_flsbuf.obj
 0000:fff3d000       _volmd                     10000000     libucrt:_flsbuf.obj
 0000:fff3d000       _volmd                     10000000     libucrt:_flsbuf.obj
 0000:fff3d000       _volmd                     10000000     libucrt:_flsbuf.obj
 0000:fff3d000       _volmd                     10000000     libucrt:_flsbuf.obj
 0000:fff3d000       _volmd                     10000000     libucrt:_flsbuf.obj
 0000:fff3d000       _volmd                     10000000     libucrt:_flsbuf.obj
 0000:fff3d000       _volmd                     10000000     libucrt:_flsbuf.obj
 0000:fff3d000       _volmd                     10000000     libucrt:_flsbuf.obj
 0000:fff3d000       _volmd                     10000000     libucrt:_flsbuf.obj
 0000:fff3d000       _volmd                     10000000     libucrt:_flsbuf.obj
 0000:fff3d000       _volmd                     10000000     libucrt:_flsbuf.obj
 0000:fff3d000       _volmd                     10000000     libucrt:_freebuf.obj
 0000:fff3d000       _volmd                     10000000     libucrt:_freebuf.obj
 0000:fff3d000       _volmd                     10000000     libucrt:_freebuf.obj
 0000:fff3d000       _volmd                     10000000     libucrt:_freebuf.obj
 0000:fff3d000       _volmd                     10000000     libucrt:_freebuf.obj
 0000:fff3d000       _volmd                     10000000     libucrt:_freebuf.obj
 0000:fff3d000       _volmd                     10000000     libucrt:_freebuf.obj
 0000:fff3d000       _volmd                     10000000     libucrt:_sftbuf.obj
 0000:fff3d000       _volmd                     10000000     libucrt:_sftbuf.obj
 0000:fff3d000       _volmd                     10000000     libucrt:_sftbuf.obj
 0000:fff3d000       _volmd                     10000000     libucrt:_sftbuf.obj
 0000:fff3d000       _volmd                     10000000     libucrt:_sftbuf.obj
 0000:fff3d000       _volmd                     10000000     libucrt:_sftbuf.obj
 0000:fff3d000       _volmd                     10000000     libucrt:_sftbuf.obj
 0000:fff3d000       _volmd                     10000000     libucrt:_sftbuf.obj
 0000:fff3d000       _volmd                     10000000     libucrt:closeall.obj
 0000:fff3d000       _volmd                     10000000     libucrt:closeall.obj
 0000:fff3d000       _volmd                     10000000     libucrt:closeall.obj
 0000:fff3d000       _volmd                     10000000     libucrt:closeall.obj
 0000:fff3d000       _volmd                     10000000     libucrt:closeall.obj
 0000:fff3d000       _volmd                     10000000     libucrt:fclose.obj
 0000:fff3d000       _volmd                     10000000     libucrt:fclose.obj
 0000:fff3d000       _volmd                     10000000     libucrt:fclose.obj
 0000:fff3d000       _volmd                     10000000     libucrt:fclose.obj
 0000:fff3d000       _volmd                     10000000     libucrt:fclose.obj
 0000:fff3d000       _volmd                     10000000     libucrt:fclose.obj
 0000:fff3d000       _volmd                     10000000     libucrt:fclose.obj
 0000:fff3d000       _volmd                     10000000     libucrt:fflush.obj
 0000:fff3d000       _volmd                     10000000     libucrt:fflush.obj
 0000:fff3d000       _volmd                     10000000     libucrt:fflush.obj
 0000:fff3d000       _volmd                     10000000     libucrt:fflush.obj
 0000:fff3d000       _volmd                     10000000     libucrt:fflush.obj
 0000:fff3d000       _volmd                     10000000     libucrt:fflush.obj
 0000:fff3d000       _volmd                     10000000     libucrt:fflush.obj
 0000:fff3d000       _volmd                     10000000     libucrt:fflush.obj
 0000:fff3d000       _volmd                     10000000     libucrt:fflush.obj
 0000:fff3d000       _volmd                     10000000     libucrt:fflush.obj
 0000:fff3d000       _volmd                     10000000     libucrt:fflush.obj
 0000:fff3d000       _volmd                     10000000     libucrt:fileno.obj
 0000:fff3d000       _volmd                     10000000     libucrt:fileno.obj
 0000:fff3d000       _volmd                     10000000     libucrt:fileno.obj
 0000:fff3d000       _volmd                     10000000     libucrt:fileno.obj
 0000:fff3d000       _volmd                     10000000     libucrt:fputc.obj
 0000:fff3d000       _volmd                     10000000     libucrt:fputc.obj
 0000:fff3d000       _volmd                     10000000     libucrt:fputc.obj
 0000:fff3d000       _volmd                     10000000     libucrt:fputc.obj
 0000:fff3d000       _volmd                     10000000     libucrt:fputc.obj
 0000:fff3d000       _volmd                     10000000     libucrt:fputwc.obj
 0000:fff3d000       _volmd                     10000000     libucrt:fputwc.obj
 0000:fff3d000       _volmd                     10000000     libucrt:fputwc.obj
 0000:fff3d000       _volmd                     10000000     libucrt:fputwc.obj
 0000:fff3d000       _volmd                     10000000     libucrt:fputwc.obj
 0000:fff3d000       _volmd                     10000000     libucrt:fread.obj
 0000:fff3d000       _volmd                     10000000     libucrt:fread.obj
 0000:fff3d000       _volmd                     10000000     libucrt:fread.obj
 0000:fff3d000       _volmd                     10000000     libucrt:fread.obj
 0000:fff3d000       _volmd                     10000000     libucrt:fread.obj
 0000:fff3d000       _volmd                     10000000     libucrt:fread.obj
 0000:fff3d000       _volmd                     10000000     libucrt:freopen.obj
 0000:fff3d000       _volmd                     10000000     libucrt:freopen.obj
 0000:fff3d000       _volmd                     10000000     libucrt:freopen.obj
 0000:fff3d000       _volmd                     10000000     libucrt:freopen.obj
 0000:fff3d000       _volmd                     10000000     libucrt:freopen.obj
 0000:fff3d000       _volmd                     10000000     libucrt:freopen.obj
 0000:fff3d000       _volmd                     10000000     libucrt:fwrite.obj
 0000:fff3d000       _volmd                     10000000     libucrt:fwrite.obj
 0000:fff3d000       _volmd                     10000000     libucrt:fwrite.obj
 0000:fff3d000       _volmd                     10000000     libucrt:fwrite.obj
 0000:fff3d000       _volmd                     10000000     libucrt:fwrite.obj
 0000:fff3d000       _volmd                     10000000     libucrt:fwrite.obj
 0000:fff3d000       _volmd                     10000000     libucrt:fwrite.obj
 0000:fff3d000       _volmd                     10000000     libucrt:output.obj
 0000:fff3d000       _volmd                     10000000     libucrt:output.obj
 0000:fff3d000       _volmd                     10000000     libucrt:output.obj
 0000:fff3d000       _volmd                     10000000     libucrt:output.obj
 0000:fff3d000       _volmd                     10000000     libucrt:output.obj
 0000:fff3d000       _volmd                     10000000     libucrt:output.obj
 0000:fff3d000       _volmd                     10000000     libucrt:output.obj
 0000:fff3d000       _volmd                     10000000     libucrt:output.obj
 0000:fff3d000       _volmd                     10000000     libucrt:output.obj
 0000:fff3d000       _volmd                     10000000     libucrt:output.obj
 0000:fff3d000       _volmd                     10000000     libucrt:output.obj
 0000:fff3d000       _volmd                     10000000     libucrt:output.obj
 0000:fff3d000       _volmd                     10000000     libucrt:output.obj
 0000:fff3d000       _volmd                     10000000     libucrt:output.obj
 0000:fff3d000       _volmd                     10000000     libucrt:output.obj
 0000:fff3d000       _volmd                     10000000     libucrt:output.obj
 0000:fff3d000       _volmd                     10000000     libucrt:output.obj
 0000:fff3d000       _volmd                     10000000     libucrt:output.obj
 0000:fff3d000       _volmd                     10000000     libucrt:output.obj
 0000:fff3d000       _volmd                     10000000     libucrt:output.obj
 0000:fff3d000       _volmd                     10000000     libucrt:output.obj
 0000:fff3d000       _volmd                     10000000     libucrt:stream.obj
 0000:fff3d000       _volmd                     10000000     libucrt:stream.obj
 0000:fff3d000       _volmd                     10000000     libucrt:stream.obj
 0000:fff3d000       _volmd                     10000000     libucrt:stream.obj
 0000:fff3d000       _volmd                     10000000     libucrt:stream.obj
 0000:fff3d000       _volmd                     10000000     libucrt:tzset.obj
 0000:fff3d000       _volmd                     10000000     libucrt:tzset.obj
 0000:fff3d000       _volmd                     10000000     libucrt:tzset.obj
 0002:fff92000       __guard_fids____libm_error_support 10000000     libucrt:libm_error.obj
 0000:fff37000       .debug$S                   10000000     kernel32:KERNEL32.dll
 0000:fff37000       .debug$S                   10000000     kernel32:KERNEL32.dll
 0000:fff37000       .debug$S                   10000000     kernel32:KERNEL32.dll
 0000:fff37000       .debug$S                   10000000     kernel32:KERNEL32.dll
 0000:fff37000       .debug$S                   10000000     kernel32:KERNEL32.dll
 0000:fff37000       .debug$S                   10000000     kernel32:KERNEL32.dll
 0000:fff37000       .debug$S                   10000000     kernel32:KERNEL32.dll
 0000:fff37000       .debug$S                   10000000     kernel32:KERNEL32.dll
 0000:fff37000       .debug$S                   10000000     kernel32:KERNEL32.dll
 0000:fff37000       .debug$S                   10000000     kernel32:KERNEL32.dll
 0000:fff37000       .debug$S                   10000000     kernel32:KERNEL32.dll
 0000:fff37000       .debug$S                   10000000     kernel32:KERNEL32.dll
 0000:fff37000       .debug$S                   10000000     kernel32:KERNEL32.dll
 0000:fff37000       .debug$S                   10000000     kernel32:KERNEL32.dll
 0000:fff37000       .debug$S                   10000000     kernel32:KERNEL32.dll
 0000:fff37000       .debug$S                   10000000     kernel32:KERNEL32.dll
 0000:fff37000       .debug$S                   10000000     kernel32:KERNEL32.dll
 0000:fff37000       .debug$S                   10000000     kernel32:KERNEL32.dll
 0000:fff37000       .debug$S                   10000000     kernel32:KERNEL32.dll
 0000:fff37000       .debug$S                   10000000     kernel32:KERNEL32.dll
 0000:fff37000       .debug$S                   10000000     kernel32:KERNEL32.dll
 0000:fff37000       .debug$S                   10000000     kernel32:KERNEL32.dll
 0000:fff37000       .debug$S                   10000000     kernel32:KERNEL32.dll
 0000:fff37000       .debug$S                   10000000     kernel32:KERNEL32.dll
 0000:fff37000       .debug$S                   10000000     kernel32:KERNEL32.dll
 0000:fff37000       .debug$S                   10000000     kernel32:KERNEL32.dll
 0000:fff37000       .debug$S                   10000000     kernel32:KERNEL32.dll
 0000:fff37000       .debug$S                   10000000     kernel32:KERNEL32.dll
 0000:fff37000       .debug$S                   10000000     kernel32:KERNEL32.dll
 0000:fff37000       .debug$S                   10000000     kernel32:KERNEL32.dll
 0000:fff37000       .debug$S                   10000000     kernel32:KERNEL32.dll
 0000:fff37000       .debug$S                   10000000     kernel32:KERNEL32.dll
 0000:fff37000       .debug$S                   10000000     kernel32:KERNEL32.dll
 0000:fff37000       .debug$S                   10000000     kernel32:KERNEL32.dll
 0000:fff37000       .debug$S                   10000000     kernel32:KERNEL32.dll
 0000:fff37000       .debug$S                   10000000     kernel32:KERNEL32.dll
 0000:fff37000       .debug$S                   10000000     kernel32:KERNEL32.dll
 0000:fff37000       .debug$S                   10000000     kernel32:KERNEL32.dll
 0000:fff37000       .debug$S                   10000000     kernel32:KERNEL32.dll
 0000:fff37000       .debug$S                   10000000     kernel32:KERNEL32.dll
 0000:fff37000       .debug$S                   10000000     kernel32:KERNEL32.dll
 0000:fff37000       .debug$S                   10000000     kernel32:KERNEL32.dll
 0000:fff37000       .debug$S                   10000000     kernel32:KERNEL32.dll
 0000:fff37000       .debug$S                   10000000     kernel32:KERNEL32.dll
 0000:fff37000       .debug$S                   10000000     kernel32:KERNEL32.dll
 0000:fff37000       .debug$S                   10000000     kernel32:KERNEL32.dll
 0000:fff37000       .debug$S                   10000000     kernel32:KERNEL32.dll
 0000:fff37000       .debug$S                   10000000     kernel32:KERNEL32.dll
 0000:fff37000       .debug$S                   10000000     kernel32:KERNEL32.dll
 0000:fff37000       .debug$S                   10000000     kernel32:KERNEL32.dll
 0000:fff37000       .debug$S                   10000000     kernel32:KERNEL32.dll
 0000:fff37000       .debug$S                   10000000     kernel32:KERNEL32.dll
 0000:fff37000       .debug$S                   10000000     kernel32:KERNEL32.dll
 0000:fff37000       .debug$S                   10000000     kernel32:KERNEL32.dll
 0000:fff37000       .debug$S                   10000000     kernel32:KERNEL32.dll
 0000:fff37000       .debug$S                   10000000     kernel32:KERNEL32.dll
 0000:fff37000       .debug$S                   10000000     kernel32:KERNEL32.dll
 0000:fff37000       .debug$S                   10000000     kernel32:KERNEL32.dll
 0000:fff37000       .debug$S                   10000000     kernel32:KERNEL32.dll
 0000:fff37000       .debug$S                   10000000     kernel32:KERNEL32.dll
 0000:fff37000       .debug$S                   10000000     kernel32:KERNEL32.dll
 0000:fff37000       .debug$S                   10000000     kernel32:KERNEL32.dll
 0000:fff37000       .debug$S                   10000000     kernel32:KERNEL32.dll
 0000:fff37000       .debug$S                   10000000     kernel32:KERNEL32.dll
 0000:fff37000       .debug$S                   10000000     kernel32:KERNEL32.dll
 0000:fff37000       .debug$S                   10000000     kernel32:KERNEL32.dll
 0000:fff37000       .debug$S                   10000000     kernel32:KERNEL32.dll
 0000:fff37000       .debug$S                   10000000     kernel32:KERNEL32.dll
 0000:fff37000       .debug$S                   10000000     kernel32:KERNEL32.dll
 0000:fff37000       .debug$S                   10000000     kernel32:KERNEL32.dll
 0000:fff37000       .debug$S                   10000000     kernel32:KERNEL32.dll
 0000:fff37000       .debug$S                   10000000     kernel32:KERNEL32.dll
 0000:fff37000       .debug$S                   10000000     kernel32:KERNEL32.dll
 0000:fff37000       .debug$S                   10000000     kernel32:KERNEL32.dll
 0000:fff37000       .debug$S                   10000000     kernel32:KERNEL32.dll
 0000:fff37000       .debug$S                   10000000     kernel32:KERNEL32.dll
 0000:fff37000       .debug$S                   10000000     kernel32:KERNEL32.dll
 0000:fff37000       .debug$S                   10000000     kernel32:KERNEL32.dll
 0000:fff37000       .debug$S                   10000000     kernel32:KERNEL32.dll
 0000:fff37000       .debug$S                   10000000     kernel32:KERNEL32.dll
 0000:fff37000       .debug$S                   10000000     kernel32:KERNEL32.dll
 0000:fff37000       .debug$S                   10000000     kernel32:KERNEL32.dll
 0000:fff37000       .debug$S                   10000000     kernel32:KERNEL32.dll
 0000:fff37000       .debug$S                   10000000     kernel32:KERNEL32.dll
 0000:fff37000       .debug$S                   10000000     kernel32:KERNEL32.dll
 0000:fff37000       .debug$S                   10000000     kernel32:KERNEL32.dll
 0000:fff37000       .debug$S                   10000000     kernel32:KERNEL32.dll
 0000:fff37000       .debug$S                   10000000     kernel32:KERNEL32.dll
 0000:fff37000       .debug$S                   10000000     kernel32:KERNEL32.dll
 0000:fff37000       .debug$S                   10000000     kernel32:KERNEL32.dll
 0000:fff37000       .debug$S                   10000000     kernel32:KERNEL32.dll
 0000:fff37000       .debug$S                   10000000     kernel32:KERNEL32.dll
 0000:fff37000       .debug$S                   10000000     winMM:WINMM.dll
 0000:fff37000       .debug$S                   10000000     winMM:WINMM.dll
 0000:fff37000       .debug$S                   10000000     libfftw3f-3:libfftw3f-3.dll
 0000:fff37000       .debug$S                   10000000     libfftw3f-3:libfftw3f-3.dll
 0000:fff37000       .debug$S                   10000000     libfftw3f-3:libfftw3f-3.dll
 0000:fff37000       .debug$S                   10000000     libfftw3f-3:libfftw3f-3.dll
 0000:fff37000       .debug$S                   10000000     pthreadVC:pthreadVC.dll
 0000:fff37000       .debug$S                   10000000     pthreadVC:pthreadVC.dll
 0000:fff37000       .debug$S                   10000000     pthreadVC:pthreadVC.dll
 0000:fff37000       .debug$S                   10000000     pthreadVC:pthreadVC.dll
 0002:fff92004       __guard_fids__             10000004     libucrt:stdio_initializer.obj
 0000:fff3d048       _volmd                     10000048     ringb.obj
 0000:fff3d0a0       _volmd                     100000a0     ringb.obj
 0000:fff3d0fc       _volmd                     100000fc     ringb.obj
 0000:fff3d158       _volmd                     10000158     ringb.obj
 0000:fff3d1b4       _volmd                     100001b4     ringb.obj
 0000:fff3d210       _volmd                     10000210     ringb.obj
 0000:fff3d26c       _volmd                     1000026c     ringb.obj
 0000:fff3d2c8       _volmd                     100002c8     ringb.obj
 0000:fff3d324       _volmd                     10000324     ringb.obj
 0000:fff3d380       _volmd                     10000380     ringb.obj
 0001:00002218       $LN119                     10003218     dcblock.obj
 0001:000030ac       $LN12                      100040ac     filt2p2z.obj
 0001:00008138       $LN76                      10009138     keyer.obj
 0001:0000b4e8       $LN132                     1000c4e8     sdr.obj
 0001:0000b4f8       $LN131                     1000c4f8     sdr.obj
 0001:0000b504       $LN134                     1000c504     sdr.obj
 0001:0000b510       $LN133                     1000c510     sdr.obj
 0001:0000b520       _CXBpeak                   1000c520 f   sdr.obj
 0001:0000b620       _do_rx_meter               1000c620 f   sdr.obj
 0001:0000b990       _do_rx_post                1000c990 f   sdr.obj
 0001:0000bdac       $LN138                     1000cdac     sdr.obj
 0001:0000bdb4       $LN137                     1000cdb4     sdr.obj
 0001:0000bdc0       _do_rx_pre                 1000cdc0 f   sdr.obj
 0001:0000c180       _do_rx_spectrum            1000d180 f   sdr.obj
 0001:0000c270       _do_tx_FM                  1000d270 f   sdr.obj
 0001:0000c6b0       _do_tx_meter               1000d6b0 f   sdr.obj
 0001:0000ce18       $LN76                      1000de18     sdr.obj
 0001:0000ce40       _do_tx_post                1000de40 f   sdr.obj
 0001:0000d080       _do_tx_pre                 1000e080 f   sdr.obj
 0001:0000db70       _do_tx_squelch             1000eb70 f   sdr.obj
 0001:0000dd60       _setup_all                 1000ed60 f   sdr.obj
 0001:0000df70       _setup_rx                  1000ef70 f   sdr.obj
 0001:0000e520       _setup_tx                  1000f520 f   sdr.obj
 0001:00011424       $LN10                      10012424     update.obj
 0001:00012550       $LN11                      10013550     update.obj
 0001:000151b4       $LN11                      100161b4     update.obj
 0001:00015310       $LN21                      10016310     update.obj
 0001:00015e38       $LN112                     10016e38     window.obj
 0001:000165d4       $LN33                      100175d4     winmain.obj
 0001:00016cb0       _reset_system_audio        10017cb0 f   winmain.obj
 0001:00016e10       _run_swch                  10017e10 f   winmain.obj
 0001:00017110       _setup_local_audio         10018110 f   winmain.obj
 0001:00017840       $$000000                   10018840     LIBCMT:lldiv.obj
 0001:00017861       L1                         10018861     LIBCMT:lldiv.obj
 0001:0001787d       L2                         1001887d     LIBCMT:lldiv.obj
 0001:00017899       L3                         10018899     LIBCMT:lldiv.obj
 0001:000178a7       L5                         100188a7     LIBCMT:lldiv.obj
 0001:000178d5       L6                         100188d5     LIBCMT:lldiv.obj
 0001:000178d6       L7                         100188d6     LIBCMT:lldiv.obj
 0001:000178da       L4                         100188da     LIBCMT:lldiv.obj
 0001:000178e4       L8                         100188e4     LIBCMT:lldiv.obj
 0001:000178f0       $$000000                   100188f0     LIBCMT:ftol2.obj
 0001:00017900       $$000000                   10018900     LIBCMT:ftol2.obj
 0001:00017910       $$000000                   10018910     LIBCMT:ftol2.obj
 0001:00017921       L3B                        10018921     LIBCMT:ftol2.obj
 0001:00017964       L3F                        10018964     LIBCMT:ftol2.obj
 0001:0001796c       L40                        1001896c     LIBCMT:ftol2.obj
 0001:0001797f       L41                        1001897f     LIBCMT:ftol2.obj
 0001:00017990       $$000000                   10018990     LIBCMT:ftol2.obj
 0001:000179ab       L8F                        100189ab     LIBCMT:ftol2.obj
 0001:000179bc       L90                        100189bc     LIBCMT:ftol2.obj
 0001:000179cb       L91                        100189cb     LIBCMT:ftol2.obj
 0001:000179d1       L92                        100189d1     LIBCMT:ftol2.obj
 0001:000179d7       L93                        100189d7     LIBCMT:ftol2.obj
 0001:00017a16       L96                        10018a16     LIBCMT:ftol2.obj
 0001:00017a1d       L97                        10018a1d     LIBCMT:ftol2.obj
 0001:00017a25       L99                        10018a25     LIBCMT:ftol2.obj
 0001:00017a40       $$000000                   10018a40     LIBCMT:ftol2.obj
 0001:00017a5e       L51                        10018a5e     LIBCMT:ftol2.obj
 0001:00017aa3       L52                        10018aa3     LIBCMT:ftol2.obj
 0001:00017ab7       L53                        10018ab7     LIBCMT:ftol2.obj
 0001:00017ab9       L55                        10018ab9     LIBCMT:ftol2.obj
 0001:00017ac3       L56                        10018ac3     LIBCMT:ftol2.obj
 0001:00017adc       L57                        10018adc     LIBCMT:ftol2.obj
 0001:00017af0       $$000000                   10018af0     LIBCMT:ftol2.obj
 0001:00017b0b       LA5                        10018b0b     LIBCMT:ftol2.obj
 0001:00017b20       LA6                        10018b20     LIBCMT:ftol2.obj
 0001:00017b2f       LA7                        10018b2f     LIBCMT:ftol2.obj
 0001:00017b3c       LA9                        10018b3c     LIBCMT:ftol2.obj
 0001:00017b83       LAA                        10018b83     LIBCMT:ftol2.obj
 0001:00017b8a       LAC                        10018b8a     LIBCMT:ftol2.obj
 0001:00017b91       LAD                        10018b91     LIBCMT:ftol2.obj
 0001:00017b9b       LAF                        10018b9b     LIBCMT:ftol2.obj
 0001:00017bb0       $$000000                   10018bb0     LIBCMT:chkstk.obj
 0001:00017bc4       cs10                       10018bc4     LIBCMT:chkstk.obj
 0001:00017bd2       cs20                       10018bd2     LIBCMT:chkstk.obj
 0001:00017be0       $$000000                   10018be0     LIBCMT:ftol3.obj
 0001:00017bf0       _ftoui3_default            10018bf0     LIBCMT:ftol3.obj
 0001:00017bff       _ftoui3_cvt                10018bff     LIBCMT:ftol3.obj
 0001:00017c04       _ftoui3_notsafe            10018c04     LIBCMT:ftol3.obj
 0001:00017c13       _ftoui3_neg                10018c13     LIBCMT:ftol3.obj
 0001:00017c1a       _ftoui3_NaN                10018c1a     LIBCMT:ftol3.obj
 0001:00017c30       $$000000                   10018c30     LIBCMT:ftol3.obj
 0001:00017c53       _ftoul3_default            10018c53     LIBCMT:ftol3.obj
 0001:00017c62       _ftoul3_cvt                10018c62     LIBCMT:ftol3.obj
 0001:00017c69       _ftoul3_notsafe            10018c69     LIBCMT:ftol3.obj
 0001:00017c89       _ftoul3_bigshift           10018c89     LIBCMT:ftol3.obj
 0001:00017c8e       _ftoul3_neg                10018c8e     LIBCMT:ftol3.obj
 0001:00017c95       _ftoul3_NaN                10018c95     LIBCMT:ftol3.obj
 0001:00017cb0       $$000000                   10018cb0     LIBCMT:ftol3.obj
 0001:00017cd3       _ftol3_default             10018cd3     LIBCMT:ftol3.obj
 0001:00017ce7       _ftol3_notsafe             10018ce7     LIBCMT:ftol3.obj
 0001:00017d07       _ftol3_mincheck            10018d07     LIBCMT:ftol3.obj
 0001:00017d0d       _ftol3_NaN                 10018d0d     LIBCMT:ftol3.obj
 0001:00017d15       _ftol3_retmin              10018d15     LIBCMT:ftol3.obj
 0001:00017d20       $$000000                   10018d20     LIBCMT:ftol3.obj
 0001:00017d30       _dtoui3_default            10018d30     LIBCMT:ftol3.obj
 0001:00017d59       _dtoui3_notsafe            10018d59     LIBCMT:ftol3.obj
 0001:00017d70       _dtoui3_exact              10018d70     LIBCMT:ftol3.obj
 0001:00017d79       _dtoui3_neg                10018d79     LIBCMT:ftol3.obj
 0001:00017d88       _dtoui3_NaN                10018d88     LIBCMT:ftol3.obj
 0001:00017da0       $$000000                   10018da0     LIBCMT:ftol3.obj
 0001:00017dbe       _dtoul3_default            10018dbe     LIBCMT:ftol3.obj
 0001:00017de9       _dtoul3_notsafe            10018de9     LIBCMT:ftol3.obj
 0001:00017e12       _dtoul3_exact              10018e12     LIBCMT:ftol3.obj
 0001:00017e19       _dtoul3_large              10018e19     LIBCMT:ftol3.obj
 0001:00017e24       _dtoul3_neg                10018e24     LIBCMT:ftol3.obj
 0001:00017e35       _dtoul3_NaN                10018e35     LIBCMT:ftol3.obj
 0001:00017e50       $$000000                   10018e50     LIBCMT:ftol3.obj
 0001:00017e6e       _dtol3_default             10018e6e     LIBCMT:ftol3.obj
 0001:00017e98       _dtol3_getbits             10018e98     LIBCMT:ftol3.obj
 0001:00017ec1       _dtol3_trunc               10018ec1     LIBCMT:ftol3.obj
 0001:00017ec8       _dtol3_lshift              10018ec8     LIBCMT:ftol3.obj
 0001:00017ece       _dtol3_notsafe             10018ece     LIBCMT:ftol3.obj
 0001:00017ee7       _dtol3_large               10018ee7     LIBCMT:ftol3.obj
 0001:00017eef       _dtol3_NaN                 10018eef     LIBCMT:ftol3.obj
 0001:00017ef7       _dtol3_retmin              10018ef7     LIBCMT:ftol3.obj
 0001:00017f00       $$000000                   10018f00     LIBCMT:ftol3.obj
 0001:00017f1a       _ultod3_default            10018f1a     LIBCMT:ftol3.obj
 0001:00017f50       _ultod3_uint32             10018f50     LIBCMT:ftol3.obj
 0001:00017f60       $$000000                   10018f60     LIBCMT:ftol3.obj
 0001:00017f7a       _ltod3_default             10018f7a     LIBCMT:ftol3.obj
 0001:00017fa1       ?dllmain_crt_dispatch@@YGHQAUHINSTANCE__@@KQAX@Z 10018fa1 f   LIBCMT:dll_dllmain.obj
 0001:00017ff4       ?dllmain_crt_process_attach@@YAHQAUHINSTANCE__@@QAX@Z 10018ff4 f   LIBCMT:dll_dllmain.obj
 0001:000180fb       ?dllmain_crt_process_detach@@YAH_N@Z 100190fb f   LIBCMT:dll_dllmain.obj
 0001:000181ab       ?dllmain_dispatch@@YAHQAUHINSTANCE__@@KQAX@Z 100191ab f   LIBCMT:dll_dllmain.obj
 0001:000182b6       ?dllmain_raw@@YGHQAUHINSTANCE__@@KQAX@Z 100192b6 f   LIBCMT:dll_dllmain.obj
 0001:000187f0       ___get_entropy             100197f0 f   LIBCMT:gs_support.obj
 0001:000188d6       ?find_pe_section@@YAPAU_IMAGE_SECTION_HEADER@@QAEI@Z 100198d6 f   LIBCMT:utility.obj
 0001:0001891f       ?is_potentially_valid_image_base@@YA_NQAX@Z 1001991f f   LIBCMT:utility.obj
 0001:00018ec0       $$000000                   10019ec0     LIBCMT:sehprolg4.obj
 0001:00018f10       $$000000                   10019f10     LIBCMT:sehprolg4.obj
 0001:00018fb1       ___castguard_compat_check  10019fb1 f   LIBCMT:guard_support.obj
 0001:00019079       ___castguard_slow_path_compat_check 1001a079 f   LIBCMT:guard_support.obj
 0001:00019130       $$000000                   1001a130     libvcruntime:memset.obj
 0001:00019175       XMMMov                     1001a175     libvcruntime:memset.obj
 0001:000191b0       LargeRangeBytes            1001a1b0     libvcruntime:memset.obj
 0001:000191ed       XmmMovSmall                1001a1ed     libvcruntime:memset.obj
 0001:00019200       XmmSmallLoop               1001a200     libvcruntime:memset.obj
 0001:00019205       MidRangeBytes              1001a205     libvcruntime:memset.obj
 0001:00019221       XMMTrailingBytes           1001a221     libvcruntime:memset.obj
 0001:00019235       SmallMov                   1001a235     libvcruntime:memset.obj
 0001:0001923d       ByteLoop                   1001a23d     libvcruntime:memset.obj
 0001:0001924b       DwordTest                  1001a24b     libvcruntime:memset.obj
 0001:0001925b       QwordTest                  1001a25b     libvcruntime:memset.obj
 0001:00019270       QwordLoop                  1001a270     libvcruntime:memset.obj
 0001:00019283       toend                      1001a283     libvcruntime:memset.obj
 0001:00019290       $$000000                   1001a290     libvcruntime:memcpy.obj
 0001:000192b0       CopyUp                     1001a2b0     libvcruntime:memcpy.obj
 0001:000192d4       CopyUpLargeMov             1001a2d4     libvcruntime:memcpy.obj
 0001:000192e7       CopyUpSSE2Check            1001a2e7     libvcruntime:memcpy.obj
 0001:00019300       AtomChk                    1001a300     libvcruntime:memcpy.obj
 0001:00019326       PalignHead4                1001a326     libvcruntime:memcpy.obj
 0001:00019339       PalignHead8                1001a339     libvcruntime:memcpy.obj
 0001:00019350       PalignLoop                 1001a350     libvcruntime:memcpy.obj
 0001:00019362       MovPalign12                1001a362     libvcruntime:memcpy.obj
 0001:0001936c       PalignLoop12               1001a36c     libvcruntime:memcpy.obj
 0001:000193bd       MovPalign8                 1001a3bd     libvcruntime:memcpy.obj
 0001:000193c8       PalignLoop8                1001a3c8     libvcruntime:memcpy.obj
 0001:00019416       MovPalign4                 1001a416     libvcruntime:memcpy.obj
 0001:00019420       PalignLoop4                1001a420     libvcruntime:memcpy.obj
 0001:0001946c       PalignTail                 1001a46c     libvcruntime:memcpy.obj
 0001:00019484       PalignTail4                1001a484     libvcruntime:memcpy.obj
 0001:00019497       PalignTail8                1001a497     libvcruntime:memcpy.obj
 0001:000194ae       PalignTailLE3              1001a4ae     libvcruntime:memcpy.obj
 0001:000194b7       Dword_align                1001a4b7     libvcruntime:memcpy.obj
 0001:000194bf       Dword_up_align_loop        1001a4bf     libvcruntime:memcpy.obj
 0001:000194d2       Dword_align_Ok             1001a4d2     libvcruntime:memcpy.obj
 0001:000194ec       ByteCopyUp                 1001a4ec     libvcruntime:memcpy.obj
 0001:000194f4       TrailingUpVec              1001a4f4     libvcruntime:memcpy.obj
 0001:00019504       TrailingUp0                1001a504     libvcruntime:memcpy.obj
 0001:0001950c       TrailingUp1                1001a50c     libvcruntime:memcpy.obj
 0001:00019518       TrailingUp2                1001a518     libvcruntime:memcpy.obj
 0001:0001952c       TrailingUp3                1001a52c     libvcruntime:memcpy.obj
 0001:00019544       CopyDown                   1001a544     libvcruntime:memcpy.obj
 0001:00019569       CopyDownNotAligned         1001a569     libvcruntime:memcpy.obj
 0001:00019570       CopyDownAlignLoop          1001a570     libvcruntime:memcpy.obj
 0001:0001957d       CopyDownAligned            1001a57d     libvcruntime:memcpy.obj
 0001:000195a0       TrailingDownVec            1001a5a0     libvcruntime:memcpy.obj
 0001:000195b0       TrailingDown0              1001a5b0     libvcruntime:memcpy.obj
 0001:000195b8       TrailingDown1              1001a5b8     libvcruntime:memcpy.obj
 0001:000195c8       TrailingDown2              1001a5c8     libvcruntime:memcpy.obj
 0001:000195dc       TrailingDown3              1001a5dc     libvcruntime:memcpy.obj
 0001:000195f5       XmmMovLargeAlignTest       1001a5f5     libvcruntime:memcpy.obj
 0001:000195fd       XmmMovAlignLoop            1001a5fd     libvcruntime:memcpy.obj
 0001:0001960c       XmmMovLargeLoop            1001a60c     libvcruntime:memcpy.obj
 0001:0001967c       XmmMovSmallTest            1001a67c     libvcruntime:memcpy.obj
 0001:00019681       XmmMovSmallLoop            1001a681     libvcruntime:memcpy.obj
 0001:000196a4       CopyDownSmall              1001a6a4     libvcruntime:memcpy.obj
 0001:000196ac       CopyDownDwordLoop          1001a6ac     libvcruntime:memcpy.obj
 0001:000196c1       CopyDownByteTest           1001a6c1     libvcruntime:memcpy.obj
 0001:000196c5       CopyDownByteLoop           1001a6c5     libvcruntime:memcpy.obj
 0001:000196d4       CopyDownReturn             1001a6d4     libvcruntime:memcpy.obj
 0001:000196e0       XmmCopy                    1001a6e0     libvcruntime:memcpy.obj
 0001:000196ed       XmmCopyAligned             1001a6ed     libvcruntime:memcpy.obj
 0001:00019700       XmmCopyLargeLoop           1001a700     libvcruntime:memcpy.obj
 0001:0001975d       XmmCopySmallTest           1001a75d     libvcruntime:memcpy.obj
 0001:00019770       XmmCopySmallLoop           1001a770     libvcruntime:memcpy.obj
 0001:0001978b       CopyUpDwordMov             1001a78b     libvcruntime:memcpy.obj
 0001:00019790       CopyUpDwordTest            1001a790     libvcruntime:memcpy.obj
 0001:00019797       CopyUpDwordLoop            1001a797     libvcruntime:memcpy.obj
 0001:000197a6       CopyUpByteTest             1001a7a6     libvcruntime:memcpy.obj
 0001:000197ad       CopyUpByteLoop             1001a7ad     libvcruntime:memcpy.obj
 0001:000197c0       CopyUpReturn               1001a7c0     libvcruntime:memcpy.obj
 0001:000197d0       XmmCopyUnaligned           1001a7d0     libvcruntime:memcpy.obj
 0001:000197e3       XmmAlignByte               1001a7e3     libvcruntime:memcpy.obj
 0001:000197ec       XmmAlignDwordTest          1001a7ec     libvcruntime:memcpy.obj
 0001:000197f1       XmmAlignDwordLoop          1001a7f1     libvcruntime:memcpy.obj
 0001:000197fe       XmmAlignAdjustCnt          1001a7fe     libvcruntime:memcpy.obj
 0001:00019810       _ValidateLocalCookies      1001a810 f   libvcruntime:chandler4.obj
 0001:000199ae       ?<lambda_invoker_cdecl>@_Closure_wrapper_94051dd7_1@@CAPAXI@Z 1001a9ae f   libvcruntime:std_type_info.obj
 0001:000199b7       ?<lambda_invoker_cdecl>@_Closure_wrapper_94051dd7_2@@CAXQAX@Z 1001a9b7 f   libvcruntime:std_type_info.obj
 0001:00019a42       ??B_Closure_wrapper_94051dd7_1@@QBEP6APAXI@ZXZ 1001aa42 f   libvcruntime:std_type_info.obj
 0001:00019a48       ??B_Closure_wrapper_94051dd7_2@@QBEP6AXQAX@ZXZ 1001aa48 f   libvcruntime:std_type_info.obj
 0001:00019a4e       ??R<lambda_1>@?1??__std_type_info_name@@YAPBDPAU__std_type_info_data@@PAU__type_info_node@@@Z@QBE@I@Z 1001aa4e f   libvcruntime:std_type_info.obj
 0001:00019a5e       ??R<lambda_2>@?1??__std_type_info_name@@YAPBDPAU__std_type_info_data@@PAU__type_info_node@@@Z@QBE@QAX@Z 1001aa5e f   libvcruntime:std_type_info.obj
 0001:00019c50       _init_memcpy_functions     1001ac50 f   libvcruntime:initialization.obj
 0001:00019d01       ?_FilterSetCurrentException@@YAKPAU_EXCEPTION_POINTERS@@E@Z 1001ad01 f   libvcruntime:ehhelpers.obj
 0001:00019f20       $$000000                   1001af20     libvcruntime:exsup4.obj
 0001:00019f52       _lu_top                    1001af52     libvcruntime:exsup4.obj
 0001:00019fb1       _lu_done                   1001afb1     libvcruntime:exsup4.obj
 0001:00019fc0       $$000000                   1001afc0     libvcruntime:exsup4.obj
 0001:00019fc0       __unwind_handler4          1001afc0 f   libvcruntime:exsup4.obj
 0001:0001a010       $$000000                   1001b010     libvcruntime:exsup4.obj
 0001:0001a040       $$000000                   1001b040     libvcruntime:exsup4.obj
 0001:0001a060       $$000000                   1001b060     libvcruntime:exsup4.obj
 0001:0001a080       $$000000                   1001b080     libvcruntime:exsup4.obj
 0001:0001a095       ReturnPoint                1001b095     libvcruntime:exsup4.obj
 0001:0001a0a0       $$000000                   1001b0a0     libvcruntime:exsup4.obj
 0001:0001a0b7       ___except_get_jumpbuf_sp   1001b0b7 f   libvcruntime:jbcxrval.obj
 0001:0001a802       ??0TrackRecursion@?1??getDecoratedName@UnDecorator@@CA?AVDName@@XZ@QAE@XZ 1001b802 f   libvcruntime:undname.obj
 0001:0001a8b6       ??1TrackRecursion@?1??getDecoratedName@UnDecorator@@CA?AVDName@@XZ@QAE@XZ 1001b8b6 f   libvcruntime:undname.obj
 0001:0001ad86       ?IsValidIdentChar@@YA_ND@Z 1001bd86 f   libvcruntime:undname.obj
 0001:0001c6dc       $LN190                     1001d6dc     libvcruntime:undname.obj
 0001:0001c700       $LN189                     1001d700     libvcruntime:undname.obj
 0001:0001c714       $LN191                     1001d714     libvcruntime:undname.obj
 0001:0001d737       $LN49                      1001e737     libvcruntime:undname.obj
 0001:0001e790       $LN292                     1001f790     libvcruntime:undname.obj
 0001:0001e79c       $LN291                     1001f79c     libvcruntime:undname.obj
 0001:0001e7b4       $LN294                     1001f7b4     libvcruntime:undname.obj
 0001:0001e7d0       $LN293                     1001f7d0     libvcruntime:undname.obj
 0001:0001e7e8       $LN296                     1001f7e8     libvcruntime:undname.obj
 0001:0001e7f8       $LN295                     1001f7f8     libvcruntime:undname.obj
 0001:0001fdb1       $LN120                     10020db1     libvcruntime:undname.obj
 0001:0001fdcd       $LN119                     10020dcd     libvcruntime:undname.obj
 0001:00020271       $LN136                     10021271     libvcruntime:undname.obj
 0001:00020c94       ?und_memcpy@@YAXPADPBDI@Z  10021c94 f   libvcruntime:undname.obj
 0001:00020cb5       ?und_strlen@@YAIPBD@Z      10021cb5 f   libvcruntime:undname.obj
 0001:00020cca       ?und_strncmp@@YAIPBD0I@Z   10021cca f   libvcruntime:undname.obj
 0001:00020ec1       ??0scoped_get_last_error_reset@?A0x0f4ab0dc@@QAE@XZ 10021ec1 f   libvcruntime:per_thread_data.obj
 0001:00020ee0       ??1scoped_get_last_error_reset@?A0x0f4ab0dc@@QAE@XZ 10021ee0 f   libvcruntime:per_thread_data.obj
 0001:00020f10       ?store_and_initialize_ptd@@YA_NQAU__vcrt_ptd@@@Z 10021f10 f   libvcruntime:per_thread_data.obj
 0001:00021140       $$000000                   10022140     libvcruntime:exsup.obj
 0001:00021159       _gu_return                 10022159     libvcruntime:exsup.obj
 0001:00021170       $$000000                   10022170     libvcruntime:exsup.obj
 0001:00021170       __unwind_handler           10022170 f   libvcruntime:exsup.obj
 0001:000211b8       _uh_return                 100221b8     libvcruntime:exsup.obj
 0001:000211c0       $$000000                   100221c0     libvcruntime:exsup.obj
 0001:000211e9       _lu_top                    100221e9     libvcruntime:exsup.obj
 0001:00021211       _continue_                 10022211     libvcruntime:exsup.obj
 0001:00021240       _lu_continue               10022240     libvcruntime:exsup.obj
 0001:00021245       _lu_done                   10022245     libvcruntime:exsup.obj
 0001:00021260       $$000000                   10022260     libvcruntime:exsup.obj
 0001:0002128a       _at_done                   1002228a     libvcruntime:exsup.obj
 0001:00021290       $$000000                   10022290     libvcruntime:exsup.obj
 0001:000212a0       $$000000                   100222a0     libvcruntime:exsup.obj
 0001:000212ab       __NLG_Go                   100222ab     libvcruntime:exsup.obj
 0001:000212c0       $$000000                   100222c0     libvcruntime:exsup.obj
 0001:000217cd       ?invalid_function_sentinel@@YAPAXXZ 100227cd f   libvcruntime:winapi_downlevel.obj
 0001:000217d1       ?try_get_FlsAlloc@@YAP6GKP6GXPAX@Z@ZXZ 100227d1 f   libvcruntime:winapi_downlevel.obj
 0001:000217eb       ?try_get_FlsFree@@YAP6GHK@ZXZ 100227eb f   libvcruntime:winapi_downlevel.obj
 0001:00021805       ?try_get_FlsGetValue@@YAP6GPAXK@ZXZ 10022805 f   libvcruntime:winapi_downlevel.obj
 0001:0002181f       ?try_get_FlsSetValue@@YAP6GHKPAX@ZXZ 1002281f f   libvcruntime:winapi_downlevel.obj
 0001:00021839       ?try_get_InitializeCriticalSectionEx@@YAP6GHPAU_RTL_CRITICAL_SECTION@@KK@ZXZ 10022839 f   libvcruntime:winapi_downlevel.obj
 0001:00021853       ?try_get_first_available_module@@YAPAUHINSTANCE__@@QBW4module_id@?A0x87e98a64@@0@Z 10022853 f   libvcruntime:winapi_downlevel.obj
 0001:000218ed       ?try_get_function@@YAPAXW4function_id@?A0x87e98a64@@QBDQBW4module_id@2@2@Z 100228ed f   libvcruntime:winapi_downlevel.obj
 0001:00021936       ?try_get_module@@YAPAUHINSTANCE__@@W4module_id@?A0x87e98a64@@@Z 10022936 f   libvcruntime:winapi_downlevel.obj
 0001:00021985       ?try_get_proc_address_from_first_available_module@@YAPAXQBDQBW4module_id@?A0x87e98a64@@1@Z 10022985 f   libvcruntime:winapi_downlevel.obj
 0001:000219a7       ?try_load_library_from_system_directory@@YAPAUHINSTANCE__@@QB_W@Z 100229a7 f   libvcruntime:winapi_downlevel.obj
 0001:00021b28       ??$BuildCatchObjectHelperInternal@V__FrameHandler3@@@@YAHPAUEHExceptionRecord@@PAXPBU_s_HandlerType@@PBU_s_CatchableType@@@Z 10022b28 f   libvcruntime:frame.obj
 0001:00021c66       ??$BuildCatchObjectInternal@V__FrameHandler3@@@@YAXPAUEHExceptionRecord@@PAXPBU_s_HandlerType@@PBU_s_CatchableType@@@Z 10022c66 f   libvcruntime:frame.obj
 0001:00021cff       ??$CatchIt@V__FrameHandler3@@@@YAXPAUEHExceptionRecord@@PAUEHRegistrationNode@@PAU_CONTEXT@@PAXPBU_s_FuncInfo@@PBU_s_HandlerType@@PBU_s_CatchableType@@PBU_s_TryBlockMapEntry@@H1EE@Z 10022cff f   libvcruntime:frame.obj
 0001:00021d7f       ??$FindHandler@V__FrameHandler3@@@@YAXPAUEHExceptionRecord@@PAUEHRegistrationNode@@PAU_CONTEXT@@PAXPBU_s_FuncInfo@@EH1@Z 10022d7f f   libvcruntime:frame.obj
 0001:00022129       ??$FindHandlerForForeignException@V__FrameHandler3@@@@YAXPAUEHExceptionRecord@@PAUEHRegistrationNode@@PAU_CONTEXT@@PAXPBU_s_FuncInfo@@HH1@Z 10023129 f   libvcruntime:frame.obj
 0001:000225d9       ?CallCatchBlock@@YAPAXPAUEHExceptionRecord@@PAUEHRegistrationNode@@PAU_CONTEXT@@PBU_s_FuncInfo@@PAXHK@Z 100235d9 f   libvcruntime:frame.obj
 0001:0002279d       ?CallUnexpected@@YAXPBU_s_ESTypeList@@@Z 1002379d f   libvcruntime:frame.obj
 0001:000227bd       __catch$?CallUnexpected@@YAXPBU_s_ESTypeList@@@Z$0 100237bd f   libvcruntime:frame.obj
 0001:000227dc       ?ExFilterRethrow@@YAHPAU_EXCEPTION_POINTERS@@@Z 100237dc f   libvcruntime:frame.obj
 0001:00022931       ?IsInExceptionSpec@@YAEPAUEHExceptionRecord@@PBU_s_ESTypeList@@@Z 10023931 f   libvcruntime:frame.obj
 0001:000229cb       ?Is_bad_exception_allowed@@YAEPBU_s_ESTypeList@@@Z 100239cb f   libvcruntime:frame.obj
 0001:00022ad0       $$000000                   10023ad0     libvcruntime:lowhelpr.obj
 0001:00022b0f       _NLG_Continue              10023b0f     libvcruntime:lowhelpr.obj
 0001:00022b1c       ?get_unexpected_or_default@@YAP6AXXZQBU__vcrt_ptd@@@Z 10023b1c f   libvcruntime:unexpected.obj
 0001:00022cf0       $$000000                   10023cf0     libvcruntime:memmove.obj
 0001:00022d10       CopyUp                     10023d10     libvcruntime:memmove.obj
 0001:00022d34       CopyUpLargeMov             10023d34     libvcruntime:memmove.obj
 0001:00022d47       CopyUpSSE2Check            10023d47     libvcruntime:memmove.obj
 0001:00022d60       AtomChk                    10023d60     libvcruntime:memmove.obj
 0001:00022d86       PalignHead4                10023d86     libvcruntime:memmove.obj
 0001:00022d99       PalignHead8                10023d99     libvcruntime:memmove.obj
 0001:00022db0       PalignLoop                 10023db0     libvcruntime:memmove.obj
 0001:00022dc2       MovPalign12                10023dc2     libvcruntime:memmove.obj
 0001:00022dcc       PalignLoop12               10023dcc     libvcruntime:memmove.obj
 0001:00022e1d       MovPalign8                 10023e1d     libvcruntime:memmove.obj
 0001:00022e28       PalignLoop8                10023e28     libvcruntime:memmove.obj
 0001:00022e76       MovPalign4                 10023e76     libvcruntime:memmove.obj
 0001:00022e80       PalignLoop4                10023e80     libvcruntime:memmove.obj
 0001:00022ecc       PalignTail                 10023ecc     libvcruntime:memmove.obj
 0001:00022ee4       PalignTail4                10023ee4     libvcruntime:memmove.obj
 0001:00022ef7       PalignTail8                10023ef7     libvcruntime:memmove.obj
 0001:00022f0e       PalignTailLE3              10023f0e     libvcruntime:memmove.obj
 0001:00022f17       Dword_align                10023f17     libvcruntime:memmove.obj
 0001:00022f1f       Dword_up_align_loop        10023f1f     libvcruntime:memmove.obj
 0001:00022f32       Dword_align_Ok             10023f32     libvcruntime:memmove.obj
 0001:00022f4c       ByteCopyUp                 10023f4c     libvcruntime:memmove.obj
 0001:00022f54       TrailingUpVec              10023f54     libvcruntime:memmove.obj
 0001:00022f64       TrailingUp0                10023f64     libvcruntime:memmove.obj
 0001:00022f6c       TrailingUp1                10023f6c     libvcruntime:memmove.obj
 0001:00022f78       TrailingUp2                10023f78     libvcruntime:memmove.obj
 0001:00022f8c       TrailingUp3                10023f8c     libvcruntime:memmove.obj
 0001:00022fa4       CopyDown                   10023fa4     libvcruntime:memmove.obj
 0001:00022fc9       CopyDownNotAligned         10023fc9     libvcruntime:memmove.obj
 0001:00022fd0       CopyDownAlignLoop          10023fd0     libvcruntime:memmove.obj
 0001:00022fdd       CopyDownAligned            10023fdd     libvcruntime:memmove.obj
 0001:00023000       TrailingDownVec            10024000     libvcruntime:memmove.obj
 0001:00023010       TrailingDown0              10024010     libvcruntime:memmove.obj
 0001:00023018       TrailingDown1              10024018     libvcruntime:memmove.obj
 0001:00023028       TrailingDown2              10024028     libvcruntime:memmove.obj
 0001:0002303c       TrailingDown3              1002403c     libvcruntime:memmove.obj
 0001:00023055       XmmMovLargeAlignTest       10024055     libvcruntime:memmove.obj
 0001:0002305d       XmmMovAlignLoop            1002405d     libvcruntime:memmove.obj
 0001:0002306c       XmmMovLargeLoop            1002406c     libvcruntime:memmove.obj
 0001:000230dc       XmmMovSmallTest            100240dc     libvcruntime:memmove.obj
 0001:000230e1       XmmMovSmallLoop            100240e1     libvcruntime:memmove.obj
 0001:00023104       CopyDownSmall              10024104     libvcruntime:memmove.obj
 0001:0002310c       CopyDownDwordLoop          1002410c     libvcruntime:memmove.obj
 0001:00023121       CopyDownByteTest           10024121     libvcruntime:memmove.obj
 0001:00023125       CopyDownByteLoop           10024125     libvcruntime:memmove.obj
 0001:00023134       CopyDownReturn             10024134     libvcruntime:memmove.obj
 0001:00023140       XmmCopy                    10024140     libvcruntime:memmove.obj
 0001:0002314d       XmmCopyAligned             1002414d     libvcruntime:memmove.obj
 0001:00023160       XmmCopyLargeLoop           10024160     libvcruntime:memmove.obj
 0001:000231bd       XmmCopySmallTest           100241bd     libvcruntime:memmove.obj
 0001:000231d0       XmmCopySmallLoop           100241d0     libvcruntime:memmove.obj
 0001:000231eb       CopyUpDwordMov             100241eb     libvcruntime:memmove.obj
 0001:000231f0       CopyUpDwordTest            100241f0     libvcruntime:memmove.obj
 0001:000231f7       CopyUpDwordLoop            100241f7     libvcruntime:memmove.obj
 0001:00023206       CopyUpByteTest             10024206     libvcruntime:memmove.obj
 0001:0002320d       CopyUpByteLoop             1002420d     libvcruntime:memmove.obj
 0001:00023220       CopyUpReturn               10024220     libvcruntime:memmove.obj
 0001:00023230       XmmCopyUnaligned           10024230     libvcruntime:memmove.obj
 0001:00023243       XmmAlignByte               10024243     libvcruntime:memmove.obj
 0001:0002324c       XmmAlignDwordTest          1002424c     libvcruntime:memmove.obj
 0001:00023251       XmmAlignDwordLoop          10024251     libvcruntime:memmove.obj
 0001:0002325e       XmmAlignAdjustCnt          1002425e     libvcruntime:memmove.obj
 0001:00023270       $$000000                   10024270     libucrt:cos_sse2_precise.obj
 0001:00023430       $$000000                   10024430     libucrt:sin_sse2_precise.obj
 0001:00023600       $$000000                   10024600     libucrt:sqrt_sse2_precise.obj
 0001:00023700       ??$?RV<lambda_15bf9711507a956a9b92b72103417415>@@AAV<lambda_030c500d7a5b6af83e89b8f90c8f8b77>@@V<lambda_1b62051d9a25440eb0692d614a6db7e2>@@@?$__crt_seh_guarded_call@H@@QAEH$$QAV<lambda_15bf9711507a956a9b92b72103417415>@@AAV<lambda_030c500d7a5b6af83e89b8f90c8f8b77>@@$$QAV<lambda_1b62051d9a25440eb0692d614a6db7e2>@@@Z 10024700 f   libucrt:stat.obj
 0001:0002375b       ??$?RV<lambda_19a181d029bd86e446c81e2704b38c4b>@@AAV<lambda_48f637d546cad12a4f7a08a33f82bed3>@@V<lambda_102057672a4e90d7193c8045abc474dc>@@@?$__crt_seh_guarded_call@H@@QAEH$$QAV<lambda_19a181d029bd86e446c81e2704b38c4b>@@AAV<lambda_48f637d546cad12a4f7a08a33f82bed3>@@$$QAV<lambda_102057672a4e90d7193c8045abc474dc>@@@Z 1002475b f   libucrt:stat.obj
 0001:0002380c       ??$?RV<lambda_3fbdc05a7b75ad3345997c5c88b25055>@@AAV<lambda_c178ad9533f203a2ba4f364d49dc5113>@@V<lambda_f8575de5a9e054d22965e38bf6e91640>@@@?$__crt_seh_guarded_call@H@@QAEH$$QAV<lambda_3fbdc05a7b75ad3345997c5c88b25055>@@AAV<lambda_c178ad9533f203a2ba4f364d49dc5113>@@$$QAV<lambda_f8575de5a9e054d22965e38bf6e91640>@@@Z 1002480c f   libucrt:stat.obj
 0001:00023867       ??$?RV<lambda_eb8e992fc2967f674bdd13aed39bd917>@@AAV<lambda_4d5a17c94aa2aaa0f753895cfe986462>@@V<lambda_f3d523c14c5ced676e1892433f994293>@@@?$__crt_seh_guarded_call@H@@QAEH$$QAV<lambda_eb8e992fc2967f674bdd13aed39bd917>@@AAV<lambda_4d5a17c94aa2aaa0f753895cfe986462>@@$$QAV<lambda_f3d523c14c5ced676e1892433f994293>@@@Z 10024867 f   libucrt:stat.obj
 0001:00023986       ??$__acrt_lowio_lock_fh_and_call@V<lambda_030c500d7a5b6af83e89b8f90c8f8b77>@@@@YAHH$$QAV<lambda_030c500d7a5b6af83e89b8f90c8f8b77>@@@Z 10024986 f   libucrt:stat.obj
 0001:000239ac       ??$__acrt_lowio_lock_fh_and_call@V<lambda_48f637d546cad12a4f7a08a33f82bed3>@@@@YAHH$$QAV<lambda_48f637d546cad12a4f7a08a33f82bed3>@@@Z 100249ac f   libucrt:stat.obj
 0001:000239d2       ??$__acrt_lowio_lock_fh_and_call@V<lambda_4d5a17c94aa2aaa0f753895cfe986462>@@@@YAHH$$QAV<lambda_4d5a17c94aa2aaa0f753895cfe986462>@@@Z 100249d2 f   libucrt:stat.obj
 0001:000239f8       ??$__acrt_lowio_lock_fh_and_call@V<lambda_c178ad9533f203a2ba4f364d49dc5113>@@@@YAHH$$QAV<lambda_c178ad9533f203a2ba4f364d49dc5113>@@@Z 100249f8 f   libucrt:stat.obj
 0001:00023a3b       ??$common_fstat@U_stat32@@@@YAHHQAU_stat32@@@Z 10024a3b f   libucrt:stat.obj
 0001:00023b03       ??$common_fstat@U_stat32i64@@@@YAHHQAU_stat32i64@@@Z 10024b03 f   libucrt:stat.obj
 0001:00023bd7       ??$common_fstat@U_stat64@@@@YAHHQAU_stat64@@@Z 10024bd7 f   libucrt:stat.obj
 0001:00023cab       ??$common_fstat@U_stat64i32@@@@YAHHQAU_stat64i32@@@Z 10024cab f   libucrt:stat.obj
 0001:00023d7f       ??$common_stat@U_stat32@@@@YAHQBDQAU_stat32@@@Z 10024d7f f   libucrt:stat.obj
 0001:00023e00       ??$common_stat@U_stat32@@@@YAHQB_WQAU_stat32@@@Z 10024e00 f   libucrt:stat.obj
 0001:00023eee       ??$common_stat@U_stat32i64@@@@YAHQBDQAU_stat32i64@@@Z 10024eee f   libucrt:stat.obj
 0001:00023f6f       ??$common_stat@U_stat32i64@@@@YAHQB_WQAU_stat32i64@@@Z 10024f6f f   libucrt:stat.obj
 0001:0002406f       ??$common_stat@U_stat64@@@@YAHQBDQAU_stat64@@@Z 1002506f f   libucrt:stat.obj
 0001:000240f0       ??$common_stat@U_stat64@@@@YAHQB_WQAU_stat64@@@Z 100250f0 f   libucrt:stat.obj
 0001:000241f0       ??$common_stat@U_stat64i32@@@@YAHQBDQAU_stat64i32@@@Z 100251f0 f   libucrt:stat.obj
 0001:00024271       ??$common_stat@U_stat64i32@@@@YAHQB_WQAU_stat64i32@@@Z 10025271 f   libucrt:stat.obj
 0001:00024371       ??$common_stat_handle_file_not_opened@U_stat32@@@@YA_NQB_WAAU_stat32@@@Z 10025371 f   libucrt:stat.obj
 0001:000243f0       ??$common_stat_handle_file_not_opened@U_stat32i64@@@@YA_NQB_WAAU_stat32i64@@@Z 100253f0 f   libucrt:stat.obj
 0001:0002446f       ??$common_stat_handle_file_not_opened@U_stat64@@@@YA_NQB_WAAU_stat64@@@Z 1002546f f   libucrt:stat.obj
 0001:000244f9       ??$common_stat_handle_file_not_opened@U_stat64i32@@@@YA_NQB_WAAU_stat64i32@@@Z 100254f9 f   libucrt:stat.obj
 0001:00024583       ??$common_stat_handle_file_opened@U_stat32@@@@YA_NQB_WHQAXAAU_stat32@@@Z 10025583 f   libucrt:stat.obj
 0001:000246e1       ??$common_stat_handle_file_opened@U_stat32i64@@@@YA_NQB_WHQAXAAU_stat32i64@@@Z 100256e1 f   libucrt:stat.obj
 0001:00024843       ??$common_stat_handle_file_opened@U_stat64@@@@YA_NQB_WHQAXAAU_stat64@@@Z 10025843 f   libucrt:stat.obj
 0001:000249b7       ??$common_stat_handle_file_opened@U_stat64i32@@@@YA_NQB_WHQAXAAU_stat64i32@@@Z 100259b7 f   libucrt:stat.obj
 0001:00024b27       ??$convert_filetime_to_time_t@J@@YAJU_FILETIME@@J@Z 10025b27 f   libucrt:stat.obj
 0001:00024ba9       ??$convert_filetime_to_time_t@_J@@YA_JU_FILETIME@@_J@Z 10025ba9 f   libucrt:stat.obj
 0001:00024d10       ??0<lambda_030c500d7a5b6af83e89b8f90c8f8b77>@@QAE@ABHABQAU_stat64@@@Z 10025d10 f   libucrt:stat.obj
 0001:00024d26       ??0<lambda_102057672a4e90d7193c8045abc474dc>@@QAE@ABH@Z 10025d26 f   libucrt:stat.obj
 0001:00024d38       ??0<lambda_15bf9711507a956a9b92b72103417415>@@QAE@ABH@Z 10025d38 f   libucrt:stat.obj
 0001:00024d4a       ??0<lambda_19a181d029bd86e446c81e2704b38c4b>@@QAE@ABH@Z 10025d4a f   libucrt:stat.obj
 0001:00024d5c       ??0<lambda_1b62051d9a25440eb0692d614a6db7e2>@@QAE@ABH@Z 10025d5c f   libucrt:stat.obj
 0001:00024d6e       ??0<lambda_3fbdc05a7b75ad3345997c5c88b25055>@@QAE@ABH@Z 10025d6e f   libucrt:stat.obj
 0001:00024d80       ??0<lambda_48f637d546cad12a4f7a08a33f82bed3>@@QAE@ABHABQAU_stat32@@@Z 10025d80 f   libucrt:stat.obj
 0001:00024d96       ??0<lambda_4d5a17c94aa2aaa0f753895cfe986462>@@QAE@ABHABQAU_stat32i64@@@Z 10025d96 f   libucrt:stat.obj
 0001:00024dac       ??0<lambda_c178ad9533f203a2ba4f364d49dc5113>@@QAE@ABHABQAU_stat64i32@@@Z 10025dac f   libucrt:stat.obj
 0001:00024dc2       ??0<lambda_eb8e992fc2967f674bdd13aed39bd917>@@QAE@ABH@Z 10025dc2 f   libucrt:stat.obj
 0001:00024dd4       ??0<lambda_f3d523c14c5ced676e1892433f994293>@@QAE@ABH@Z 10025dd4 f   libucrt:stat.obj
 0001:00024de6       ??0<lambda_f8575de5a9e054d22965e38bf6e91640>@@QAE@ABH@Z 10025de6 f   libucrt:stat.obj
 0001:00024ef6       ??R<lambda_030c500d7a5b6af83e89b8f90c8f8b77>@@QBEHXZ 10025ef6 f   libucrt:stat.obj
 0001:00024f6e       ??R<lambda_102057672a4e90d7193c8045abc474dc>@@QBEXXZ 10025f6e f   libucrt:stat.obj
 0001:00024f77       ??R<lambda_15bf9711507a956a9b92b72103417415>@@QBEXXZ 10025f77 f   libucrt:stat.obj
 0001:00024f80       ??R<lambda_19a181d029bd86e446c81e2704b38c4b>@@QBEXXZ 10025f80 f   libucrt:stat.obj
 0001:00024f89       ??R<lambda_1b62051d9a25440eb0692d614a6db7e2>@@QBEXXZ 10025f89 f   libucrt:stat.obj
 0001:00024f92       ??R<lambda_3fbdc05a7b75ad3345997c5c88b25055>@@QBEXXZ 10025f92 f   libucrt:stat.obj
 0001:00024f9b       ??R<lambda_48f637d546cad12a4f7a08a33f82bed3>@@QBEHXZ 10025f9b f   libucrt:stat.obj
 0001:0002500d       ??R<lambda_4d5a17c94aa2aaa0f753895cfe986462>@@QBEHXZ 1002600d f   libucrt:stat.obj
 0001:000250a6       ??R<lambda_c178ad9533f203a2ba4f364d49dc5113>@@QBEHXZ 100260a6 f   libucrt:stat.obj
 0001:0002511e       ??R<lambda_eb8e992fc2967f674bdd13aed39bd917>@@QBEXXZ 1002611e f   libucrt:stat.obj
 0001:00025127       ??R<lambda_f3d523c14c5ced676e1892433f994293>@@QBEXXZ 10026127 f   libucrt:stat.obj
 0001:00025130       ??R<lambda_f8575de5a9e054d22965e38bf6e91640>@@QBEXXZ 10026130 f   libucrt:stat.obj
 0001:000251f4       ?call_wfullpath@@YAPA_WQA_WQB_WIQAPA_W@Z 100261f4 f   libucrt:stat.obj
 0001:00025284       ?compute_size@@YA_NABU_BY_HANDLE_FILE_INFORMATION@@AAJ@Z 10026284 f   libucrt:stat.obj
 0001:000252b7       ?compute_size@@YA_NABU_BY_HANDLE_FILE_INFORMATION@@AA_J@Z 100262b7 f   libucrt:stat.obj
 0001:000252f6       ?convert_to_stat_mode@@YAGHQB_W@Z 100262f6 f   libucrt:stat.obj
 0001:000253c1       ?get_drive_number_from_path@@YA_NQB_WAAH@Z 100263c1 f   libucrt:stat.obj
 0001:00025421       ?has_executable_extension@@YA_NQB_W@Z 10026421 f   libucrt:stat.obj
 0001:0002548c       ?is_root_or_empty@@YA_NQB_W@Z 1002648c f   libucrt:stat.obj
 0001:000254e2       ?is_root_unc_name@@YA_NQB_W@Z 100264e2 f   libucrt:stat.obj
 0001:00025591       ?is_slash@@YA_N_W@Z        10026591 f   libucrt:stat.obj
 0001:000255ac       ?is_usable_drive_or_unc_root@@YA_NQB_W@Z 100265ac f   libucrt:stat.obj
 0001:00025a49       ?_isindst_nolock@@YAHQAUtm@@@Z 10026a49 f   libucrt:tzset.obj
 0001:00025c96       ?cvtdate@@YAXW4transition_type@?A0x7639d0b4@@W4date_type@2@HHHHHHHHH@Z 10026c96 f   libucrt:tzset.obj
 0001:00025de2       ?get_tz_environment_variable@@YAPA_WAAY0BAA@_W@Z 10026de2 f   libucrt:tzset.obj
 0001:00025e72       ?tzset_env_copy_to_tzname@@YAXQB_WQA_WQADI@Z 10026e72 f   libucrt:tzset.obj
 0001:00025eb9       ?tzset_from_environment_nolock@@YAXPA_W@Z 10026eb9 f   libucrt:tzset.obj
 0001:0002614b       ?tzset_from_system_nolock@@YAXXZ 1002714b f   libucrt:tzset.obj
 0001:000262a5       ?tzset_nolock@@YAXXZ       100272a5 f   libucrt:tzset.obj
 0001:0002631b       ?tzset_os_copy_to_tzname@@YAXQB_WQA_WQADI@Z 1002731b f   libucrt:tzset.obj
 0001:00026478       ??$?RV<lambda_03b1d95aef87969028cfba75ccab2455>@@AAV<lambda_6e4b09c48022b2350581041d5f6b0c4c>@@V<lambda_22bdf7517842c4b3e53723af5aa32b9e>@@@?$__crt_seh_guarded_call@X@@QAEX$$QAV<lambda_03b1d95aef87969028cfba75ccab2455>@@AAV<lambda_6e4b09c48022b2350581041d5f6b0c4c>@@$$QAV<lambda_22bdf7517842c4b3e53723af5aa32b9e>@@@Z 10027478 f   libucrt:exit.obj
 0001:000264c5       ??$__acrt_lock_and_call@V<lambda_6e4b09c48022b2350581041d5f6b0c4c>@@@@YAXW4__acrt_lock_id@@$$QAV<lambda_6e4b09c48022b2350581041d5f6b0c4c>@@@Z 100274c5 f   libucrt:exit.obj
 0001:00026562       ??0<lambda_03b1d95aef87969028cfba75ccab2455>@@QAE@ABW4__acrt_lock_id@@@Z 10027562 f   libucrt:exit.obj
 0001:00026574       ??0<lambda_22bdf7517842c4b3e53723af5aa32b9e>@@QAE@ABW4__acrt_lock_id@@@Z 10027574 f   libucrt:exit.obj
 0001:00026586       ??0<lambda_6e4b09c48022b2350581041d5f6b0c4c>@@QAE@ABW4_crt_exit_cleanup_mode@@ABW4_crt_exit_return_mode@@AA_N@Z 10027586 f   libucrt:exit.obj
 0001:000265c9       ??R<lambda_03b1d95aef87969028cfba75ccab2455>@@QBEXXZ 100275c9 f   libucrt:exit.obj
 0001:000265d2       ??R<lambda_22bdf7517842c4b3e53723af5aa32b9e>@@QBEXXZ 100275d2 f   libucrt:exit.obj
 0001:000265db       ??R<lambda_6e4b09c48022b2350581041d5f6b0c4c>@@QBE@XZ 100275db f   libucrt:exit.obj
 0001:000266e4       ?atexit_exception_filter@@YAHK@Z 100276e4 f   libucrt:exit.obj
 0001:00026723       ?common_exit@@YAXHW4_crt_exit_cleanup_mode@@W4_crt_exit_return_mode@@@Z 10027723 f   libucrt:exit.obj
 0001:000267ba       ?exit_or_terminate_process@@YAXI@Z 100277ba f   libucrt:exit.obj
 0001:000267f4       ?is_managed_app@@YA_NXZ    100277f4 f   libucrt:exit.obj
 0001:00026837       ?should_call_terminate_process@@YA_NXZ 10027837 f   libucrt:exit.obj
 0001:00026859       ?try_cor_exit_process@@YAXI@Z 10027859 f   libucrt:exit.obj
 0001:0002698d       ??$common_dupenv_s@D@@YAHQAPADQAIQBDH2H@Z 1002798d f   libucrt:getenv.obj
 0001:000269f2       ??$common_dupenv_s@_W@@YAHQAPA_WQAIQB_WHQBDH@Z 100279f2 f   libucrt:getenv.obj
 0001:00026a57       ??$common_dupenv_s_nolock@D@@YAHQAPADQAIQBDH2H@Z 10027a57 f   libucrt:getenv.obj
 0001:00026afa       ??$common_dupenv_s_nolock@_W@@YAHQAPA_WQAIQB_WHQBDH@Z 10027afa f   libucrt:getenv.obj
 0001:00026ba6       ??$common_getenv@D@@YAPADQBD@Z 10027ba6 f   libucrt:getenv.obj
 0001:00026c25       ??$common_getenv@_W@@YAPA_WQB_W@Z 10027c25 f   libucrt:getenv.obj
 0001:00026ca4       ??$common_getenv_nolock@D@@YAPADQBD@Z 10027ca4 f   libucrt:getenv.obj
 0001:00026d11       ??$common_getenv_nolock@_W@@YAPA_WQB_W@Z 10027d11 f   libucrt:getenv.obj
 0001:00026d95       ??$common_getenv_s@D@@YAHQAIQADIQBD@Z 10027d95 f   libucrt:getenv.obj
 0001:00026df4       ??$common_getenv_s@_W@@YAHQAIQA_WIQB_W@Z 10027df4 f   libucrt:getenv.obj
 0001:00026e53       ??$common_getenv_s_nolock@D@@YAHQAIQADIQBD@Z 10027e53 f   libucrt:getenv.obj
 0001:00026efb       ??$common_getenv_s_nolock@_W@@YAHQAIQA_WIQB_W@Z 10027efb f   libucrt:getenv.obj
 0001:00027367       ??$common_fopen_s@D@@YAHQAPAU_iobuf@@QBD1@Z 10028367 f   libucrt:fopen.obj
 0001:000273ae       ??$common_fopen_s@_W@@YAHQAPAU_iobuf@@QB_W1@Z 100283ae f   libucrt:fopen.obj
 0001:000273f5       ??$common_fsopen@D@@YAPAU_iobuf@@QBD0H@Z 100283f5 f   libucrt:fopen.obj
 0001:000274ac       ??$common_fsopen@_W@@YAPAU_iobuf@@QB_W0H@Z 100284ac f   libucrt:fopen.obj
 0001:0002768d       ??$common_freopen@D@@YAHQAPAU_iobuf@@QBD1V__crt_stdio_stream@@H@Z 1002868d f   libucrt:freopen.obj
 0001:00027795       ??$common_freopen@_W@@YAHQAPAU_iobuf@@QB_W1V__crt_stdio_stream@@H@Z 10028795 f   libucrt:freopen.obj
 0001:00027c02       ??$?RV<lambda_1dd36762653bb5cc831adc02c559755c>@@AAV<lambda_9fb07d2873e768404def6e7ec3f3bd18>@@V<lambda_312d3343bae4ccb789116aa824e5f620>@@@?$__crt_seh_guarded_call@H@@QAEH$$QAV<lambda_1dd36762653bb5cc831adc02c559755c>@@AAV<lambda_9fb07d2873e768404def6e7ec3f3bd18>@@$$QAV<lambda_312d3343bae4ccb789116aa824e5f620>@@@Z 10028c02 f   libucrt:output.obj
 0001:00027c5d       ??$?RV<lambda_268f691db7ba8862576cc41eacd8d3fd>@@AAV<lambda_312b98b6e93f7bd1096efcdba8896847>@@V<lambda_0c72ce5095939d4030d96c58d8cff8d4>@@@?$__crt_seh_guarded_call@H@@QAEH$$QAV<lambda_268f691db7ba8862576cc41eacd8d3fd>@@AAV<lambda_312b98b6e93f7bd1096efcdba8896847>@@$$QAV<lambda_0c72ce5095939d4030d96c58d8cff8d4>@@@Z 10028c5d f   libucrt:output.obj
 0001:00027cb8       ??$?RV<lambda_2786941c813214a8cc5a0ce49a6190e4>@@AAV<lambda_1d6335751f7543f02e9f302c9e987a5a>@@V<lambda_c8e805040e711a9373867320b0cf5708>@@@?$__crt_seh_guarded_call@H@@QAEH$$QAV<lambda_2786941c813214a8cc5a0ce49a6190e4>@@AAV<lambda_1d6335751f7543f02e9f302c9e987a5a>@@$$QAV<lambda_c8e805040e711a9373867320b0cf5708>@@@Z 10028cb8 f   libucrt:output.obj
 0001:00027d13       ??$?RV<lambda_62491a2101a2aba6cc4a769149c84f1f>@@AAV<lambda_826c27fce7726908515bbc79a5266961>@@V<lambda_4e64bbd54b50a7b070e3ea8d795375b6>@@@?$__crt_seh_guarded_call@H@@QAEH$$QAV<lambda_62491a2101a2aba6cc4a769149c84f1f>@@AAV<lambda_826c27fce7726908515bbc79a5266961>@@$$QAV<lambda_4e64bbd54b50a7b070e3ea8d795375b6>@@@Z 10028d13 f   libucrt:output.obj
 0001:00027d6e       ??$?RV<lambda_78cb94d37b94ff79e42a63bc0a4c738b>@@AAV<lambda_fc0a3d1c2b6c3d92d2035d41ea1a5fc2>@@V<lambda_c0cb211e2b6165fb776e03b4a51ce6f0>@@@?$__crt_seh_guarded_call@H@@QAEH$$QAV<lambda_78cb94d37b94ff79e42a63bc0a4c738b>@@AAV<lambda_fc0a3d1c2b6c3d92d2035d41ea1a5fc2>@@$$QAV<lambda_c0cb211e2b6165fb776e03b4a51ce6f0>@@@Z 10028d6e f   libucrt:output.obj
 0001:00027dc9       ??$?RV<lambda_9dace5035c2c94629a3d83f35d2cbf28>@@AAV<lambda_c8ddbc9de0285f54db25fdd0dfe69f61>@@V<lambda_975e2777cf69332657189d5b5f264fbf>@@@?$__crt_seh_guarded_call@H@@QAEH$$QAV<lambda_9dace5035c2c94629a3d83f35d2cbf28>@@AAV<lambda_c8ddbc9de0285f54db25fdd0dfe69f61>@@$$QAV<lambda_975e2777cf69332657189d5b5f264fbf>@@@Z 10028dc9 f   libucrt:output.obj
 0001:00027e24       ??$__acrt_lock_stream_and_call@V<lambda_1d6335751f7543f02e9f302c9e987a5a>@@@@YAHQAU_iobuf@@$$QAV<lambda_1d6335751f7543f02e9f302c9e987a5a>@@@Z 10028e24 f   libucrt:output.obj
 0001:00027e4a       ??$__acrt_lock_stream_and_call@V<lambda_312b98b6e93f7bd1096efcdba8896847>@@@@YAHQAU_iobuf@@$$QAV<lambda_312b98b6e93f7bd1096efcdba8896847>@@@Z 10028e4a f   libucrt:output.obj
 0001:00027e70       ??$__acrt_lock_stream_and_call@V<lambda_826c27fce7726908515bbc79a5266961>@@@@YAHQAU_iobuf@@$$QAV<lambda_826c27fce7726908515bbc79a5266961>@@@Z 10028e70 f   libucrt:output.obj
 0001:00027e96       ??$__acrt_lock_stream_and_call@V<lambda_9fb07d2873e768404def6e7ec3f3bd18>@@@@YAHQAU_iobuf@@$$QAV<lambda_9fb07d2873e768404def6e7ec3f3bd18>@@@Z 10028e96 f   libucrt:output.obj
 0001:00027ebc       ??$__acrt_lock_stream_and_call@V<lambda_c8ddbc9de0285f54db25fdd0dfe69f61>@@@@YAHQAU_iobuf@@$$QAV<lambda_c8ddbc9de0285f54db25fdd0dfe69f61>@@@Z 10028ebc f   libucrt:output.obj
 0001:00027ee2       ??$__acrt_lock_stream_and_call@V<lambda_fc0a3d1c2b6c3d92d2035d41ea1a5fc2>@@@@YAHQAU_iobuf@@$$QAV<lambda_fc0a3d1c2b6c3d92d2035d41ea1a5fc2>@@@Z 10028ee2 f   libucrt:output.obj
 0001:00027f5e       ??$common_vfprintf@Vformat_validation_base@__crt_stdio_output@@D@@YAH_KQAU_iobuf@@QBDAAV__crt_cached_ptd_host@@QAD@Z 10028f5e f   libucrt:output.obj
 0001:00027fd0       ??$common_vfprintf@Vformat_validation_base@__crt_stdio_output@@_W@@YAH_KQAU_iobuf@@QB_WAAV__crt_cached_ptd_host@@QAD@Z 10028fd0 f   libucrt:output.obj
 0001:00028042       ??$common_vfprintf@Vpositional_parameter_base@__crt_stdio_output@@D@@YAH_KQAU_iobuf@@QBDAAV__crt_cached_ptd_host@@QAD@Z 10029042 f   libucrt:output.obj
 0001:000280b4       ??$common_vfprintf@Vpositional_parameter_base@__crt_stdio_output@@_W@@YAH_KQAU_iobuf@@QB_WAAV__crt_cached_ptd_host@@QAD@Z 100290b4 f   libucrt:output.obj
 0001:00028126       ??$common_vfprintf@Vstandard_base@__crt_stdio_output@@D@@YAH_KQAU_iobuf@@QBDAAV__crt_cached_ptd_host@@QAD@Z 10029126 f   libucrt:output.obj
 0001:00028198       ??$common_vfprintf@Vstandard_base@__crt_stdio_output@@_W@@YAH_KQAU_iobuf@@QB_WAAV__crt_cached_ptd_host@@QAD@Z 10029198 f   libucrt:output.obj
 0001:0002820a       ??$common_vsnprintf_s@D@@YAH_KQADIIQBDAAV__crt_cached_ptd_host@@1@Z 1002920a f   libucrt:output.obj
 0001:0002830b       ??$common_vsnprintf_s@_W@@YAH_KQA_WIIQB_WAAV__crt_cached_ptd_host@@QAD@Z 1002930b f   libucrt:output.obj
 0001:0002841d       ??$common_vsprintf@Vformat_validation_base@__crt_stdio_output@@D@@YAH_KQADIQBDAAV__crt_cached_ptd_host@@1@Z 1002941d f   libucrt:output.obj
 0001:00028591       ??$common_vsprintf@Vformat_validation_base@__crt_stdio_output@@_W@@YAH_KQA_WIQB_WAAV__crt_cached_ptd_host@@QAD@Z 10029591 f   libucrt:output.obj
 0001:00028714       ??$common_vsprintf@Vpositional_parameter_base@__crt_stdio_output@@D@@YAH_KQADIQBDAAV__crt_cached_ptd_host@@1@Z 10029714 f   libucrt:output.obj
 0001:000288b1       ??$common_vsprintf@Vpositional_parameter_base@__crt_stdio_output@@_W@@YAH_KQA_WIQB_WAAV__crt_cached_ptd_host@@QAD@Z 100298b1 f   libucrt:output.obj
 0001:00028a5d       ??$common_vsprintf@Vstandard_base@__crt_stdio_output@@D@@YAH_KQADIQBDAAV__crt_cached_ptd_host@@1@Z 10029a5d f   libucrt:output.obj
 0001:00028bd1       ??$common_vsprintf@Vstandard_base@__crt_stdio_output@@_W@@YAH_KQA_WIQB_WAAV__crt_cached_ptd_host@@QAD@Z 10029bd1 f   libucrt:output.obj
 0001:00028d54       ??$common_vsprintf_s@D@@YAH_KQADIQBDAAV__crt_cached_ptd_host@@1@Z 10029d54 f   libucrt:output.obj
 0001:00028df3       ??$common_vsprintf_s@_W@@YAH_KQA_WIQB_WAAV__crt_cached_ptd_host@@QAD@Z 10029df3 f   libucrt:output.obj
 0001:000320a4       ??0<lambda_0c72ce5095939d4030d96c58d8cff8d4>@@QAE@ABQAU_iobuf@@@Z 100330a4 f   libucrt:output.obj
 0001:000320b6       ??0<lambda_1d6335751f7543f02e9f302c9e987a5a>@@QAE@ABQAU_iobuf@@AAV__crt_cached_ptd_host@@AB_KABQB_WABQAD@Z 100330b6 f   libucrt:output.obj
 0001:000320de       ??0<lambda_1dd36762653bb5cc831adc02c559755c>@@QAE@ABQAU_iobuf@@@Z 100330de f   libucrt:output.obj
 0001:000320f0       ??0<lambda_268f691db7ba8862576cc41eacd8d3fd>@@QAE@ABQAU_iobuf@@@Z 100330f0 f   libucrt:output.obj
 0001:00032102       ??0<lambda_2786941c813214a8cc5a0ce49a6190e4>@@QAE@ABQAU_iobuf@@@Z 10033102 f   libucrt:output.obj
 0001:00032114       ??0<lambda_312b98b6e93f7bd1096efcdba8896847>@@QAE@ABQAU_iobuf@@AAV__crt_cached_ptd_host@@AB_KABQBDABQAD@Z 10033114 f   libucrt:output.obj
 0001:0003213c       ??0<lambda_312d3343bae4ccb789116aa824e5f620>@@QAE@ABQAU_iobuf@@@Z 1003313c f   libucrt:output.obj
 0001:0003214e       ??0<lambda_4e64bbd54b50a7b070e3ea8d795375b6>@@QAE@ABQAU_iobuf@@@Z 1003314e f   libucrt:output.obj
 0001:00032160       ??0<lambda_62491a2101a2aba6cc4a769149c84f1f>@@QAE@ABQAU_iobuf@@@Z 10033160 f   libucrt:output.obj
 0001:00032172       ??0<lambda_78cb94d37b94ff79e42a63bc0a4c738b>@@QAE@ABQAU_iobuf@@@Z 10033172 f   libucrt:output.obj
 0001:00032184       ??0<lambda_826c27fce7726908515bbc79a5266961>@@QAE@ABQAU_iobuf@@AAV__crt_cached_ptd_host@@AB_KABQBDABQAD@Z 10033184 f   libucrt:output.obj
 0001:000321ac       ??0<lambda_975e2777cf69332657189d5b5f264fbf>@@QAE@ABQAU_iobuf@@@Z 100331ac f   libucrt:output.obj
 0001:000321be       ??0<lambda_9dace5035c2c94629a3d83f35d2cbf28>@@QAE@ABQAU_iobuf@@@Z 100331be f   libucrt:output.obj
 0001:000321d0       ??0<lambda_9fb07d2873e768404def6e7ec3f3bd18>@@QAE@ABQAU_iobuf@@AAV__crt_cached_ptd_host@@AB_KABQB_WABQAD@Z 100331d0 f   libucrt:output.obj
 0001:000321f8       ??0<lambda_c0cb211e2b6165fb776e03b4a51ce6f0>@@QAE@ABQAU_iobuf@@@Z 100331f8 f   libucrt:output.obj
 0001:0003220a       ??0<lambda_c8ddbc9de0285f54db25fdd0dfe69f61>@@QAE@ABQAU_iobuf@@AAV__crt_cached_ptd_host@@AB_KABQBDABQAD@Z 1003320a f   libucrt:output.obj
 0001:00032232       ??0<lambda_c8e805040e711a9373867320b0cf5708>@@QAE@ABQAU_iobuf@@@Z 10033232 f   libucrt:output.obj
 0001:00032244       ??0<lambda_fc0a3d1c2b6c3d92d2035d41ea1a5fc2>@@QAE@ABQAU_iobuf@@AAV__crt_cached_ptd_host@@AB_KABQB_WABQAD@Z 10033244 f   libucrt:output.obj
 0001:000329b9       ??R<lambda_0c72ce5095939d4030d96c58d8cff8d4>@@QBEXXZ 100339b9 f   libucrt:output.obj
 0001:000329c2       ??R<lambda_1d6335751f7543f02e9f302c9e987a5a>@@QBEHXZ 100339c2 f   libucrt:output.obj
 0001:00032a87       ??R<lambda_1dd36762653bb5cc831adc02c559755c>@@QBEXXZ 10033a87 f   libucrt:output.obj
 0001:00032a90       ??R<lambda_268f691db7ba8862576cc41eacd8d3fd>@@QBEXXZ 10033a90 f   libucrt:output.obj
 0001:00032a99       ??R<lambda_2786941c813214a8cc5a0ce49a6190e4>@@QBEXXZ 10033a99 f   libucrt:output.obj
 0001:00032aa2       ??R<lambda_312b98b6e93f7bd1096efcdba8896847>@@QBEHXZ 10033aa2 f   libucrt:output.obj
 0001:00032b3e       ??R<lambda_312d3343bae4ccb789116aa824e5f620>@@QBEXXZ 10033b3e f   libucrt:output.obj
 0001:00032b47       ??R<lambda_4e64bbd54b50a7b070e3ea8d795375b6>@@QBEXXZ 10033b47 f   libucrt:output.obj
 0001:00032b50       ??R<lambda_62491a2101a2aba6cc4a769149c84f1f>@@QBEXXZ 10033b50 f   libucrt:output.obj
 0001:00032b59       ??R<lambda_78cb94d37b94ff79e42a63bc0a4c738b>@@QBEXXZ 10033b59 f   libucrt:output.obj
 0001:00032b62       ??R<lambda_826c27fce7726908515bbc79a5266961>@@QBEHXZ 10033b62 f   libucrt:output.obj
 0001:00032bfe       ??R<lambda_975e2777cf69332657189d5b5f264fbf>@@QBEXXZ 10033bfe f   libucrt:output.obj
 0001:00032c07       ??R<lambda_9dace5035c2c94629a3d83f35d2cbf28>@@QBEXXZ 10033c07 f   libucrt:output.obj
 0001:00032c10       ??R<lambda_9fb07d2873e768404def6e7ec3f3bd18>@@QBEHXZ 10033c10 f   libucrt:output.obj
 0001:00032cac       ??R<lambda_c0cb211e2b6165fb776e03b4a51ce6f0>@@QBEXXZ 10033cac f   libucrt:output.obj
 0001:00032cb5       ??R<lambda_c8ddbc9de0285f54db25fdd0dfe69f61>@@QBEHXZ 10033cb5 f   libucrt:output.obj
 0001:00032d7a       ??R<lambda_c8e805040e711a9373867320b0cf5708>@@QBEXXZ 10033d7a f   libucrt:output.obj
 0001:00032d83       ??R<lambda_fc0a3d1c2b6c3d92d2035d41ea1a5fc2>@@QBEHXZ 10033d83 f   libucrt:output.obj
 0001:00034644       $LN130                     10035644     libucrt:output.obj
 0001:00034918       $LN111                     10035918     libucrt:output.obj
 0001:00034bc4       $LN120                     10035bc4     libucrt:output.obj
 0001:00034ea4       $LN139                     10035ea4     libucrt:output.obj
 0001:000351a4       $LN121                     100361a4     libucrt:output.obj
 0001:00035478       $LN129                     10036478     libucrt:output.obj
 0001:00035694       $LN111                     10036694     libucrt:output.obj
 0001:000358e8       $LN93                      100368e8     libucrt:output.obj
 0001:00035af8       $LN101                     10036af8     libucrt:output.obj
 0001:00035d48       $LN116                     10036d48     libucrt:output.obj
 0001:00035fb0       $LN98                      10036fb0     libucrt:output.obj
 0001:000361f0       $LN106                     100371f0     libucrt:output.obj
 0001:0003baa9       $LN18                      1003caa9     libucrt:output.obj
 0001:0003babd       $LN17                      1003cabd     libucrt:output.obj
 0001:00041897       ?_aligned_free_base@@YAXPAX@Z 10042897 f   libucrt:align.obj
 0001:000418b1       ?_aligned_malloc_base@@YAPAXII@Z 100428b1 f   libucrt:align.obj
 0001:00041916       ?_aligned_msize_base@@YAIPAXII@Z 10042916 f   libucrt:align.obj
 0001:0004195f       ?_aligned_offset_malloc_base@@YAPAXIII@Z 1004295f f   libucrt:align.obj
 0001:000419e6       ?_aligned_offset_realloc_base@@YAPAXPAXIII@Z 100429e6 f   libucrt:align.obj
 0001:00041be8       ?_aligned_offset_recalloc_base@@YAPAXPAXIIII@Z 10042be8 f   libucrt:align.obj
 0001:00041e84       ?_aligned_realloc_base@@YAPAXPAXII@Z 10042e84 f   libucrt:align.obj
 0001:0004202b       ?_aligned_recalloc_base@@YAPAXPAXIII@Z 1004302b f   libucrt:align.obj
 0001:00042c23       ?_perror_internal@@YAXQBDAAV__crt_cached_ptd_host@@@Z 10043c23 f   libucrt:perror.obj
 0001:00042d60       $$000000                   10043d60     libucrt:pow_sse2_precise.obj
 0001:000438b0       $$000000                   100448b0     libucrt:exp_sse2_precise.obj
 0001:00043ba0       $$000000                   10044ba0     libucrt:87ctrigh.obj
 0001:00043bd0       $$000000                   10044bd0     libucrt:log_sse2_precise.obj
 0001:00043e60       $$000000                   10044e60     libucrt:ceil_pentium4.obj
 0001:00043fb0       ??$?RV<lambda_2866be3712abc81a800a822484c830d8>@@AAV<lambda_39ca0ed439415581b5b15c265174cece>@@V<lambda_2b24c74d71094a6cd0cb82e44167d71b>@@@?$__crt_seh_guarded_call@X@@QAEX$$QAV<lambda_2866be3712abc81a800a822484c830d8>@@AAV<lambda_39ca0ed439415581b5b15c265174cece>@@$$QAV<lambda_2b24c74d71094a6cd0cb82e44167d71b>@@@Z 10044fb0 f   libucrt:fflush.obj
 0001:0004403c       ??$?RV<lambda_2cc53f568c5a2bb6f192f930a45d44ea>@@AAV<lambda_ab61a845afdef5b7c387490eaf3616ee>@@V<lambda_c2ffc0b7726aa6be21d5f0026187e748>@@@?$__crt_seh_guarded_call@X@@QAEX$$QAV<lambda_2cc53f568c5a2bb6f192f930a45d44ea>@@AAV<lambda_ab61a845afdef5b7c387490eaf3616ee>@@$$QAV<lambda_c2ffc0b7726aa6be21d5f0026187e748>@@@Z 1004503c f   libucrt:fflush.obj
 0001:000440e8       ??$?RV<lambda_6d20deecaf4856105ebacbad442d1079>@@AAV<lambda_9a32fed5bf61b6b509b2d3f6003082a1>@@V<lambda_63ea2239ed67c638ddbae41947fdf875>@@@?$__crt_seh_guarded_call@H@@QAEH$$QAV<lambda_6d20deecaf4856105ebacbad442d1079>@@AAV<lambda_9a32fed5bf61b6b509b2d3f6003082a1>@@$$QAV<lambda_63ea2239ed67c638ddbae41947fdf875>@@@Z 100450e8 f   libucrt:fflush.obj
 0001:00044148       ??$__acrt_lock_and_call@V<lambda_ab61a845afdef5b7c387490eaf3616ee>@@@@YAXW4__acrt_lock_id@@$$QAV<lambda_ab61a845afdef5b7c387490eaf3616ee>@@@Z 10045148 f   libucrt:fflush.obj
 0001:0004416e       ??$__acrt_lock_stream_and_call@V<lambda_39ca0ed439415581b5b15c265174cece>@@@@YAXQAU_iobuf@@$$QAV<lambda_39ca0ed439415581b5b15c265174cece>@@@Z 1004516e f   libucrt:fflush.obj
 0001:00044194       ??$__acrt_lock_stream_and_call@V<lambda_9a32fed5bf61b6b509b2d3f6003082a1>@@@@YAHQAU_iobuf@@$$QAV<lambda_9a32fed5bf61b6b509b2d3f6003082a1>@@@Z 10045194 f   libucrt:fflush.obj
 0001:000441ba       ??0<lambda_2866be3712abc81a800a822484c830d8>@@QAE@ABQAU_iobuf@@@Z 100451ba f   libucrt:fflush.obj
 0001:000441cc       ??0<lambda_2b24c74d71094a6cd0cb82e44167d71b>@@QAE@ABQAU_iobuf@@@Z 100451cc f   libucrt:fflush.obj
 0001:000441de       ??0<lambda_2cc53f568c5a2bb6f192f930a45d44ea>@@QAE@ABW4__acrt_lock_id@@@Z 100451de f   libucrt:fflush.obj
 0001:000441f0       ??0<lambda_39ca0ed439415581b5b15c265174cece>@@QAE@ABV__crt_stdio_stream@@AAHAB_N1@Z 100451f0 f   libucrt:fflush.obj
 0001:00044212       ??0<lambda_63ea2239ed67c638ddbae41947fdf875>@@QAE@ABQAU_iobuf@@@Z 10045212 f   libucrt:fflush.obj
 0001:00044224       ??0<lambda_6d20deecaf4856105ebacbad442d1079>@@QAE@ABQAU_iobuf@@@Z 10045224 f   libucrt:fflush.obj
 0001:00044236       ??0<lambda_9a32fed5bf61b6b509b2d3f6003082a1>@@QAE@ABV__crt_stdio_stream@@@Z 10045236 f   libucrt:fflush.obj
 0001:00044246       ??0<lambda_ab61a845afdef5b7c387490eaf3616ee>@@QAE@AAHAB_N0@Z 10045246 f   libucrt:fflush.obj
 0001:00044262       ??0<lambda_c2ffc0b7726aa6be21d5f0026187e748>@@QAE@ABW4__acrt_lock_id@@@Z 10045262 f   libucrt:fflush.obj
 0001:00044284       ??R<lambda_2866be3712abc81a800a822484c830d8>@@QBEXXZ 10045284 f   libucrt:fflush.obj
 0001:0004428d       ??R<lambda_2b24c74d71094a6cd0cb82e44167d71b>@@QBEXXZ 1004528d f   libucrt:fflush.obj
 0001:00044296       ??R<lambda_2cc53f568c5a2bb6f192f930a45d44ea>@@QBEXXZ 10045296 f   libucrt:fflush.obj
 0001:0004429f       ??R<lambda_39ca0ed439415581b5b15c265174cece>@@QBEXXZ 1004529f f   libucrt:fflush.obj
 0001:000442ea       ??R<lambda_63ea2239ed67c638ddbae41947fdf875>@@QBEXXZ 100452ea f   libucrt:fflush.obj
 0001:000442f3       ??R<lambda_6d20deecaf4856105ebacbad442d1079>@@QBEXXZ 100452f3 f   libucrt:fflush.obj
 0001:000442fc       ??R<lambda_9a32fed5bf61b6b509b2d3f6003082a1>@@QBEHXZ 100452fc f   libucrt:fflush.obj
 0001:00044307       ??R<lambda_ab61a845afdef5b7c387490eaf3616ee>@@QBE@XZ 10045307 f   libucrt:fflush.obj
 0001:00044377       ??R<lambda_c2ffc0b7726aa6be21d5f0026187e748>@@QBEXXZ 10045377 f   libucrt:fflush.obj
 0001:00044396       ?_fflush_nolock_internal@@YAHQAU_iobuf@@AAV__crt_cached_ptd_host@@@Z 10045396 f   libucrt:fflush.obj
 0001:000443e2       ?common_flush_all@@YAH_N@Z 100453e2 f   libucrt:fflush.obj
 0001:0004442f       ?common_flush_all_should_try_to_flush_stream@@YA_NV__crt_stdio_stream@@QAH@Z 1004542f f   libucrt:fflush.obj
 0001:0004447a       ?is_stream_allocated@@YA_NJ@Z 1004547a f   libucrt:fflush.obj
 0001:00044489       ?is_stream_flushable@@YA_NJ@Z 10045489 f   libucrt:fflush.obj
 0001:000444a5       ?is_stream_flushable_or_commitable@@YA_NJ@Z 100454a5 f   libucrt:fflush.obj
 0001:00044600       $$000000                   10045600     libucrt:log10_sse2_precise.obj
 0001:000448b0       ?_fclose_internal@@YAHQAU_iobuf@@AAV__crt_cached_ptd_host@@@Z 100458b0 f   libucrt:fclose.obj
 0001:00044947       ?_fclose_nolock_internal@@YAHQAU_iobuf@@AAV__crt_cached_ptd_host@@@Z 10045947 f   libucrt:fclose.obj
 0001:00044d16       _memcpy_s                  10045d16 f   libucrt:fread.obj
 0001:00044d97       ??$?RV<lambda_76055cf4b68c1f980da8b7496a3ae623>@@AAV<lambda_26974eb511f701c600fccfa2a97a8e1b>@@V<lambda_0062726809bb3c529c0733aa37379daf>@@@?$__crt_seh_guarded_call@I@@QAEI$$QAV<lambda_76055cf4b68c1f980da8b7496a3ae623>@@AAV<lambda_26974eb511f701c600fccfa2a97a8e1b>@@$$QAV<lambda_0062726809bb3c529c0733aa37379daf>@@@Z 10045d97 f   libucrt:fwrite.obj
 0001:00044df2       ??$__acrt_lock_stream_and_call@V<lambda_26974eb511f701c600fccfa2a97a8e1b>@@@@YAIQAU_iobuf@@$$QAV<lambda_26974eb511f701c600fccfa2a97a8e1b>@@@Z 10045df2 f   libucrt:fwrite.obj
 0001:00044e18       ??0<lambda_0062726809bb3c529c0733aa37379daf>@@QAE@ABQAU_iobuf@@@Z 10045e18 f   libucrt:fwrite.obj
 0001:00044e2a       ??0<lambda_26974eb511f701c600fccfa2a97a8e1b>@@QAE@ABQAU_iobuf@@AAV__crt_cached_ptd_host@@ABQBXABI3@Z 10045e2a f   libucrt:fwrite.obj
 0001:00044e52       ??0<lambda_76055cf4b68c1f980da8b7496a3ae623>@@QAE@ABQAU_iobuf@@@Z 10045e52 f   libucrt:fwrite.obj
 0001:00044e64       ??R<lambda_0062726809bb3c529c0733aa37379daf>@@QBEXXZ 10045e64 f   libucrt:fwrite.obj
 0001:00044e6d       ??R<lambda_26974eb511f701c600fccfa2a97a8e1b>@@QBEIXZ 10045e6d f   libucrt:fwrite.obj
 0001:00044eb9       ??R<lambda_76055cf4b68c1f980da8b7496a3ae623>@@QBEXXZ 10045eb9 f   libucrt:fwrite.obj
 0001:00045190       $$000000                   10046190     libucrt:atan_sse2_precise.obj
 0001:00045480       $$000000                   10046480     libucrt:floor_pentium4.obj
 0001:000457ae       __get_fname                100467ae f   libucrt:fpexcept.obj
 0001:00045ebe       ?xcptlookup@@YAPAU__crt_signal_action_t@@KQAU1@@Z 10046ebe f   libucrt:exception_filter.obj
 0001:0004607e       ??$common_configure_argv@D@@YAHW4_crt_argv_mode@@@Z 1004707e f   libucrt:argv_parsing.obj
 0001:000461bb       ??$common_configure_argv@_W@@YAHW4_crt_argv_mode@@@Z 100471bb f   libucrt:argv_parsing.obj
 0001:00046327       ??$parse_command_line@D@@YAXPADPAPAD0PAI2@Z 10047327 f   libucrt:argv_parsing.obj
 0001:0004649b       ??$parse_command_line@_W@@YAXPA_WPAPA_W0PAI2@Z 1004749b f   libucrt:argv_parsing.obj
 0001:0004665e       ??0<lambda_a36aafc41185bea294aaaa3896c79ecc>@@QAE@AAV?$__crt_unique_heap_ptr@PA_WU__crt_internal_free_policy@@@@@Z 1004765e f   libucrt:argv_parsing.obj
 0001:0004666e       ??0<lambda_df1553121bfa390f1154bd84936f2730>@@QAE@AAV?$__crt_unique_heap_ptr@PADU__crt_internal_free_policy@@@@@Z 1004766e f   libucrt:argv_parsing.obj
 0001:000466eb       ??R<lambda_a36aafc41185bea294aaaa3896c79ecc>@@QBEHXZ 100476eb f   libucrt:argv_parsing.obj
 0001:00046701       ??R<lambda_df1553121bfa390f1154bd84936f2730>@@QBEHXZ 10047701 f   libucrt:argv_parsing.obj
 0001:00046729       ?do_locale_initialization@@YAXD@Z 10047729 f   libucrt:argv_parsing.obj
 0001:0004672e       ?do_locale_initialization@@YAX_W@Z 1004772e f   libucrt:argv_parsing.obj
 0001:00046731       ?expand_argv_wildcards@@YAHQAPADQAPAPAD@Z 10047731 f   libucrt:argv_parsing.obj
 0001:0004673c       ?expand_argv_wildcards@@YAHQAPA_WQAPAPA_W@Z 1004773c f   libucrt:argv_parsing.obj
 0001:00046756       ?get_argv@@YAAAPAPADD@Z    10047756 f   libucrt:argv_parsing.obj
 0001:0004675c       ?get_argv@@YAAAPAPA_W_W@Z  1004775c f   libucrt:argv_parsing.obj
 0001:00046762       ?get_command_line@@YAPADD@Z 10047762 f   libucrt:argv_parsing.obj
 0001:00046768       ?get_command_line@@YAPA_W_W@Z 10047768 f   libucrt:argv_parsing.obj
 0001:000467ab       ?should_copy_another_character@@YA_ND@Z 100477ab f   libucrt:argv_parsing.obj
 0001:000467c2       ?should_copy_another_character@@YA_N_W@Z 100477c2 f   libucrt:argv_parsing.obj
 0001:00046848       ??$common_get_initial_environment@D@@YAPAPADXZ 10047848 f   libucrt:environment_initialization.obj
 0001:0004685c       ??$common_get_initial_environment@_W@@YAPAPA_WXZ 1004785c f   libucrt:environment_initialization.obj
 0001:00046870       ??$common_get_or_create_environment_nolock@D@@YAPAPADXZ 10047870 f   libucrt:environment_initialization.obj
 0001:0004689c       ??$common_get_or_create_environment_nolock@_W@@YAPAPA_WXZ 1004789c f   libucrt:environment_initialization.obj
 0001:000468c8       ??$common_initialize_environment_nolock@D@@YAHXZ 100478c8 f   libucrt:environment_initialization.obj
 0001:00046922       ??$common_initialize_environment_nolock@_W@@YAHXZ 10047922 f   libucrt:environment_initialization.obj
 0001:00046977       ??$count_variables_in_environment_block@D@@YA?BIQAD@Z 10047977 f   libucrt:environment_initialization.obj
 0001:000469ab       ??$count_variables_in_environment_block@_W@@YA?BIQA_W@Z 100479ab f   libucrt:environment_initialization.obj
 0001:000469f4       ??$create_environment@D@@YAQAPADQAD@Z 100479f4 f   libucrt:environment_initialization.obj
 0001:00046ad6       ??$create_environment@_W@@YAQAPA_WQA_W@Z 10047ad6 f   libucrt:environment_initialization.obj
 0001:00046bf4       ??$free_environment@D@@YAXQAPAD@Z 10047bf4 f   libucrt:environment_initialization.obj
 0001:00046c23       ??$free_environment@_W@@YAXQAPA_W@Z 10047c23 f   libucrt:environment_initialization.obj
 0001:00046c5c       ??$initialize_environment_by_cloning_nolock@D@@YAHXZ 10047c5c f   libucrt:environment_initialization.obj
 0001:00046cdf       ??$initialize_environment_by_cloning_nolock@_W@@YAHXZ 10047cdf f   libucrt:environment_initialization.obj
 0001:00046e7c       ??$uninitialize_environment_internal@D@@YAXAAPAPAD@Z 10047e7c f   libucrt:environment_initialization.obj
 0001:00046e97       ??$uninitialize_environment_internal@_W@@YAXAAPAPA_W@Z 10047e97 f   libucrt:environment_initialization.obj
 0001:00046f41       ?get_dual_state_environment_nolock@@YAAAV?$dual_state_global@PAPAD@__crt_state_management@@D@Z 10047f41 f   libucrt:environment_initialization.obj
 0001:00046f47       ?get_dual_state_environment_nolock@@YAAAV?$dual_state_global@PAPA_W@__crt_state_management@@_W@Z 10047f47 f   libucrt:environment_initialization.obj
 0001:00046f4d       ?get_environment_nolock@@YAAAPAPADD@Z 10047f4d f   libucrt:environment_initialization.obj
 0001:00046f53       ?get_environment_nolock@@YAAAPAPA_W_W@Z 10047f53 f   libucrt:environment_initialization.obj
 0001:00046f59       ?get_initial_environment@@YAAAPAPADD@Z 10047f59 f   libucrt:environment_initialization.obj
 0001:00046f5f       ?get_initial_environment@@YAAAPAPA_W_W@Z 10047f5f f   libucrt:environment_initialization.obj
 0001:00046fab       ?pre_initialize@@YAXD@Z    10047fab f   libucrt:environment_initialization.obj
 0001:00046fb0       ?pre_initialize@@YAX_W@Z   10047fb0 f   libucrt:environment_initialization.obj
 0001:0004706a       ??$?RV<lambda_69a2805e680e0e292e8ba93315fe43a8>@@AAV<lambda_f03950bc5685219e0bcd2087efbe011e>@@V<lambda_03fcd07e894ec930e3f35da366ca99d6>@@@?$__crt_seh_guarded_call@H@@QAEH$$QAV<lambda_69a2805e680e0e292e8ba93315fe43a8>@@AAV<lambda_f03950bc5685219e0bcd2087efbe011e>@@$$QAV<lambda_03fcd07e894ec930e3f35da366ca99d6>@@@Z 1004806a f   libucrt:onexit.obj
 0001:000470c5       ??$?RV<lambda_8e746cf0007f6ed984d6f78af1fec997>@@AAV<lambda_22ebabd17bc4fa466a2aca6d8deb888d>@@V<lambda_18ed0c0b38a6dc0daf1e7ac6d6adf05e>@@@?$__crt_seh_guarded_call@H@@QAEH$$QAV<lambda_8e746cf0007f6ed984d6f78af1fec997>@@AAV<lambda_22ebabd17bc4fa466a2aca6d8deb888d>@@$$QAV<lambda_18ed0c0b38a6dc0daf1e7ac6d6adf05e>@@@Z 100480c5 f   libucrt:onexit.obj
 0001:00047120       ??$__acrt_lock_and_call@V<lambda_22ebabd17bc4fa466a2aca6d8deb888d>@@@@YAHW4__acrt_lock_id@@$$QAV<lambda_22ebabd17bc4fa466a2aca6d8deb888d>@@@Z 10048120 f   libucrt:onexit.obj
 0001:00047146       ??$__acrt_lock_and_call@V<lambda_f03950bc5685219e0bcd2087efbe011e>@@@@YAHW4__acrt_lock_id@@$$QAV<lambda_f03950bc5685219e0bcd2087efbe011e>@@@Z 10048146 f   libucrt:onexit.obj
 0001:00047224       ??0<lambda_03fcd07e894ec930e3f35da366ca99d6>@@QAE@ABW4__acrt_lock_id@@@Z 10048224 f   libucrt:onexit.obj
 0001:00047236       ??0<lambda_18ed0c0b38a6dc0daf1e7ac6d6adf05e>@@QAE@ABW4__acrt_lock_id@@@Z 10048236 f   libucrt:onexit.obj
 0001:00047248       ??0<lambda_22ebabd17bc4fa466a2aca6d8deb888d>@@QAE@ABQAU_onexit_table_t@@ABQ6AHXZ@Z 10048248 f   libucrt:onexit.obj
 0001:0004725e       ??0<lambda_69a2805e680e0e292e8ba93315fe43a8>@@QAE@ABW4__acrt_lock_id@@@Z 1004825e f   libucrt:onexit.obj
 0001:00047270       ??0<lambda_8e746cf0007f6ed984d6f78af1fec997>@@QAE@ABW4__acrt_lock_id@@@Z 10048270 f   libucrt:onexit.obj
 0001:00047282       ??0<lambda_f03950bc5685219e0bcd2087efbe011e>@@QAE@ABQAU_onexit_table_t@@@Z 10048282 f   libucrt:onexit.obj
 0001:000472b7       ??R<lambda_03fcd07e894ec930e3f35da366ca99d6>@@QBEXXZ 100482b7 f   libucrt:onexit.obj
 0001:000472c0       ??R<lambda_18ed0c0b38a6dc0daf1e7ac6d6adf05e>@@QBEXXZ 100482c0 f   libucrt:onexit.obj
 0001:000472c9       ??R<lambda_22ebabd17bc4fa466a2aca6d8deb888d>@@QBEHXZ 100482c9 f   libucrt:onexit.obj
 0001:000473cb       ??R<lambda_69a2805e680e0e292e8ba93315fe43a8>@@QBEXXZ 100483cb f   libucrt:onexit.obj
 0001:000473d4       ??R<lambda_8e746cf0007f6ed984d6f78af1fec997>@@QBEXXZ 100483d4 f   libucrt:onexit.obj
 0001:000473dd       ??R<lambda_f03950bc5685219e0bcd2087efbe011e>@@QBEHXZ 100483dd f   libucrt:onexit.obj
 0001:00047595       _initialize_global_variables 10048595 f   libucrt:initialization.obj
 0001:000475a2       _initialize_c              100485a2 f   libucrt:initialization.obj
 0001:000475bc       _uninitialize_c            100485bc f   libucrt:initialization.obj
 0001:000475bf       _initialize_environment    100485bf f   libucrt:initialization.obj
 0001:000475c2       _uninitialize_environment  100485c2 f   libucrt:initialization.obj
 0001:000475ca       _initialize_global_state_isolation 100485ca f   libucrt:initialization.obj
 0001:000475cd       _uninitialize_global_state_isolation 100485cd f   libucrt:initialization.obj
 0001:000475d0       _initialize_pointers       100485d0 f   libucrt:initialization.obj
 0001:000475fe       _uninitialize_vcruntime    100485fe f   libucrt:initialization.obj
 0001:00047607       _uninitialize_allocated_memory 10048607 f   libucrt:initialization.obj
 0001:0004761e       _uninitialize_allocated_io_buffers 1004861e f   libucrt:initialization.obj
 0001:0004766e       _report_memory_leaks       1004866e f   libucrt:initialization.obj
 0001:00047696       ??$uninitialize@V<lambda_af42a3ee9806e9a7305d451646e05244>@@@?$dual_state_global@PAU__crt_multibyte_data@@@__crt_state_management@@QAEX$$QAV<lambda_af42a3ee9806e9a7305d451646e05244>@@@Z 10048696 f   libucrt:initialization.obj
 0001:000476ba       ??R<lambda_af42a3ee9806e9a7305d451646e05244>@@QBEXAAPAU__crt_multibyte_data@@@Z 100486ba f   libucrt:initialization.obj
 0001:00047776       ?get_terminate_or_default@@YAP6AXXZQBU__acrt_ptd@@@Z 10048776 f   libucrt:terminate.obj
 0001:00047810       ?write_binary_nolock@@YA?AUwrite_result@?A0x17268360@@HQBDI@Z 10048810 f   libucrt:write.obj
 0001:0004785f       ?write_double_translated_ansi_nolock@@YA?AUwrite_result@?A0x17268360@@HQBDIAAV__crt_cached_ptd_host@@@Z 1004885f f   libucrt:write.obj
 0001:00047c31       ?write_double_translated_unicode_nolock@@YA?AUwrite_result@?A0x17268360@@QBDI@Z 10048c31 f   libucrt:write.obj
 0001:00047c99       ?write_requires_double_translation_nolock@@YA_NHAAV__crt_cached_ptd_host@@@Z 10048c99 f   libucrt:write.obj
 0001:00047d17       ?write_text_ansi_nolock@@YA?AUwrite_result@?A0x17268360@@HQBDI@Z 10048d17 f   libucrt:write.obj
 0001:00047df2       ?write_text_utf16le_nolock@@YA?AUwrite_result@?A0x17268360@@HQBDI@Z 10048df2 f   libucrt:write.obj
 0001:00047edb       ?write_text_utf8_nolock@@YA?AUwrite_result@?A0x17268360@@HQBDI@Z 10048edb f   libucrt:write.obj
 0001:0004837b       ??$common_tcscpy_s@D@@YAHQADIQBD@Z 1004937b f   libucrt:strcpy_s.obj
 0001:00049cd0       $$000000                   1004acd0     libucrt:strncmp.obj
 0001:00049d90       $$000000                   1004ad90     libucrt:cos_impl.obj
 0001:00049e80       $$000000                   1004ae80     libucrt:sin_impl.obj
 0001:0004a180       $$000000                   1004b180     libucrt:sqrt.obj
 0001:0004a504       ?get_drive_number_from_path@@YAHQB_W@Z 1004b504 f   libucrt:drive.obj
 0001:0004a78d       ?select_heap@@YAPAXQAX@Z   1004b78d f   libucrt:free_base.obj
 0001:0004ad91       ??$common_fullpath@D@@YAPADQADQBDIH1H@Z 1004bd91 f   libucrt:fullpath.obj
 0001:0004ae31       ??$common_fullpath@_W@@YAPA_WQA_WQB_WIHQBDH@Z 1004be31 f   libucrt:fullpath.obj
 0001:0004b365       _memcpy_s                  1004c365 f   libucrt:fullpath.obj
 0001:0004b5dc       ?filter_mbtowcs_flags@@YAKIK@Z 1004c5dc f   libucrt:multibytetowidechar.obj
 0001:0004b6d2       ??$?RV<lambda_15ade71b0218206bbe3333a0c9b79046>@@AAV<lambda_da44e0f8b0f19ba52fefafb335991732>@@V<lambda_207f2d024fc103971653565357d6cd41>@@@?$__crt_seh_guarded_call@X@@QAEX$$QAV<lambda_15ade71b0218206bbe3333a0c9b79046>@@AAV<lambda_da44e0f8b0f19ba52fefafb335991732>@@$$QAV<lambda_207f2d024fc103971653565357d6cd41>@@@Z 1004c6d2 f   libucrt:per_thread_data.obj
 0001:0004b724       ??$?RV<lambda_38edbb1296d33220d7e4dd0ed76b244a>@@AAV<lambda_5ce1d447e08cb34b2473517608e21441>@@V<lambda_fb385d3da700c9147fc39e65dd577a8c>@@@?$__crt_seh_guarded_call@X@@QAEX$$QAV<lambda_38edbb1296d33220d7e4dd0ed76b244a>@@AAV<lambda_5ce1d447e08cb34b2473517608e21441>@@$$QAV<lambda_fb385d3da700c9147fc39e65dd577a8c>@@@Z 1004c724 f   libucrt:per_thread_data.obj
 0001:0004b78f       ??$?RV<lambda_6affb1475c98b40b75cdec977db92e3c>@@AAV<lambda_b8d4b9c228a6ecc3f80208dbb4b4a104>@@V<lambda_608742c3c92a14382c1684fc64f96c88>@@@?$__crt_seh_guarded_call@X@@QAEX$$QAV<lambda_6affb1475c98b40b75cdec977db92e3c>@@AAV<lambda_b8d4b9c228a6ecc3f80208dbb4b4a104>@@$$QAV<lambda_608742c3c92a14382c1684fc64f96c88>@@@Z 1004c78f f   libucrt:per_thread_data.obj
 0001:0004b7e4       ??$?RV<lambda_a7e850c220f1c8d1e6efeecdedd162c6>@@AAV<lambda_46720907175c18b6c9d2717bc0d2d362>@@V<lambda_9048902d66e8d99359bc9897bbb930a8>@@@?$__crt_seh_guarded_call@X@@QAEX$$QAV<lambda_a7e850c220f1c8d1e6efeecdedd162c6>@@AAV<lambda_46720907175c18b6c9d2717bc0d2d362>@@$$QAV<lambda_9048902d66e8d99359bc9897bbb930a8>@@@Z 1004c7e4 f   libucrt:per_thread_data.obj
 0001:0004b83e       ??$__acrt_lock_and_call@V<lambda_46720907175c18b6c9d2717bc0d2d362>@@@@YAXW4__acrt_lock_id@@$$QAV<lambda_46720907175c18b6c9d2717bc0d2d362>@@@Z 1004c83e f   libucrt:per_thread_data.obj
 0001:0004b864       ??$__acrt_lock_and_call@V<lambda_5ce1d447e08cb34b2473517608e21441>@@@@YAXW4__acrt_lock_id@@$$QAV<lambda_5ce1d447e08cb34b2473517608e21441>@@@Z 1004c864 f   libucrt:per_thread_data.obj
 0001:0004b88a       ??$__acrt_lock_and_call@V<lambda_b8d4b9c228a6ecc3f80208dbb4b4a104>@@@@YAXW4__acrt_lock_id@@$$QAV<lambda_b8d4b9c228a6ecc3f80208dbb4b4a104>@@@Z 1004c88a f   libucrt:per_thread_data.obj
 0001:0004b8b0       ??$__acrt_lock_and_call@V<lambda_da44e0f8b0f19ba52fefafb335991732>@@@@YAXW4__acrt_lock_id@@$$QAV<lambda_da44e0f8b0f19ba52fefafb335991732>@@@Z 1004c8b0 f   libucrt:per_thread_data.obj
 0001:0004b8d6       ??0<lambda_15ade71b0218206bbe3333a0c9b79046>@@QAE@ABW4__acrt_lock_id@@@Z 1004c8d6 f   libucrt:per_thread_data.obj
 0001:0004b8e8       ??0<lambda_207f2d024fc103971653565357d6cd41>@@QAE@ABW4__acrt_lock_id@@@Z 1004c8e8 f   libucrt:per_thread_data.obj
 0001:0004b8fa       ??0<lambda_38edbb1296d33220d7e4dd0ed76b244a>@@QAE@ABW4__acrt_lock_id@@@Z 1004c8fa f   libucrt:per_thread_data.obj
 0001:0004b90c       ??0<lambda_46720907175c18b6c9d2717bc0d2d362>@@QAE@ABQAU__acrt_ptd@@ABQAPAU__crt_locale_data@@@Z 1004c90c f   libucrt:per_thread_data.obj
 0001:0004b922       ??0<lambda_5ce1d447e08cb34b2473517608e21441>@@QAE@ABQAU__acrt_ptd@@@Z 1004c922 f   libucrt:per_thread_data.obj
 0001:0004b932       ??0<lambda_608742c3c92a14382c1684fc64f96c88>@@QAE@ABW4__acrt_lock_id@@@Z 1004c932 f   libucrt:per_thread_data.obj
 0001:0004b944       ??0<lambda_6affb1475c98b40b75cdec977db92e3c>@@QAE@ABW4__acrt_lock_id@@@Z 1004c944 f   libucrt:per_thread_data.obj
 0001:0004b956       ??0<lambda_9048902d66e8d99359bc9897bbb930a8>@@QAE@ABW4__acrt_lock_id@@@Z 1004c956 f   libucrt:per_thread_data.obj
 0001:0004b968       ??0<lambda_a7e850c220f1c8d1e6efeecdedd162c6>@@QAE@ABW4__acrt_lock_id@@@Z 1004c968 f   libucrt:per_thread_data.obj
 0001:0004b97a       ??0<lambda_b8d4b9c228a6ecc3f80208dbb4b4a104>@@QAE@ABQAU__acrt_ptd@@@Z 1004c97a f   libucrt:per_thread_data.obj
 0001:0004b98a       ??0<lambda_da44e0f8b0f19ba52fefafb335991732>@@QAE@ABQAU__acrt_ptd@@@Z 1004c98a f   libucrt:per_thread_data.obj
 0001:0004b99a       ??0<lambda_fb385d3da700c9147fc39e65dd577a8c>@@QAE@ABW4__acrt_lock_id@@@Z 1004c99a f   libucrt:per_thread_data.obj
 0001:0004b9d5       ??R<lambda_15ade71b0218206bbe3333a0c9b79046>@@QBEXXZ 1004c9d5 f   libucrt:per_thread_data.obj
 0001:0004b9de       ??R<lambda_207f2d024fc103971653565357d6cd41>@@QBEXXZ 1004c9de f   libucrt:per_thread_data.obj
 0001:0004b9e7       ??R<lambda_38edbb1296d33220d7e4dd0ed76b244a>@@QBEXXZ 1004c9e7 f   libucrt:per_thread_data.obj
 0001:0004b9f0       ??R<lambda_46720907175c18b6c9d2717bc0d2d362>@@QBEXXZ 1004c9f0 f   libucrt:per_thread_data.obj
 0001:0004ba03       ??R<lambda_5ce1d447e08cb34b2473517608e21441>@@QBEXXZ 1004ca03 f   libucrt:per_thread_data.obj
 0001:0004ba27       ??R<lambda_608742c3c92a14382c1684fc64f96c88>@@QBEXXZ 1004ca27 f   libucrt:per_thread_data.obj
 0001:0004ba30       ??R<lambda_6affb1475c98b40b75cdec977db92e3c>@@QBEXXZ 1004ca30 f   libucrt:per_thread_data.obj
 0001:0004ba39       ??R<lambda_9048902d66e8d99359bc9897bbb930a8>@@QBEXXZ 1004ca39 f   libucrt:per_thread_data.obj
 0001:0004ba42       ??R<lambda_a7e850c220f1c8d1e6efeecdedd162c6>@@QBEXXZ 1004ca42 f   libucrt:per_thread_data.obj
 0001:0004ba4b       ??R<lambda_b8d4b9c228a6ecc3f80208dbb4b4a104>@@QBEXXZ 1004ca4b f   libucrt:per_thread_data.obj
 0001:0004ba59       ??R<lambda_da44e0f8b0f19ba52fefafb335991732>@@QBEXXZ 1004ca59 f   libucrt:per_thread_data.obj
 0001:0004ba64       ??R<lambda_fb385d3da700c9147fc39e65dd577a8c>@@QBEXXZ 1004ca64 f   libucrt:per_thread_data.obj
 0001:0004ba6d       ?construct_ptd@@YAXQAU__acrt_ptd@@QAPAU__crt_locale_data@@@Z 1004ca6d f   libucrt:per_thread_data.obj
 0001:0004bb06       ?construct_ptd_array@@YAXQAU__acrt_ptd@@@Z 1004cb06 f   libucrt:per_thread_data.obj
 0001:0004bb1f       ?destroy_fls@@YGXPAX@Z     1004cb1f f   libucrt:per_thread_data.obj
 0001:0004bb40       ?destroy_ptd@@YAXQAU__acrt_ptd@@@Z 1004cb40 f   libucrt:per_thread_data.obj
 0001:0004bc0d       ?destroy_ptd_array@@YAXQAU__acrt_ptd@@@Z 1004cc0d f   libucrt:per_thread_data.obj
 0001:0004bc1b       ?internal_get_ptd_head@@YAPAU__acrt_ptd@@XZ 1004cc1b f   libucrt:per_thread_data.obj
 0001:0004bcad       ?internal_getptd_noexit@@YAPAU__acrt_ptd@@ABV__crt_scoped_get_last_error_reset@@I@Z 1004ccad f   libucrt:per_thread_data.obj
 0001:0004bd4c       ?internal_getptd_noexit@@YAPAU__acrt_ptd@@XZ 1004cd4c f   libucrt:per_thread_data.obj
 0001:0004be16       ?replace_current_thread_locale_nolock@@YAXQAU__acrt_ptd@@QAU__crt_locale_data@@@Z 1004ce16 f   libucrt:per_thread_data.obj
 0001:0004be61       ?try_get_ptd_head@@YAPAU__acrt_ptd@@XZ 1004ce61 f   libucrt:per_thread_data.obj
 0001:0004c19e       ?<lambda_invoker_stdcall>@<lambda_29d3c280b90b41c2ae070ffca879996a>@@CGHPA_W@Z 1004d19e f   libucrt:winapi_thunks.obj
 0001:0004c1b1       ??$?RV<lambda_6b4b7855443974f2b4b77000ea21c99c>@@AAV<lambda_8f7d3b162ab39427f4fa9995c67a7986>@@V<lambda_cc9a5ba8a5d8428b9634eab82665e5dc>@@@?$__crt_seh_guarded_call@H@@QAEH$$QAV<lambda_6b4b7855443974f2b4b77000ea21c99c>@@AAV<lambda_8f7d3b162ab39427f4fa9995c67a7986>@@$$QAV<lambda_cc9a5ba8a5d8428b9634eab82665e5dc>@@@Z 1004d1b1 f   libucrt:winapi_thunks.obj
 0001:0004c22d       ??$__acrt_lock_and_call@V<lambda_8f7d3b162ab39427f4fa9995c67a7986>@@@@YAHW4__acrt_lock_id@@$$QAV<lambda_8f7d3b162ab39427f4fa9995c67a7986>@@@Z 1004d22d f   libucrt:winapi_thunks.obj
 0001:0004c29e       ??0<lambda_6b4b7855443974f2b4b77000ea21c99c>@@QAE@ABW4__acrt_lock_id@@@Z 1004d29e f   libucrt:winapi_thunks.obj
 0001:0004c2b0       ??0<lambda_8f7d3b162ab39427f4fa9995c67a7986>@@QAE@ABQ6GHPA_WKJ@Z@Z 1004d2b0 f   libucrt:winapi_thunks.obj
 0001:0004c2c0       ??0<lambda_cc9a5ba8a5d8428b9634eab82665e5dc>@@QAE@ABW4__acrt_lock_id@@@Z 1004d2c0 f   libucrt:winapi_thunks.obj
 0001:0004c2d2       ??B<lambda_29d3c280b90b41c2ae070ffca879996a>@@QBEP6GHPA_W@ZXZ 1004d2d2 f   libucrt:winapi_thunks.obj
 0001:0004c2d8       ??R<lambda_29d3c280b90b41c2ae070ffca879996a>@@QBEHPA_W@Z 1004d2d8 f   libucrt:winapi_thunks.obj
 0001:0004c307       ??R<lambda_6b4b7855443974f2b4b77000ea21c99c>@@QBEXXZ 1004d307 f   libucrt:winapi_thunks.obj
 0001:0004c310       ??R<lambda_8f7d3b162ab39427f4fa9995c67a7986>@@QBEHXZ 1004d310 f   libucrt:winapi_thunks.obj
 0001:0004c339       ??R<lambda_cc9a5ba8a5d8428b9634eab82665e5dc>@@QBEXXZ 1004d339 f   libucrt:winapi_thunks.obj
 0001:0004c342       ?enum_system_locales_ex_nolock@@YAHQ6GHPA_WKJ@Z@Z 1004d342 f   libucrt:winapi_thunks.obj
 0001:0004c370       ?invalid_function_sentinel@@YAPAXXZ 1004d370 f   libucrt:winapi_thunks.obj
 0001:0004c374       ?try_get_AppPolicyGetProcessTerminationMethod@@YAP6GJPAXPAW4AppPolicyProcessTerminationMethod@@@ZXZ 1004d374 f   libucrt:winapi_thunks.obj
 0001:0004c38e       ?try_get_AppPolicyGetShowDeveloperDiagnostic@@YAP6GJPAXPAW4AppPolicyShowDeveloperDiagnostic@@@ZXZ 1004d38e f   libucrt:winapi_thunks.obj
 0001:0004c3a8       ?try_get_AppPolicyGetThreadInitializationType@@YAP6GJPAXPAW4AppPolicyThreadInitializationType@@@ZXZ 1004d3a8 f   libucrt:winapi_thunks.obj
 0001:0004c3c2       ?try_get_AppPolicyGetWindowingModel@@YAP6GJPAXPAW4AppPolicyWindowingModel@@@ZXZ 1004d3c2 f   libucrt:winapi_thunks.obj
 0001:0004c3dc       ?try_get_AreFileApisANSI@@YAP6GHXZXZ 1004d3dc f   libucrt:winapi_thunks.obj
 0001:0004c3f6       ?try_get_CompareStringEx@@YAP6GHPB_WK0H0HPAU_nlsversioninfo@@PAXJ@ZXZ 1004d3f6 f   libucrt:winapi_thunks.obj
 0001:0004c410       ?try_get_EnumSystemLocalesEx@@YAP6GHP6GHPA_WKJ@ZKJPAX@ZXZ 1004d410 f   libucrt:winapi_thunks.obj
 0001:0004c42a       ?try_get_FlsAlloc@@YAP6GKP6GXPAX@Z@ZXZ 1004d42a f   libucrt:winapi_thunks.obj
 0001:0004c444       ?try_get_FlsFree@@YAP6GHK@ZXZ 1004d444 f   libucrt:winapi_thunks.obj
 0001:0004c45e       ?try_get_FlsGetValue@@YAP6GPAXK@ZXZ 1004d45e f   libucrt:winapi_thunks.obj
 0001:0004c478       ?try_get_FlsSetValue@@YAP6GHKPAX@ZXZ 1004d478 f   libucrt:winapi_thunks.obj
 0001:0004c492       ?try_get_GetActiveWindow@@YAP6GPAUHWND__@@XZXZ 1004d492 f   libucrt:winapi_thunks.obj
 0001:0004c4ac       ?try_get_GetDateFormatEx@@YAP6GHPB_WKPBU_SYSTEMTIME@@0PA_WH0@ZXZ 1004d4ac f   libucrt:winapi_thunks.obj
 0001:0004c4c6       ?try_get_GetEnabledXStateFeatures@@YAP6G_KXZXZ 1004d4c6 f   libucrt:winapi_thunks.obj
 0001:0004c4e0       ?try_get_GetLastActivePopup@@YAP6GPAUHWND__@@PAU1@@ZXZ 1004d4e0 f   libucrt:winapi_thunks.obj
 0001:0004c4fa       ?try_get_GetLocaleInfoEx@@YAP6GHPB_WKPA_WH@ZXZ 1004d4fa f   libucrt:winapi_thunks.obj
 0001:0004c514       ?try_get_GetProcessWindowStation@@YAP6GPAUHWINSTA__@@XZXZ 1004d514 f   libucrt:winapi_thunks.obj
 0001:0004c52e       ?try_get_GetSystemTimePreciseAsFileTime@@YAP6GXPAU_FILETIME@@@ZXZ 1004d52e f   libucrt:winapi_thunks.obj
 0001:0004c548       ?try_get_GetTimeFormatEx@@YAP6GHPB_WKPBU_SYSTEMTIME@@0PA_WH@ZXZ 1004d548 f   libucrt:winapi_thunks.obj
 0001:0004c562       ?try_get_GetUserDefaultLocaleName@@YAP6GHPA_WH@ZXZ 1004d562 f   libucrt:winapi_thunks.obj
 0001:0004c57c       ?try_get_GetUserObjectInformationW@@YAP6GHPAXH0KPAK@ZXZ 1004d57c f   libucrt:winapi_thunks.obj
 0001:0004c596       ?try_get_GetXStateFeaturesMask@@YAP6GHPAU_CONTEXT@@PA_K@ZXZ 1004d596 f   libucrt:winapi_thunks.obj
 0001:0004c5b0       ?try_get_InitializeCriticalSectionEx@@YAP6GHPAU_RTL_CRITICAL_SECTION@@KK@ZXZ 1004d5b0 f   libucrt:winapi_thunks.obj
 0001:0004c5ca       ?try_get_IsValidLocaleName@@YAP6GHPB_W@ZXZ 1004d5ca f   libucrt:winapi_thunks.obj
 0001:0004c5e4       ?try_get_LCIDToLocaleName@@YAP6GHKPA_WHK@ZXZ 1004d5e4 f   libucrt:winapi_thunks.obj
 0001:0004c5fe       ?try_get_LCMapStringEx@@YAP6GHPB_WK0HPA_WHPAU_nlsversioninfo@@PAXJ@ZXZ 1004d5fe f   libucrt:winapi_thunks.obj
 0001:0004c618       ?try_get_LocaleNameToLCID@@YAP6GKPB_WK@ZXZ 1004d618 f   libucrt:winapi_thunks.obj
 0001:0004c632       ?try_get_LocateXStateFeature@@YAP6GPAXPAU_CONTEXT@@KPAK@ZXZ 1004d632 f   libucrt:winapi_thunks.obj
 0001:0004c64c       ?try_get_MessageBoxA@@YAP6GHPAUHWND__@@PBD1I@ZXZ 1004d64c f   libucrt:winapi_thunks.obj
 0001:0004c666       ?try_get_MessageBoxW@@YAP6GHPAUHWND__@@PB_W1I@ZXZ 1004d666 f   libucrt:winapi_thunks.obj
 0001:0004c680       ?try_get_RoInitialize@@YAP6GJW4RO_INIT_TYPE@@@ZXZ 1004d680 f   libucrt:winapi_thunks.obj
 0001:0004c69a       ?try_get_RoUninitialize@@YAP6GXXZXZ 1004d69a f   libucrt:winapi_thunks.obj
 0001:0004c6b4       ?try_get_SetThreadStackGuarantee@@YAP6GHPAK@ZXZ 1004d6b4 f   libucrt:winapi_thunks.obj
 0001:0004c6ce       ?try_get_SystemFunction036@@YAP6GEPAXK@ZXZ 1004d6ce f   libucrt:winapi_thunks.obj
 0001:0004c6e8       ?try_get_first_available_module@@YAPAUHINSTANCE__@@QBW4module_id@?A0x391cf84c@@0@Z 1004d6e8 f   libucrt:winapi_thunks.obj
 0001:0004c7b3       ?try_get_function@@YAPAXW4function_id@?A0x391cf84c@@QBDQBW4module_id@2@2@Z 1004d7b3 f   libucrt:winapi_thunks.obj
 0001:0004c836       ?try_get_module@@YAPAUHINSTANCE__@@W4module_id@?A0x391cf84c@@@Z 1004d836 f   libucrt:winapi_thunks.obj
 0001:0004c888       ?try_get_proc_address_from_first_available_module@@YAPAXQBDQBW4module_id@?A0x391cf84c@@1@Z 1004d888 f   libucrt:winapi_thunks.obj
 0001:0004c8ac       ?try_load_library_from_system_directory@@YAPAUHINSTANCE__@@QB_W@Z 1004d8ac f   libucrt:winapi_thunks.obj
 0001:0004d8d8       ??$common_loctotime_t@J@@YAJHHHHHHH@Z 1004e8d8 f   libucrt:loctotime.obj
 0001:0004da56       ??$common_loctotime_t@_J@@YA_JHHHHHHH@Z 1004ea56 f   libucrt:loctotime.obj
 0001:0004dc7e       _no_op_initialize          1004ec7e f   libucrt:wsetlocale.obj
 0001:0004dcb7       ??$?RV<lambda_4fdada1b837b2abbf20876fac97688ad>@@AAV<lambda_b57350f2640456a0859d250846f69caf>@@V<lambda_eed5e4f92b5b7d55fa22c48c484aaa54>@@@?$__crt_seh_guarded_call@X@@QAEX$$QAV<lambda_4fdada1b837b2abbf20876fac97688ad>@@AAV<lambda_b57350f2640456a0859d250846f69caf>@@$$QAV<lambda_eed5e4f92b5b7d55fa22c48c484aaa54>@@@Z 1004ecb7 f   libucrt:wsetlocale.obj
 0001:0004dd04       ??$?RV<lambda_6673f7c4c09a5d469d0c27ae364621ce>@@AAV<lambda_ebab98244f73a74f49db879bf13fa982>@@V<lambda_be20789b7a146653eab82509ec35b419>@@@?$__crt_seh_guarded_call@X@@QAEX$$QAV<lambda_6673f7c4c09a5d469d0c27ae364621ce>@@AAV<lambda_ebab98244f73a74f49db879bf13fa982>@@$$QAV<lambda_be20789b7a146653eab82509ec35b419>@@@Z 1004ed04 f   libucrt:wsetlocale.obj
 0001:0004dd56       ??$?RV<lambda_82aef432098b982f9ede325b418aa67a>@@AAV<lambda_862e9a3f04921db6ca1ce3faa2bf3edf>@@V<lambda_ffabc152e504b53d7492b9889b10c020>@@@?$__crt_seh_guarded_call@X@@QAEX$$QAV<lambda_82aef432098b982f9ede325b418aa67a>@@AAV<lambda_862e9a3f04921db6ca1ce3faa2bf3edf>@@$$QAV<lambda_ffabc152e504b53d7492b9889b10c020>@@@Z 1004ed56 f   libucrt:wsetlocale.obj
 0001:0004ddaa       ??$?RV<lambda_ac03c5d59bd18b09cb88b28331f6bfed>@@AAV<lambda_2a444430fde8c29194d880d93eed5e8f>@@AAV<lambda_02db5278e8aef8b5e4976579d73f5304>@@@?$__crt_seh_guarded_call@X@@QAEX$$QAV<lambda_ac03c5d59bd18b09cb88b28331f6bfed>@@AAV<lambda_2a444430fde8c29194d880d93eed5e8f>@@AAV<lambda_02db5278e8aef8b5e4976579d73f5304>@@@Z 1004edaa f   libucrt:wsetlocale.obj
 0001:0004ddef       ??$?RV<lambda_e5124f882df8998aaf41531e079ba474>@@AAV<lambda_3e16ef9562a7dcce91392c22ab16ea36>@@V<lambda_e25ca0880e6ef98be67edffd8c599615>@@@?$__crt_seh_guarded_call@X@@QAEX$$QAV<lambda_e5124f882df8998aaf41531e079ba474>@@AAV<lambda_3e16ef9562a7dcce91392c22ab16ea36>@@$$QAV<lambda_e25ca0880e6ef98be67edffd8c599615>@@@Z 1004edef f   libucrt:wsetlocale.obj
 0001:0004de5d       ??$__acrt_lock_and_call@V<lambda_3e16ef9562a7dcce91392c22ab16ea36>@@@@YAXW4__acrt_lock_id@@$$QAV<lambda_3e16ef9562a7dcce91392c22ab16ea36>@@@Z 1004ee5d f   libucrt:wsetlocale.obj
 0001:0004de83       ??$__acrt_lock_and_call@V<lambda_862e9a3f04921db6ca1ce3faa2bf3edf>@@@@YAXW4__acrt_lock_id@@$$QAV<lambda_862e9a3f04921db6ca1ce3faa2bf3edf>@@@Z 1004ee83 f   libucrt:wsetlocale.obj
 0001:0004dea9       ??$__acrt_lock_and_call@V<lambda_b57350f2640456a0859d250846f69caf>@@@@YAXW4__acrt_lock_id@@$$QAV<lambda_b57350f2640456a0859d250846f69caf>@@@Z 1004eea9 f   libucrt:wsetlocale.obj
 0001:0004decf       ??$__acrt_lock_and_call@V<lambda_ebab98244f73a74f49db879bf13fa982>@@@@YAXW4__acrt_lock_id@@$$QAV<lambda_ebab98244f73a74f49db879bf13fa982>@@@Z 1004eecf f   libucrt:wsetlocale.obj
 0001:0004def5       ??$__crt_call_and_cleanup@V<lambda_2a444430fde8c29194d880d93eed5e8f>@@V<lambda_02db5278e8aef8b5e4976579d73f5304>@@@@YAX$$QAV<lambda_2a444430fde8c29194d880d93eed5e8f>@@$$QAV<lambda_02db5278e8aef8b5e4976579d73f5304>@@@Z 1004eef5 f   libucrt:wsetlocale.obj
 0001:0004df0f       ??$uninitialize@V<lambda_88ce03f932007f29bf8b8056cbaba4f3>@@@?$dual_state_global@PAU__crt_locale_data@@@__crt_state_management@@QAEX$$QAV<lambda_88ce03f932007f29bf8b8056cbaba4f3>@@@Z 1004ef0f f   libucrt:wsetlocale.obj
 0001:0004df3e       ??0<lambda_02db5278e8aef8b5e4976579d73f5304>@@QAE@ABQAU__acrt_ptd@@@Z 1004ef3e f   libucrt:wsetlocale.obj
 0001:0004df4e       ??0<lambda_2a444430fde8c29194d880d93eed5e8f>@@QAE@AAPAU__crt_locale_data@@ABQAU__acrt_ptd@@AAPA_WAAHAAPB_W@Z 1004ef4e f   libucrt:wsetlocale.obj
 0001:0004df76       ??0<lambda_4fdada1b837b2abbf20876fac97688ad>@@QAE@ABW4__acrt_lock_id@@@Z 1004ef76 f   libucrt:wsetlocale.obj
 0001:0004df88       ??0<lambda_6673f7c4c09a5d469d0c27ae364621ce>@@QAE@ABW4__acrt_lock_id@@@Z 1004ef88 f   libucrt:wsetlocale.obj
 0001:0004df9a       ??0<lambda_82aef432098b982f9ede325b418aa67a>@@QAE@ABW4__acrt_lock_id@@@Z 1004ef9a f   libucrt:wsetlocale.obj
 0001:0004dfac       ??0<lambda_862e9a3f04921db6ca1ce3faa2bf3edf>@@QAE@AAV?$__crt_unique_heap_ptr@U__crt_locale_pointers@@U__crt_internal_free_policy@@@@@Z 1004efac f   libucrt:wsetlocale.obj
 0001:0004dfbc       ??0<lambda_b57350f2640456a0859d250846f69caf>@@QAE@AAPAU__crt_locale_data@@ABQAU__acrt_ptd@@AAPA_WAAHAAPB_W@Z 1004efbc f   libucrt:wsetlocale.obj
 0001:0004dfe4       ??0<lambda_be20789b7a146653eab82509ec35b419>@@QAE@ABW4__acrt_lock_id@@@Z 1004efe4 f   libucrt:wsetlocale.obj
 0001:0004dff6       ??0<lambda_e25ca0880e6ef98be67edffd8c599615>@@QAE@ABW4__acrt_lock_id@@@Z 1004eff6 f   libucrt:wsetlocale.obj
 0001:0004e008       ??0<lambda_e5124f882df8998aaf41531e079ba474>@@QAE@ABW4__acrt_lock_id@@@Z 1004f008 f   libucrt:wsetlocale.obj
 0001:0004e01a       ??0<lambda_ebab98244f73a74f49db879bf13fa982>@@QAE@AAV?$__crt_unique_heap_ptr@U__crt_locale_pointers@@U__crt_internal_free_policy@@@@@Z 1004f01a f   libucrt:wsetlocale.obj
 0001:0004e02a       ??0<lambda_eed5e4f92b5b7d55fa22c48c484aaa54>@@QAE@ABW4__acrt_lock_id@@@Z 1004f02a f   libucrt:wsetlocale.obj
 0001:0004e03c       ??0<lambda_ffabc152e504b53d7492b9889b10c020>@@QAE@ABW4__acrt_lock_id@@@Z 1004f03c f   libucrt:wsetlocale.obj
 0001:0004e143       ??R<lambda_02db5278e8aef8b5e4976579d73f5304>@@QBEXXZ 1004f143 f   libucrt:wsetlocale.obj
 0001:0004e14f       ??R<lambda_2a444430fde8c29194d880d93eed5e8f>@@QBE@XZ 1004f14f f   libucrt:wsetlocale.obj
 0001:0004e1b9       ??R<lambda_3e16ef9562a7dcce91392c22ab16ea36>@@QBE@XZ 1004f1b9 f   libucrt:wsetlocale.obj
 0001:0004e1d9       ??R<lambda_4fdada1b837b2abbf20876fac97688ad>@@QBEXXZ 1004f1d9 f   libucrt:wsetlocale.obj
 0001:0004e1e2       ??R<lambda_6673f7c4c09a5d469d0c27ae364621ce>@@QBEXXZ 1004f1e2 f   libucrt:wsetlocale.obj
 0001:0004e1eb       ??R<lambda_82aef432098b982f9ede325b418aa67a>@@QBEXXZ 1004f1eb f   libucrt:wsetlocale.obj
 0001:0004e1f4       ??R<lambda_862e9a3f04921db6ca1ce3faa2bf3edf>@@QBEXXZ 1004f1f4 f   libucrt:wsetlocale.obj
 0001:0004e201       ??R<lambda_88ce03f932007f29bf8b8056cbaba4f3>@@QBEXAAPAU__crt_locale_data@@@Z 1004f201 f   libucrt:wsetlocale.obj
 0001:0004e223       ??R<lambda_ac03c5d59bd18b09cb88b28331f6bfed>@@QBEXXZ 1004f223 f   libucrt:wsetlocale.obj
 0001:0004e226       ??R<lambda_b57350f2640456a0859d250846f69caf>@@QBEXXZ 1004f226 f   libucrt:wsetlocale.obj
 0001:0004e324       ??R<lambda_be20789b7a146653eab82509ec35b419>@@QBEXXZ 1004f324 f   libucrt:wsetlocale.obj
 0001:0004e32d       ??R<lambda_e25ca0880e6ef98be67edffd8c599615>@@QBEXXZ 1004f32d f   libucrt:wsetlocale.obj
 0001:0004e336       ??R<lambda_e5124f882df8998aaf41531e079ba474>@@QBEXXZ 1004f336 f   libucrt:wsetlocale.obj
 0001:0004e33f       ??R<lambda_ebab98244f73a74f49db879bf13fa982>@@QBEXXZ 1004f33f f   libucrt:wsetlocale.obj
 0001:0004e34a       ??R<lambda_eed5e4f92b5b7d55fa22c48c484aaa54>@@QBEXXZ 1004f34a f   libucrt:wsetlocale.obj
 0001:0004e353       ??R<lambda_ffabc152e504b53d7492b9889b10c020>@@QBEXXZ 1004f353 f   libucrt:wsetlocale.obj
 0001:0004e6ef       __copytlocinfo_nolock      1004f6ef f   libucrt:wsetlocale.obj
 0001:0004e782       __expandlocale             1004f782 f   libucrt:wsetlocale.obj
 0001:0004ee70       __wsetlocale_get_all       1004fe70 f   libucrt:wsetlocale.obj
 0001:0004f00b       __wsetlocale_nolock        1005000b f   libucrt:wsetlocale.obj
 0001:0004f2fb       __wsetlocale_set_cat       100502fb f   libucrt:wsetlocale.obj
 0001:0004f6a5       _categorize_delimiter      100506a5 f   libucrt:wsetlocale.obj
 0001:0004f6cb       _get_default_code_page     100506cb f   libucrt:wsetlocale.obj
 0001:0004f6fa       _parse_bcp47               100506fa f   libucrt:wsetlocale.obj
 0001:0004f8d0       _parse_bcp47_code_page     100508d0 f   libucrt:wsetlocale.obj
 0001:0004f90f       _parse_bcp47_language      1005090f f   libucrt:wsetlocale.obj
 0001:0004f981       _parse_bcp47_region        10050981 f   libucrt:wsetlocale.obj
 0001:0004fa3f       _parse_bcp47_script        10050a3f f   libucrt:wsetlocale.obj
 0001:0004faaf       _string_is_alpha           10050aaf f   libucrt:wsetlocale.obj
 0001:0004faee       _string_is_digit           10050aee f   libucrt:wsetlocale.obj
 0001:0004fb2a       _sync_legacy_variables_lk  10050b2a f   libucrt:wsetlocale.obj
 0001:0004fb71       ?get_std_handle_id@@YAKH@Z 10050b71 f   libucrt:ioinit.obj
 0001:0004fb93       ?initialize_inherited_file_handles_nolock@@YAXXZ 10050b93 f   libucrt:ioinit.obj
 0001:0004fc49       ?initialize_stdio_handles_nolock@@YAXXZ 10050c49 f   libucrt:ioinit.obj
 0001:00050935       ??$common_tcscpy_s@_W@@YAHQA_WIQB_W@Z 10051935 f   libucrt:wcscpy_s.obj
 0001:000509fd       ??$common_tcsncpy_s@_W@@YAHQA_WIQB_WI@Z 100519fd f   libucrt:wcsncpy_s.obj
 0001:00050ad6       ?filter_wcstomb_flags@@YAKIK@Z 10051ad6 f   libucrt:widechartomultibyte.obj
 0001:0005124d       ??$get_cached_win_policy@Ubegin_thread_init_policy_properties@?1??__acrt_get_begin_thread_init_policy@@YA?AW4begin_thread_init_policy@@XZ@@@YA?AW4begin_thread_init_policy@@W4AppPolicyThreadInitializationType@@@Z 1005224d f   libucrt:win_policies.obj
 0001:00051290       ??$get_cached_win_policy@Udeveloper_information_policy_properties@?1??__acrt_get_developer_information_policy@@YA?AW4developer_information_policy@@XZ@@@YA?AW4developer_information_policy@@W4AppPolicyShowDeveloperDiagnostic@@@Z 10052290 f   libucrt:win_policies.obj
 0001:000512d3       ??$get_cached_win_policy@Uwindowing_model_policy_properties@?1??__acrt_get_windowing_model_policy@@YA?AW4windowing_model_policy@@XZ@@@YA?AW4windowing_model_policy@@W4AppPolicyWindowingModel@@@Z 100522d3 f   libucrt:win_policies.obj
 0001:0005132e       ??$get_win_policy@Uprocess_end_policy_properties@?1??__acrt_get_process_end_policy@@YA?AW4process_end_policy@@XZ@@@YA?AW4process_end_policy@@W4AppPolicyProcessTerminationMethod@@@Z 1005232e f   libucrt:win_policies.obj
 0001:0005135d       ?appmodel_get_policy@begin_thread_init_policy_properties@?1??__acrt_get_begin_thread_init_policy@@YA?AW4begin_thread_init_policy@@XZ@SAJPAW4AppPolicyThreadInitializationType@@@Z 1005235d f   libucrt:win_policies.obj
 0001:0005136c       ?appmodel_get_policy@developer_information_policy_properties@?1??__acrt_get_developer_information_policy@@YA?AW4developer_information_policy@@XZ@SAJPAW4AppPolicyShowDeveloperDiagnostic@@@Z 1005236c f   libucrt:win_policies.obj
 0001:0005137b       ?appmodel_get_policy@process_end_policy_properties@?1??__acrt_get_process_end_policy@@YA?AW4process_end_policy@@XZ@SAJPAW4AppPolicyProcessTerminationMethod@@@Z 1005237b f   libucrt:win_policies.obj
 0001:0005138a       ?appmodel_get_policy@windowing_model_policy_properties@?1??__acrt_get_windowing_model_policy@@YA?AW4windowing_model_policy@@XZ@SAJPAW4AppPolicyWindowingModel@@@Z 1005238a f   libucrt:win_policies.obj
 0001:00051399       ?appmodel_policy_to_policy_type@begin_thread_init_policy_properties@?1??__acrt_get_begin_thread_init_policy@@YA?AW4begin_thread_init_policy@@XZ@SA?AW43@J@Z 10052399 f   libucrt:win_policies.obj
 0001:000513aa       ?appmodel_policy_to_policy_type@developer_information_policy_properties@?1??__acrt_get_developer_information_policy@@YA?AW4developer_information_policy@@XZ@SA?AW43@J@Z 100523aa f   libucrt:win_policies.obj
 0001:000513bb       ?appmodel_policy_to_policy_type@process_end_policy_properties@?1??__acrt_get_process_end_policy@@YA?AW4process_end_policy@@XZ@SA?AW43@W4AppPolicyProcessTerminationMethod@@@Z 100523bb f   libucrt:win_policies.obj
 0001:000513cb       ?appmodel_policy_to_policy_type@windowing_model_policy_properties@?1??__acrt_get_windowing_model_policy@@YA?AW4windowing_model_policy@@XZ@SA?AW43@J@Z 100523cb f   libucrt:win_policies.obj
 0001:00051509       ??$common_strnlen@$00G@@YAIQBGI@Z 10052509 f   libucrt:strnlen.obj
 0001:0005163f       ??$common_strnlen@$0A@E@@YAIQBEI@Z 1005263f f   libucrt:strnlen.obj
 0001:0005175d       ??$common_strnlen@$0A@G@@YAIQBGI@Z 1005275d f   libucrt:strnlen.obj
 0001:00051906       ??$common_strnlen_c@$00G@@YAIQBGI@Z 10052906 f   libucrt:strnlen.obj
 0001:00051920       ??$common_strnlen_c@$0A@E@@YAIQBEI@Z 10052920 f   libucrt:strnlen.obj
 0001:00051941       ??$common_strnlen_c@$0A@G@@YAIQBGI@Z 10052941 f   libucrt:strnlen.obj
 0001:00051968       ??$common_strnlen_simd@$00$00G@@YAIQBGI@Z 10052968 f   libucrt:strnlen.obj
 0001:000519f4       ??$common_strnlen_simd@$00$0A@G@@YAIQBGI@Z 100529f4 f   libucrt:strnlen.obj
 0001:00051a7f       ??$common_strnlen_simd@$0A@$00E@@YAIQBEI@Z 10052a7f f   libucrt:strnlen.obj
 0001:00051af9       ??$common_strnlen_simd@$0A@$00G@@YAIQBGI@Z 10052af9 f   libucrt:strnlen.obj
 0001:00051bb9       ??$common_strnlen_simd@$0A@$0A@E@@YAIQBEI@Z 10052bb9 f   libucrt:strnlen.obj
 0001:00051c32       ??$common_strnlen_simd@$0A@$0A@G@@YAIQBGI@Z 10052c32 f   libucrt:strnlen.obj
 0001:00051cf1       ??$last_reached@$00@@YA_NQBX0@Z 10052cf1 f   libucrt:strnlen.obj
 0001:00051cf4       ??$last_reached@$0A@@@YA_NQBX0@Z 10052cf4 f   libucrt:strnlen.obj
 0001:0005258c       ?find_or_allocate_unused_stream_nolock@@YA?AV__crt_stdio_stream@@XZ 1005358c f   libucrt:stream.obj
 0001:00052b1e       ??$common_openfile@D@@YAPAU_iobuf@@QBD0HV__crt_stdio_stream@@@Z 10053b1e f   libucrt:openfile.obj
 0001:00052ba1       ??$common_openfile@_W@@YAPAU_iobuf@@QB_W0HV__crt_stdio_stream@@@Z 10053ba1 f   libucrt:openfile.obj
 0001:00052f47       ?fe_to_nearest@@YA_NQBN_KF@Z 10053f47 f   libucrt:cvt.obj
 0001:00052fea       ?fp_format_a@@YAHQBNPADIQADIH_NIW4__acrt_rounding_mode@@AAV__crt_cached_ptd_host@@@Z 10053fea f   libucrt:cvt.obj
 0001:00053316       ?fp_format_e@@YAHQBNQADI1IH_NIW4__acrt_rounding_mode@@AAV__crt_cached_ptd_host@@@Z 10054316 f   libucrt:cvt.obj
 0001:000533ba       ?fp_format_e_internal@@YAHQADIH_NIQAU_strflt@@1AAV__crt_cached_ptd_host@@@Z 100543ba f   libucrt:cvt.obj
 0001:000534ff       ?fp_format_f@@YAHQBNQADI1IHW4__acrt_rounding_mode@@AAV__crt_cached_ptd_host@@@Z 100544ff f   libucrt:cvt.obj
 0001:00053595       ?fp_format_f_internal@@YAHQADIHQAU_strflt@@_NAAV__crt_cached_ptd_host@@@Z 10054595 f   libucrt:cvt.obj
 0001:00053683       ?fp_format_g@@YAHQBNQADI1IH_NIW4__acrt_rounding_mode@@AAV__crt_cached_ptd_host@@@Z 10054683 f   libucrt:cvt.obj
 0001:00053752       ?fp_format_nan_or_infinity@@YAHW4__acrt_fp_class@@_NPADI1@Z 10054752 f   libucrt:cvt.obj
 0001:000537e7       ?shift_bytes@@YAXQADI0H@Z  100547e7 f   libucrt:cvt.obj
 0001:0005381b       ?should_round_up@@YA_NQBN_KFW4__acrt_rounding_mode@@@Z 1005481b f   libucrt:cvt.obj
 0001:00053ee5       ?_fputwc_internal@@YAG_WQAU_iobuf@@AAV__crt_cached_ptd_host@@@Z 10054ee5 f   libucrt:fputwc.obj
 0001:00053f75       ?fputwc_binary_nolock@@YAG_WV__crt_stdio_stream@@AAV__crt_cached_ptd_host@@@Z 10054f75 f   libucrt:fputwc.obj
 0001:00054188       ?_fputc_internal@@YAHHQAU_iobuf@@AAV__crt_cached_ptd_host@@@Z 10055188 f   libucrt:fputc.obj
 0001:000544b6       ?is_contraction_possible@@YA_NI@Z 100554b6 f   libucrt:expand.obj
 0001:00054610       $$000000                   10055610     libucrt:pow_impl.obj
 0001:00054860       $$000000                   10055860     libucrt:87ctran.obj
 0001:000548b0       $$000000                   100558b0     libucrt:87trigh.obj
 0001:000549e0       $$000000                   100559e0     libucrt:87cdisp.obj
 0001:00054c80       $$000000                   10055c80     libucrt:log_impl.obj
 0001:00054e76       ??$?RV<lambda_9e9de3de5fa147e2223d7db92bc10aa6>@@AAV<lambda_38ce7e780aa69e748d6df282ebc68efe>@@V<lambda_8ca6da459f0f6780f1cff60fdc3d00e5>@@@?$__crt_seh_guarded_call@H@@QAEH$$QAV<lambda_9e9de3de5fa147e2223d7db92bc10aa6>@@AAV<lambda_38ce7e780aa69e748d6df282ebc68efe>@@$$QAV<lambda_8ca6da459f0f6780f1cff60fdc3d00e5>@@@Z 10055e76 f   libucrt:commit.obj
 0001:00054f18       ??$__acrt_lowio_lock_fh_and_call@V<lambda_38ce7e780aa69e748d6df282ebc68efe>@@@@YAHH$$QAV<lambda_38ce7e780aa69e748d6df282ebc68efe>@@@Z 10055f18 f   libucrt:commit.obj
 0001:00054f3e       ??0<lambda_38ce7e780aa69e748d6df282ebc68efe>@@QAE@ABH@Z 10055f3e f   libucrt:commit.obj
 0001:00054f4e       ??0<lambda_8ca6da459f0f6780f1cff60fdc3d00e5>@@QAE@ABH@Z 10055f4e f   libucrt:commit.obj
 0001:00054f60       ??0<lambda_9e9de3de5fa147e2223d7db92bc10aa6>@@QAE@ABH@Z 10055f60 f   libucrt:commit.obj
 0001:00054f72       ??R<lambda_38ce7e780aa69e748d6df282ebc68efe>@@QBEHXZ 10055f72 f   libucrt:commit.obj
 0001:00054fc7       ??R<lambda_8ca6da459f0f6780f1cff60fdc3d00e5>@@QBEXXZ 10055fc7 f   libucrt:commit.obj
 0001:00054fd0       ??R<lambda_9e9de3de5fa147e2223d7db92bc10aa6>@@QBEXXZ 10055fd0 f   libucrt:commit.obj
 0001:00055060       $$000000                   10056060     libucrt:log10_impl.obj
 0001:00055170       ??$?RV<lambda_d422a76eb4c3bf3ad751449ab71a6ea4>@@AAV<lambda_c9ba49e555ba839a7b07aa3fbecb7617>@@V<lambda_9476263c8ee91a25d21c55370bdb50de>@@@?$__crt_seh_guarded_call@H@@QAEH$$QAV<lambda_d422a76eb4c3bf3ad751449ab71a6ea4>@@AAV<lambda_c9ba49e555ba839a7b07aa3fbecb7617>@@$$QAV<lambda_9476263c8ee91a25d21c55370bdb50de>@@@Z 10056170 f   libucrt:close.obj
 0001:00055201       ??$__acrt_lowio_lock_fh_and_call@V<lambda_c9ba49e555ba839a7b07aa3fbecb7617>@@@@YAHH$$QAV<lambda_c9ba49e555ba839a7b07aa3fbecb7617>@@@Z 10056201 f   libucrt:close.obj
 0001:00055227       ??0<lambda_9476263c8ee91a25d21c55370bdb50de>@@QAE@ABH@Z 10056227 f   libucrt:close.obj
 0001:00055239       ??0<lambda_c9ba49e555ba839a7b07aa3fbecb7617>@@QAE@ABHAAV__crt_cached_ptd_host@@@Z 10056239 f   libucrt:close.obj
 0001:0005524f       ??0<lambda_d422a76eb4c3bf3ad751449ab71a6ea4>@@QAE@ABH@Z 1005624f f   libucrt:close.obj
 0001:00055261       ??R<lambda_9476263c8ee91a25d21c55370bdb50de>@@QBEXXZ 10056261 f   libucrt:close.obj
 0001:0005526a       ??R<lambda_c9ba49e555ba839a7b07aa3fbecb7617>@@QBEHXZ 1005626a f   libucrt:close.obj
 0001:000552aa       ??R<lambda_d422a76eb4c3bf3ad751449ab71a6ea4>@@QBEXXZ 100562aa f   libucrt:close.obj
 0001:000552b3       ?close_os_handle_nolock@@YAKH@Z 100562b3 f   libucrt:close.obj
 0001:000554c0       ??$translate_text_mode_nolock@D@@YAHHQADI@Z 100564c0 f   libucrt:read.obj
 0001:0005560c       ??$translate_text_mode_nolock@_W@@YAHHQA_WI@Z 1005660c f   libucrt:read.obj
 0001:0005579a       ?store_lookahead@@YAXHD@Z  1005679a f   libucrt:read.obj
 0001:000557bd       ?store_lookahead@@YAXH_W@Z 100567bd f   libucrt:read.obj
 0001:000557fc       ?translate_ansi_or_utf8_nolock@@YAHHQADIQA_WI@Z 100567fc f   libucrt:read.obj
 0001:00055953       ?translate_utf16_from_console_nolock@@YAHHQA_WI@Z 10056953 f   libucrt:read.obj
 0001:00055e81       ??$common_refill_and_read_nolock@D@@YAHV__crt_stdio_stream@@@Z 10056e81 f   libucrt:_filbuf.obj
 0001:00056010       ??$common_refill_and_read_nolock@_W@@YAHV__crt_stdio_stream@@@Z 10057010 f   libucrt:_filbuf.obj
 0001:000561e6       ?get_context_nolock@@YA?AUfilwbuf_context@?A0x763516dc@@V__crt_stdio_stream@@_W@Z 100571e6 f   libucrt:_filbuf.obj
 0001:0005620e       ?get_context_nolock@@YAHV__crt_stdio_stream@@D@Z 1005720e f   libucrt:_filbuf.obj
 0001:00056211       ?is_buffer_valid_nolock@@YA_NV__crt_stdio_stream@@D@Z 10057211 f   libucrt:_filbuf.obj
 0001:0005622d       ?is_buffer_valid_nolock@@YA_NV__crt_stdio_stream@@_W@Z 1005722d f   libucrt:_filbuf.obj
 0001:0005624c       ?read_character_nolock@@YAEV__crt_stdio_stream@@HD@Z 1005724c f   libucrt:_filbuf.obj
 0001:00056263       ?read_character_nolock@@YA_WV__crt_stdio_stream@@Ufilwbuf_context@?A0x763516dc@@_W@Z 10057263 f   libucrt:_filbuf.obj
 0001:000562b7       ??$common_flush_and_write_nolock@D@@YAHHV__crt_stdio_stream@@AAV__crt_cached_ptd_host@@@Z 100572b7 f   libucrt:_flsbuf.obj
 0001:000563ad       ??$common_flush_and_write_nolock@_W@@YAHHV__crt_stdio_stream@@AAV__crt_cached_ptd_host@@@Z 100573ad f   libucrt:_flsbuf.obj
 0001:000564a7       ??$write_buffer_nolock@D@@YA_NDV__crt_stdio_stream@@AAV__crt_cached_ptd_host@@@Z 100574a7 f   libucrt:_flsbuf.obj
 0001:00056579       ??$write_buffer_nolock@_W@@YA_N_WV__crt_stdio_stream@@AAV__crt_cached_ptd_host@@@Z 10057579 f   libucrt:_flsbuf.obj
 0001:0005664d       ?stream_is_at_end_of_file_nolock@@YA_NV__crt_stdio_stream@@@Z 1005764d f   libucrt:_flsbuf.obj
 0001:00056820       $$000000                   10057820     libucrt:atan_impl.obj
 0001:00056e77       ?<lambda_invoker_cdecl>@<lambda_838c7f62c73c983481e27c09e84b0b5d>@@CAHPBX0@Z 10057e77 f   libucrt:argv_wildcards.obj
 0001:00056e8f       ?<lambda_invoker_cdecl>@<lambda_d388dc2bcbe6079ffc891eec49d9b3b2>@@CAHPBX0@Z 10057e8f f   libucrt:argv_wildcards.obj
 0001:00056f8a       ??$common_expand_argv_wildcards@D@@YAHQAPADQAPAPAD@Z 10057f8a f   libucrt:argv_wildcards.obj
 0001:00057107       ??$common_expand_argv_wildcards@_W@@YAHQAPA_WQAPAPA_W@Z 10058107 f   libucrt:argv_wildcards.obj
 0001:000572bf       ??$copy_and_add_argument_to_buffer@D@@YAHQBD0IAAV?$argument_list@D@?A0x5f5c8891@@@Z 100582bf f   libucrt:argv_wildcards.obj
 0001:00057370       ??$copy_and_add_argument_to_buffer@_W@@YAHQB_W0IAAV?$argument_list@_W@?A0x5f5c8891@@@Z 10058370 f   libucrt:argv_wildcards.obj
 0001:00057424       ??$expand_argument_wildcards@D@@YAHQAD0AAV?$argument_list@D@?A0x5f5c8891@@@Z 10058424 f   libucrt:argv_wildcards.obj
 0001:000576a9       ??$expand_argument_wildcards@_W@@YAHQA_W0AAV?$argument_list@_W@?A0x5f5c8891@@@Z 100586a9 f   libucrt:argv_wildcards.obj
 0001:00057943       ??0?$argument_list@D@?A0x5f5c8891@@QAE@XZ 10058943 f   libucrt:argv_wildcards.obj
 0001:00057950       ??0?$argument_list@_W@?A0x5f5c8891@@QAE@XZ 10058950 f   libucrt:argv_wildcards.obj
 0001:00057979       ??1?$argument_list@D@?A0x5f5c8891@@QAE@XZ 10058979 f   libucrt:argv_wildcards.obj
 0001:000579a2       ??1?$argument_list@_W@?A0x5f5c8891@@QAE@XZ 100589a2 f   libucrt:argv_wildcards.obj
 0001:000579cb       ??B<lambda_838c7f62c73c983481e27c09e84b0b5d>@@QBEP6AHPBX0@ZXZ 100589cb f   libucrt:argv_wildcards.obj
 0001:000579d1       ??B<lambda_d388dc2bcbe6079ffc891eec49d9b3b2>@@QBEP6AHPBX0@ZXZ 100589d1 f   libucrt:argv_wildcards.obj
 0001:000579fb       ??R<lambda_594f614a8947934b886943aa86a6498d>@@QBE_ND@Z 100589fb f   libucrt:argv_wildcards.obj
 0001:00057a19       ??R<lambda_838c7f62c73c983481e27c09e84b0b5d>@@QBEHPBX0@Z 10058a19 f   libucrt:argv_wildcards.obj
 0001:00057a33       ??R<lambda_d388dc2bcbe6079ffc891eec49d9b3b2>@@QBEHPBX0@Z 10058a33 f   libucrt:argv_wildcards.obj
 0001:00057a4d       ??R<lambda_d734a73e0f649ebd9d9b0eca0b8ca86a>@@QBE_N_W@Z 10058a4d f   libucrt:argv_wildcards.obj
 0001:00057ac7       ?append@?$argument_list@D@?A0x5f5c8891@@QAEHQAD@Z 10058ac7 f   libucrt:argv_wildcards.obj
 0001:00057afc       ?append@?$argument_list@_W@?A0x5f5c8891@@QAEHQA_W@Z 10058afc f   libucrt:argv_wildcards.obj
 0001:00057b31       ?begin@?$argument_list@D@?A0x5f5c8891@@QBEPAPADXZ 10058b31 f   libucrt:argv_wildcards.obj
 0001:00057b34       ?begin@?$argument_list@_W@?A0x5f5c8891@@QBEPAPA_WXZ 10058b34 f   libucrt:argv_wildcards.obj
 0001:00057b6e       ?end@?$argument_list@D@?A0x5f5c8891@@QBEPAPADXZ 10058b6e f   libucrt:argv_wildcards.obj
 0001:00057b72       ?end@?$argument_list@_W@?A0x5f5c8891@@QBEPAPA_WXZ 10058b72 f   libucrt:argv_wildcards.obj
 0001:00057b76       ?expand_if_necessary@?$argument_list@D@?A0x5f5c8891@@AAEHXZ 10058b76 f   libucrt:argv_wildcards.obj
 0001:00057bfd       ?expand_if_necessary@?$argument_list@_W@?A0x5f5c8891@@AAEHXZ 10058bfd f   libucrt:argv_wildcards.obj
 0001:00057c87       ?get_file_name@@YAPADQAV?$__crt_win32_buffer@DU__crt_win32_buffer_internal_dynamic_resizing@@@@QA_W@Z 10058c87 f   libucrt:argv_wildcards.obj
 0001:00057cb0       ?get_file_name@@YAPA_WPAV?$__crt_win32_buffer@_WU__crt_win32_buffer_internal_dynamic_resizing@@@@QA_W@Z 10058cb0 f   libucrt:argv_wildcards.obj
 0001:00057cbe       ?get_wide@@YAPA_WPAV?$__crt_win32_buffer@_WU__crt_win32_buffer_internal_dynamic_resizing@@@@QA_W@Z 10058cbe f   libucrt:argv_wildcards.obj
 0001:00057cc8       ?get_wide@@YAPA_WQAV?$__crt_win32_buffer@_WU__crt_win32_buffer_internal_dynamic_resizing@@@@QAD@Z 10058cc8 f   libucrt:argv_wildcards.obj
 0001:00057cf1       ?previous_character@@YAPADQAD0@Z 10058cf1 f   libucrt:argv_wildcards.obj
 0001:00057cfc       ?previous_character@@YAPA_WPA_WQA_W@Z 10058cfc f   libucrt:argv_wildcards.obj
 0001:00057d2f       ?size@?$argument_list@D@?A0x5f5c8891@@QBEIXZ 10058d2f f   libucrt:argv_wildcards.obj
 0001:00057d38       ?size@?$argument_list@_W@?A0x5f5c8891@@QBEIXZ 10058d38 f   libucrt:argv_wildcards.obj
 0001:00057e12       ??$?RV<lambda_ceb1ee4838e85a9d631eb091e2fbe199>@@AAV<lambda_ae742caa10f662c28703da3d2ea5e57e>@@V<lambda_cd08b5d6af4937fe54fc07d0c9bf6b37>@@@?$__crt_seh_guarded_call@X@@QAEX$$QAV<lambda_ceb1ee4838e85a9d631eb091e2fbe199>@@AAV<lambda_ae742caa10f662c28703da3d2ea5e57e>@@$$QAV<lambda_cd08b5d6af4937fe54fc07d0c9bf6b37>@@@Z 10058e12 f   libucrt:mbctype.obj
 0001:00057e5f       ??$__acrt_lock_and_call@V<lambda_ae742caa10f662c28703da3d2ea5e57e>@@@@YAXW4__acrt_lock_id@@$$QAV<lambda_ae742caa10f662c28703da3d2ea5e57e>@@@Z 10058e5f f   libucrt:mbctype.obj
 0001:00057ea3       ??0<lambda_ae742caa10f662c28703da3d2ea5e57e>@@QAE@ABQAU__acrt_ptd@@ABQAPAU__crt_multibyte_data@@@Z 10058ea3 f   libucrt:mbctype.obj
 0001:00057eb9       ??0<lambda_cd08b5d6af4937fe54fc07d0c9bf6b37>@@QAE@ABW4__acrt_lock_id@@@Z 10058eb9 f   libucrt:mbctype.obj
 0001:00057ecb       ??0<lambda_ceb1ee4838e85a9d631eb091e2fbe199>@@QAE@ABW4__acrt_lock_id@@@Z 10058ecb f   libucrt:mbctype.obj
 0001:00057edd       ??R<lambda_ae742caa10f662c28703da3d2ea5e57e>@@QBEXXZ 10058edd f   libucrt:mbctype.obj
 0001:00057f60       ??R<lambda_cd08b5d6af4937fe54fc07d0c9bf6b37>@@QBEXXZ 10058f60 f   libucrt:mbctype.obj
 0001:00057f69       ??R<lambda_ceb1ee4838e85a9d631eb091e2fbe199>@@QBEXXZ 10058f69 f   libucrt:mbctype.obj
 0001:00057f72       ?CPtoLocaleName@@YAPB_WH@Z 10058f72 f   libucrt:mbctype.obj
 0001:00057fb6       ?getSystemCP@@YAHH@Z       10058fb6 f   libucrt:mbctype.obj
 0001:00058043       ?setSBCS@@YAXPAU__crt_multibyte_data@@@Z 10059043 f   libucrt:mbctype.obj
 0001:000580a6       ?setSBUpLow@@YAXPAU__crt_multibyte_data@@@Z 100590a6 f   libucrt:mbctype.obj
 0001:00058252       ?setmbcp_internal@@YAHH_NQAU__acrt_ptd@@QAPAU__crt_multibyte_data@@@Z 10059252 f   libucrt:mbctype.obj
 0001:000583a7       ?update_thread_multibyte_data_internal@@YAPAU__crt_multibyte_data@@QAU__acrt_ptd@@QAPAU1@@Z 100593a7 f   libucrt:mbctype.obj
 0001:0005870c       _memcpy_s                  1005970c f   libucrt:mbctype.obj
 0001:0005878d       ?x_ismbbtype_l@@YAHPAU__crt_locale_pointers@@IHH@Z 1005978d f   libucrt:ismbbyte.obj
 0001:00058b30       ??0?$__crt_unique_handle_t@Uenvironment_strings_traits@?A0x1bf47908@@@@QAE@QA_W@Z 10059b30 f   libucrt:get_environment_from_os.obj
 0001:00058b40       ??1?$__crt_unique_handle_t@Uenvironment_strings_traits@?A0x1bf47908@@@@QAE@XZ 10059b40 f   libucrt:get_environment_from_os.obj
 0001:00058b57       ??B?$__crt_unique_handle_t@Uenvironment_strings_traits@?A0x1bf47908@@@@QBE_NXZ 10059b57 f   libucrt:get_environment_from_os.obj
 0001:00058b5e       ?close@?$__crt_unique_handle_t@Uenvironment_strings_traits@?A0x1bf47908@@@@QAEXXZ 10059b5e f   libucrt:get_environment_from_os.obj
 0001:00058b75       ?close@environment_strings_traits@?A0x1bf47908@@SA_NPA_W@Z 10059b75 f   libucrt:get_environment_from_os.obj
 0001:00058b87       ?find_end_of_double_null_terminated_sequence@@YAPB_WQB_W@Z 10059b87 f   libucrt:get_environment_from_os.obj
 0001:00058bbe       ?get@?$__crt_unique_handle_t@Uenvironment_strings_traits@?A0x1bf47908@@@@QBEPA_WXZ 10059bbe f   libucrt:get_environment_from_os.obj
 0001:00058bc1       ?get_invalid_value@environment_strings_traits@?A0x1bf47908@@SAPA_WXZ 10059bc1 f   libucrt:get_environment_from_os.obj
 0001:00058bc4       ?is_valid@?$__crt_unique_handle_t@Uenvironment_strings_traits@?A0x1bf47908@@@@QBE_NXZ 10059bc4 f   libucrt:get_environment_from_os.obj
 0001:00058cb9       ??$common_set_variable_in_environment_nolock@D@@YAHQADH@Z 10059cb9 f   libucrt:setenv.obj
 0001:00058f17       ??$common_set_variable_in_environment_nolock@_W@@YAHQA_WH@Z 10059f17 f   libucrt:setenv.obj
 0001:00059196       ??$copy_environment@D@@YAPAPADQAPAD@Z 1005a196 f   libucrt:setenv.obj
 0001:00059246       ??$copy_environment@_W@@YAPAPA_WQAPA_W@Z 1005a246 f   libucrt:setenv.obj
 0001:00059304       ??$ensure_current_environment_is_not_initial_environment_nolock@D@@YAXXZ 1005a304 f   libucrt:setenv.obj
 0001:0005931e       ??$ensure_current_environment_is_not_initial_environment_nolock@_W@@YAXXZ 1005a31e f   libucrt:setenv.obj
 0001:00059338       ??$find_in_environment_nolock@D@@YAHQBDI@Z 1005a338 f   libucrt:setenv.obj
 0001:0005938d       ??$find_in_environment_nolock@_W@@YAHQB_WI@Z 1005a38d f   libucrt:setenv.obj
 0001:00059536       ?get_environment@@YAAAPAPADD@Z 1005a536 f   libucrt:setenv.obj
 0001:0005953c       ?get_environment@@YAAAPAPA_W_W@Z 1005a53c f   libucrt:setenv.obj
 0001:00059542       ?get_initial_environment@@YAAAPAPADD@Z 1005a542 f   libucrt:setenv.obj
 0001:00059548       ?get_initial_environment@@YAAAPAPA_W_W@Z 1005a548 f   libucrt:setenv.obj
 0001:0005954e       ?get_other_environment@@YAAAPAPAD_W@Z 1005a54e f   libucrt:setenv.obj
 0001:00059554       ?get_other_environment@@YAAAPAPA_WD@Z 1005a554 f   libucrt:setenv.obj
 0001:0005982d       ??$?RV<lambda_cbab9ec6f41b0180b23cc171c22676b0>@@AAV<lambda_44731a7d0e6d81c3e6aa82d741081786>@@V<lambda_4b292cb8dd18144e164572427af410ab>@@@?$__crt_seh_guarded_call@P6AXH@Z@@QAEP6AXH@Z$$QAV<lambda_cbab9ec6f41b0180b23cc171c22676b0>@@AAV<lambda_44731a7d0e6d81c3e6aa82d741081786>@@$$QAV<lambda_4b292cb8dd18144e164572427af410ab>@@@Z 1005a82d f   libucrt:signal.obj
 0001:00059891       ??$__acrt_lock_and_call@V<lambda_44731a7d0e6d81c3e6aa82d741081786>@@@@YAP6AXH@ZW4__acrt_lock_id@@$$QAV<lambda_44731a7d0e6d81c3e6aa82d741081786>@@@Z 1005a891 f   libucrt:signal.obj
 0001:000598ec       ??0<lambda_4b292cb8dd18144e164572427af410ab>@@QAE@ABW4__acrt_lock_id@@@Z 1005a8ec f   libucrt:signal.obj
 0001:000598fe       ??0<lambda_cbab9ec6f41b0180b23cc171c22676b0>@@QAE@ABW4__acrt_lock_id@@@Z 1005a8fe f   libucrt:signal.obj
 0001:00059910       ??R<lambda_44731a7d0e6d81c3e6aa82d741081786>@@QBEP6AXH@ZXZ 1005a910 f   libucrt:signal.obj
 0001:00059923       ??R<lambda_4b292cb8dd18144e164572427af410ab>@@QBEXXZ 1005a923 f   libucrt:signal.obj
 0001:0005992c       ??R<lambda_cbab9ec6f41b0180b23cc171c22676b0>@@QBEXXZ 1005a92c f   libucrt:signal.obj
 0001:00059935       ?ctrlevent_capture@@YGHK@Z 1005a935 f   libucrt:signal.obj
 0001:000599df       ?get_global_action_nolock@@YAPAP6AXH@ZH@Z 1005a9df f   libucrt:signal.obj
 0001:00059a3d       ?is_console_signal@@YAHH@Z 1005aa3d f   libucrt:signal.obj
 0001:00059a57       ?is_unsupported_signal@@YAHHQ6AXH@Z@Z 1005aa57 f   libucrt:signal.obj
 0001:00059a71       ?siglookup@@YAPAU__crt_signal_action_t@@HQAU1@@Z 1005aa71 f   libucrt:signal.obj
 0001:00059a99       ?signal_failed@@YAP6AXH@ZH@Z 1005aa99 f   libucrt:signal.obj
 0001:00059f2c       ??$common_lseek@J@@YAJHJHAAV__crt_cached_ptd_host@@@Z 1005af2c f   libucrt:lseek.obj
 0001:0005a034       ??$common_lseek@_J@@YA_JH_JHAAV__crt_cached_ptd_host@@@Z 1005b034 f   libucrt:lseek.obj
 0001:0005a15a       ??$common_lseek_nolock@J@@YAJHJHAAV__crt_cached_ptd_host@@@Z 1005b15a f   libucrt:lseek.obj
 0001:0005a1b7       ??$common_lseek_nolock@_J@@YA_JH_JHAAV__crt_cached_ptd_host@@@Z 1005b1b7 f   libucrt:lseek.obj
 0001:0005a23a       ?common_lseek_do_seek_nolock@@YAJQAXJHAAV__crt_cached_ptd_host@@@Z 1005b23a f   libucrt:lseek.obj
 0001:0005a2c3       ?common_lseek_do_seek_nolock@@YA_JQAX_JHAAV__crt_cached_ptd_host@@@Z 1005b2c3 f   libucrt:lseek.obj
 0001:0005a444       ??R<lambda_e96123212306c92459f955e8e4eac55d>@@QBEIPBD@Z 1005b444 f   libucrt:mbrtowc.obj
 0001:0005a5bb       ?_mbrtowc_internal@@YAHPAHPA_WPBDIPAU_Mbstatet@@AAV__crt_cached_ptd_host@@@Z 1005b5bb f   libucrt:mbrtowc.obj
 0001:0005a7d3       ?_mbsrtowcs_helper@@YAIPA_WPAPBDIPAU_Mbstatet@@AAV__crt_cached_ptd_host@@@Z 1005b7d3 f   libucrt:mbrtowc.obj
 0001:0005a931       ?mbsrtowcs_s_internal@@YAHPAIPA_WIPAPBDIPAU_Mbstatet@@AAV__crt_cached_ptd_host@@@Z 1005b931 f   libucrt:mbrtowc.obj
 0001:0005ab8b       ??$?RV<lambda_f828341fbe69b7c0d4c527b01f22877f>@@AAV<lambda_9e0b6ab72a5b3ae37ad997d08b519f50>@@V<lambda_f01deac0a8d65d6e0411edf7e0af5775>@@@?$__crt_seh_guarded_call@G@@QAEG$$QAV<lambda_f828341fbe69b7c0d4c527b01f22877f>@@AAV<lambda_9e0b6ab72a5b3ae37ad997d08b519f50>@@$$QAV<lambda_f01deac0a8d65d6e0411edf7e0af5775>@@@Z 1005bb8b f   libucrt:putwch.obj
 0001:0005abf3       ??$__acrt_lock_and_call@V<lambda_9e0b6ab72a5b3ae37ad997d08b519f50>@@@@YAGW4__acrt_lock_id@@$$QAV<lambda_9e0b6ab72a5b3ae37ad997d08b519f50>@@@Z 1005bbf3 f   libucrt:putwch.obj
 0001:0005ac19       ??0<lambda_9e0b6ab72a5b3ae37ad997d08b519f50>@@QAE@AB_W@Z 1005bc19 f   libucrt:putwch.obj
 0001:0005ac29       ??0<lambda_f01deac0a8d65d6e0411edf7e0af5775>@@QAE@ABW4__acrt_lock_id@@@Z 1005bc29 f   libucrt:putwch.obj
 0001:0005ac3b       ??0<lambda_f828341fbe69b7c0d4c527b01f22877f>@@QAE@ABW4__acrt_lock_id@@@Z 1005bc3b f   libucrt:putwch.obj
 0001:0005ac4d       ??R<lambda_9e0b6ab72a5b3ae37ad997d08b519f50>@@QBEGXZ 1005bc4d f   libucrt:putwch.obj
 0001:0005ac5a       ??R<lambda_f01deac0a8d65d6e0411edf7e0af5775>@@QBEXXZ 1005bc5a f   libucrt:putwch.obj
 0001:0005ac63       ??R<lambda_f828341fbe69b7c0d4c527b01f22877f>@@QBEXXZ 1005bc63 f   libucrt:putwch.obj
 0001:0005ae80       $$000000                   1005be80     libucrt:cos_pentium4.obj
 0001:0005b030       $$000000                   1005c030     libucrt:87disp.obj
 0001:0005b2a0       $$000000                   1005c2a0     libucrt:common.obj
 0001:0005b430       $$000000                   1005c430     libucrt:genexcep.obj
 0001:0005b490       $$000000                   1005c490     libucrt:sin_pentium4.obj
 0001:0005b660       $$000000                   1005c660     libucrt:sqrt_impl.obj
 0001:0005b747       ??$common_getdcwd@D@@YAPADHPADHHQBDH@Z 1005c747 f   libucrt:getcwd.obj
 0001:0005b873       ??$common_getdcwd@_W@@YAPA_WHPA_WHHQBDH@Z 1005c873 f   libucrt:getcwd.obj
 0001:0005b9ff       ?is_valid_drive@@YAHI@Z    1005c9ff f   libucrt:getcwd.obj
 0001:0005baef       _memcpy_s                  1005caef f   libucrt:getcwd.obj
 0001:0005bff6       ?GetTableIndexFromLcid@@YAHK@Z 1005cff6 f   libucrt:lcidtoname_downlevel.obj
 0001:0005c02d       ?GetTableIndexFromLocaleName@@YAHPB_W@Z 1005d02d f   libucrt:lcidtoname_downlevel.obj
 0001:0005c14c       ?issue_debug_notification@@YA_NQB_W@Z 1005d14c f   libucrt:report_runtime_error.obj
 0001:0005c14f       ?should_write_error_to_console@@YA_NXZ 1005d14f f   libucrt:report_runtime_error.obj
 0001:0005c16f       ?write_string_to_console@@YAXQB_W@Z 1005d16f f   libucrt:report_runtime_error.obj
 0001:0005c814       _fix_grouping              1005d814 f   libucrt:initmon.obj
 0001:0005cac5       _fix_grouping              1005dac5 f   libucrt:initnum.obj
 0001:0005cb0e       ??$free_crt_array@D$01@@YAXAAY01PAD@Z 1005db0e f   libucrt:inittime.obj
 0001:0005cb21       ??$free_crt_array@D$06@@YAXAAY06PAD@Z 1005db21 f   libucrt:inittime.obj
 0001:0005cb34       ??$free_crt_array@D$0M@@@YAXAAY0M@PAD@Z 1005db34 f   libucrt:inittime.obj
 0001:0005cb47       ??$free_crt_array@_W$01@@YAXAAY01PA_W@Z 1005db47 f   libucrt:inittime.obj
 0001:0005cb5a       ??$free_crt_array@_W$06@@YAXAAY06PA_W@Z 1005db5a f   libucrt:inittime.obj
 0001:0005cb6d       ??$free_crt_array@_W$0M@@@YAXAAY0M@PA_W@Z 1005db6d f   libucrt:inittime.obj
 0001:0005cbaf       ?free_crt_array_internal@@YAXQAPBXI@Z 1005dbaf f   libucrt:inittime.obj
 0001:0005cbd7       ?get_or_create_lc_time@@YAPBU__crt_lc_time_data@@QAU__crt_locale_data@@@Z 1005dbd7 f   libucrt:inittime.obj
 0001:0005cc43       ?initialize_lc_time@@YA_NQAU__crt_lc_time_data@@QAU__crt_locale_data@@@Z 1005dc43 f   libucrt:inittime.obj
 0001:0005d037       ??$common_tcscat_s@_W@@YAHQA_WIQB_W@Z 1005e037 f   libucrt:wcscat_s.obj
 0001:0005d0ba       ??$common_tcsncat_s@_W@@YAHQA_WIQB_WI@Z 1005e0ba f   libucrt:wcsncat_s.obj
 0001:0005d389       _GetLocaleNameFromDefault  1005e389 f   libucrt:get_qualified_locale.obj
 0001:0005d410       _GetLocaleNameFromLangCountry 1005e410 f   libucrt:get_qualified_locale.obj
 0001:0005d4a9       _GetLocaleNameFromLanguage 1005e4a9 f   libucrt:get_qualified_locale.obj
 0001:0005d502       _GetPrimaryLen             1005e502 f   libucrt:get_qualified_locale.obj
 0001:0005d536       _LangCountryEnumProcEx@12  1005e536 f   libucrt:get_qualified_locale.obj
 0001:0005d816       _LanguageEnumProcEx@12     1005e816 f   libucrt:get_qualified_locale.obj
 0001:0005d8d5       _ProcessCodePage           1005e8d5 f   libucrt:get_qualified_locale.obj
 0001:0005d9cb       _TestDefaultCountry        1005e9cb f   libucrt:get_qualified_locale.obj
 0001:0005da18       _TestDefaultLanguage       1005ea18 f   libucrt:get_qualified_locale.obj
 0001:0005da5e       _TranslateName             1005ea5e f   libucrt:get_qualified_locale.obj
 0001:0005dcc6       _CountryEnumProc@4         1005ecc6 f   libucrt:getqloc_downlevel.obj
 0001:0005dd6d       _GetLcidFromCountry        1005ed6d f   libucrt:getqloc_downlevel.obj
 0001:0005ddb8       _GetLcidFromDefault        1005edb8 f   libucrt:getqloc_downlevel.obj
 0001:0005ddd6       _GetLcidFromLangCountry    1005edd6 f   libucrt:getqloc_downlevel.obj
 0001:0005de71       _GetLcidFromLanguage       1005ee71 f   libucrt:getqloc_downlevel.obj
 0001:0005ded0       _GetPrimaryLen             1005eed0 f   libucrt:getqloc_downlevel.obj
 0001:0005defc       _LangCountryEnumProc@4     1005eefc f   libucrt:getqloc_downlevel.obj
 0001:0005e14f       _LanguageEnumProc@4        1005f14f f   libucrt:getqloc_downlevel.obj
 0001:0005e224       _LcidFromHexString         1005f224 f   libucrt:getqloc_downlevel.obj
 0001:0005e278       _ProcessCodePage           1005f278 f   libucrt:getqloc_downlevel.obj
 0001:0005e359       _TestDefaultCountry        1005f359 f   libucrt:getqloc_downlevel.obj
 0001:0005e37e       _TestDefaultLanguage       1005f37e f   libucrt:getqloc_downlevel.obj
 0001:0005e3ec       _TranslateName             1005f3ec f   libucrt:getqloc_downlevel.obj
 0001:0005e66a       ?InternalGetLocaleInfoA@@YAHQAU__crt_locale_pointers@@QB_WKQADH@Z 1005f66a f   libucrt:getlocaleinfoa.obj
 0001:0005e908       ?__acrt_LCMapStringA_stat@@YAHPAU__crt_locale_pointers@@PB_WKPBDHPADHHH@Z 1005f908 f   libucrt:lcmapstringa.obj
 0001:0005ee4a       ?InternalCompareStringA@@YAHPAU__crt_locale_pointers@@PB_WKPBDH2HH@Z 1005fe4a f   libucrt:comparestringa.obj
 0001:0005f12f       ??$common_open@D@@YAHQBDHH@Z 1006012f f   libucrt:open.obj
 0001:0005f1e3       ??$common_open@_W@@YAHQB_WHH@Z 100601e3 f   libucrt:open.obj
 0001:0005f297       ??$common_sopen_dispatch@D@@YAHQBDHHHQAHH@Z 10060297 f   libucrt:open.obj
 0001:0005f358       ??$common_sopen_dispatch@_W@@YAHQB_WHHHQAHH@Z 10060358 f   libucrt:open.obj
 0001:0005f4e1       ?configure_text_mode@@YAHHUfile_options@?A0xa9d50aae@@HAAW4__crt_lowio_text_mode@@@Z 100604e1 f   libucrt:open.obj
 0001:0005f72f       ?create_file@@YAPAXQB_WQAU_SECURITY_ATTRIBUTES@@Ufile_options@?A0xa9d50aae@@@Z 1006072f f   libucrt:open.obj
 0001:0005f754       ?decode_access_flags@@YAKH@Z 10060754 f   libucrt:open.obj
 0001:0005f7ad       ?decode_open_create_flags@@YAKH@Z 100607ad f   libucrt:open.obj
 0001:0005f81d       ?decode_options@@YA?AUfile_options@?A0xa9d50aae@@HHH@Z 1006081d f   libucrt:open.obj
 0001:0005f997       ?decode_sharing_flags@@YAKHH@Z 10060997 f   libucrt:open.obj
 0001:0005f9e7       ?is_text_mode@@YA_NH@Z     100609e7 f   libucrt:open.obj
 0001:0005fa2a       ?truncate_ctrl_z_if_present@@YAHH@Z 10060a2a f   libucrt:open.obj
 0001:0005ff5e       ?check_trailing@@YA_NPBDW4__acrt_has_trailing_digits@@@Z 10060f5e f   libucrt:_fptostr.obj
 0001:0005ff7f       ?should_round_up@@YA_NQBD0HW4__acrt_has_trailing_digits@@W4__acrt_rounding_mode@@@Z 10060f7f f   libucrt:_fptostr.obj
 0001:000600f7       ??$convert_to_fos_high_precision@N@@YA?AW4__acrt_has_trailing_digits@@NIW4__acrt_precision_style@@QAHQADI@Z 100610f7 f   libucrt:cfout.obj
 0001:00061359       ??0scoped_fp_state_reset@?A0x71ca7cfb@@QAE@XZ 10062359 f   libucrt:cfout.obj
 0001:00061382       ??1scoped_fp_state_reset@?A0x71ca7cfb@@QAE@XZ 10062382 f   libucrt:cfout.obj
 0001:00063a18       _memcpy_s                  10064a18 f   libucrt:cfout.obj
 0001:00063b80       $$000000                   10064b80     libucrt:pow_pentium4.obj
 0001:000646a0       $$000000                   100656a0     libucrt:87tran.obj
 0001:00064a40       $$000000                   10065a40     libucrt:exp_pentium4.obj
 0001:00064e10       $$000000                   10065e10     libucrt:log_pentium4.obj
 0001:000650a0       $$000000                   100660a0     libucrt:log10_pentium4.obj
 0001:00065390       $$000000                   10066390     libucrt:atan_pentium4.obj
 0001:00065752       ??$to_abstract_status@W4__acrt_fenv_machine_sse_status@@@@YA?AW4__acrt_fenv_abstract_status@@W4__acrt_fenv_machine_sse_status@@@Z 10066752 f   libucrt:_fenvutils.obj
 0001:00065796       ??$to_abstract_status@W4__acrt_fenv_machine_x87_status@@@@YA?AW4__acrt_fenv_abstract_status@@W4__acrt_fenv_machine_x87_status@@@Z 10066796 f   libucrt:_fenvutils.obj
 0001:000657da       ??$translate_control_exception_mask@W4__acrt_fenv_abstract_control@@W4__acrt_fenv_machine_sse_control@@@@YA?AW4__acrt_fenv_abstract_control@@W4__acrt_fenv_machine_sse_control@@@Z 100667da f   libucrt:_fenvutils.obj
 0001:0006581f       ??$translate_control_exception_mask@W4__acrt_fenv_abstract_control@@W4__acrt_fenv_machine_x87_control@@@@YA?AW4__acrt_fenv_abstract_control@@W4__acrt_fenv_machine_x87_control@@@Z 1006681f f   libucrt:_fenvutils.obj
 0001:00065863       ??$translate_control_exception_mask@W4__acrt_fenv_machine_sse_control@@W4__acrt_fenv_abstract_control@@@@YA?AW4__acrt_fenv_machine_sse_control@@W4__acrt_fenv_abstract_control@@@Z 10066863 f   libucrt:_fenvutils.obj
 0001:0006589d       ??$translate_control_exception_mask@W4__acrt_fenv_machine_x87_control@@W4__acrt_fenv_abstract_control@@@@YA?AW4__acrt_fenv_machine_x87_control@@W4__acrt_fenv_abstract_control@@@Z 1006689d f   libucrt:_fenvutils.obj
 0001:000658d5       ??$translate_control_infinity_control@W4__acrt_fenv_abstract_control@@W4__acrt_fenv_machine_x87_control@@@@YA?AW4__acrt_fenv_abstract_control@@W4__acrt_fenv_machine_x87_control@@@Z 100668d5 f   libucrt:_fenvutils.obj
 0001:000658e8       ??$translate_control_infinity_control@W4__acrt_fenv_machine_x87_control@@W4__acrt_fenv_abstract_control@@@@YA?AW4__acrt_fenv_machine_x87_control@@W4__acrt_fenv_abstract_control@@@Z 100668e8 f   libucrt:_fenvutils.obj
 0001:00065901       ??$translate_control_precision_control@W4__acrt_fenv_abstract_control@@W4__acrt_fenv_machine_x87_control@@@@YA?AW4__acrt_fenv_abstract_control@@W4__acrt_fenv_machine_x87_control@@@Z 10066901 f   libucrt:_fenvutils.obj
 0001:00065929       ??$translate_control_precision_control@W4__acrt_fenv_machine_x87_control@@W4__acrt_fenv_abstract_control@@@@YA?AW4__acrt_fenv_machine_x87_control@@W4__acrt_fenv_abstract_control@@@Z 10066929 f   libucrt:_fenvutils.obj
 0001:00065951       ??$translate_control_rounding_control@W4__acrt_fenv_abstract_control@@W4__acrt_fenv_machine_sse_control@@@@YA?AW4__acrt_fenv_abstract_control@@W4__acrt_fenv_machine_sse_control@@@Z 10066951 f   libucrt:_fenvutils.obj
 0001:0006598d       ??$translate_control_rounding_control@W4__acrt_fenv_abstract_control@@W4__acrt_fenv_machine_x87_control@@@@YA?AW4__acrt_fenv_abstract_control@@W4__acrt_fenv_machine_x87_control@@@Z 1006698d f   libucrt:_fenvutils.obj
 0001:000659c9       ??$translate_control_rounding_control@W4__acrt_fenv_machine_sse_control@@W4__acrt_fenv_abstract_control@@@@YA?AW4__acrt_fenv_machine_sse_control@@W4__acrt_fenv_abstract_control@@@Z 100669c9 f   libucrt:_fenvutils.obj
 0001:00065a05       ??$translate_control_rounding_control@W4__acrt_fenv_machine_x87_control@@W4__acrt_fenv_abstract_control@@@@YA?AW4__acrt_fenv_machine_x87_control@@W4__acrt_fenv_abstract_control@@@Z 10066a05 f   libucrt:_fenvutils.obj
 0001:00065a41       ??$translate_status@W4__acrt_fenv_abstract_status@@W4__acrt_fenv_machine_sse_status@@@@YA?AW4__acrt_fenv_abstract_status@@W4__acrt_fenv_machine_sse_status@@@Z 10066a41 f   libucrt:_fenvutils.obj
 0001:00065a85       ??$translate_status@W4__acrt_fenv_abstract_status@@W4__acrt_fenv_machine_x87_status@@@@YA?AW4__acrt_fenv_abstract_status@@W4__acrt_fenv_machine_x87_status@@@Z 10066a85 f   libucrt:_fenvutils.obj
 0001:00065ac9       ??$translate_status@W4__acrt_fenv_machine_sse_status@@W4__acrt_fenv_abstract_status@@@@YA?AW4__acrt_fenv_machine_sse_status@@W4__acrt_fenv_abstract_status@@@Z 10066ac9 f   libucrt:_fenvutils.obj
 0001:00065b03       ??$translate_status@W4__acrt_fenv_machine_x87_status@@W4__acrt_fenv_abstract_status@@@@YA?AW4__acrt_fenv_machine_x87_status@@W4__acrt_fenv_abstract_status@@@Z 10066b03 f   libucrt:_fenvutils.obj
 0001:00065cd5       ?get_machine_sse_control@@YA?AW4__acrt_fenv_machine_sse_control@@XZ 10066cd5 f   libucrt:_fenvutils.obj
 0001:00065cf6       ?get_machine_sse_status@@YA?AW4__acrt_fenv_machine_sse_status@@XZ 10066cf6 f   libucrt:_fenvutils.obj
 0001:00065d15       ?get_machine_x87_control@@YA?AW4__acrt_fenv_machine_x87_control@@XZ 10066d15 f   libucrt:_fenvutils.obj
 0001:00065d39       ?get_machine_x87_status@@YA?AW4__acrt_fenv_machine_x87_status@@XZ 10066d39 f   libucrt:_fenvutils.obj
 0001:00065d51       ?set_machine_sse_control@@YAXW4__acrt_fenv_machine_sse_control@@@Z 10066d51 f   libucrt:_fenvutils.obj
 0001:00065d8a       ?set_machine_sse_status@@YAXW4__acrt_fenv_machine_sse_status@@@Z 10066d8a f   libucrt:_fenvutils.obj
 0001:00065db4       ?set_machine_x87_control@@YAXW4__acrt_fenv_machine_x87_control@@@Z 10066db4 f   libucrt:_fenvutils.obj
 0001:00065de2       ?set_machine_x87_status@@YAXW4__acrt_fenv_machine_x87_status@@@Z 10066de2 f   libucrt:_fenvutils.obj
 0001:00065e0e       ?to_abstract_control@@YA?AW4__acrt_fenv_abstract_control@@W4__acrt_fenv_machine_sse_control@@@Z 10066e0e f   libucrt:_fenvutils.obj
 0001:00065ebe       ?to_abstract_control@@YA?AW4__acrt_fenv_abstract_control@@W4__acrt_fenv_machine_x87_control@@@Z 10066ebe f   libucrt:_fenvutils.obj
 0001:00065f6b       ?to_machine_sse_control@@YA?AW4__acrt_fenv_machine_sse_control@@W4__acrt_fenv_abstract_control@@@Z 10066f6b f   libucrt:_fenvutils.obj
 0001:00066021       ?to_machine_sse_status@@YA?AW4__acrt_fenv_machine_sse_status@@W4__acrt_fenv_abstract_status@@@Z 10067021 f   libucrt:_fenvutils.obj
 0001:00066068       ?to_machine_x87_control@@YA?AW4__acrt_fenv_machine_x87_control@@W4__acrt_fenv_abstract_control@@@Z 10067068 f   libucrt:_fenvutils.obj
 0001:0006611e       ?to_machine_x87_status@@YA?AW4__acrt_fenv_machine_x87_status@@W4__acrt_fenv_abstract_status@@@Z 1006711e f   libucrt:_fenvutils.obj
 0001:00066165       ?translate_control_denormal_control_from_sse@@YA?AW4__acrt_fenv_abstract_control@@W4__acrt_fenv_machine_sse_control@@@Z 10067165 f   libucrt:_fenvutils.obj
 0001:000661a0       ?translate_control_denormal_control_to_sse@@YA?AW4__acrt_fenv_machine_sse_control@@W4__acrt_fenv_abstract_control@@@Z 100671a0 f   libucrt:_fenvutils.obj
 0001:000664f0       ?shortsort@@YAXPAD0IP6AHPBX1@Z@Z 100674f0 f   libucrt:qsort.obj
 0001:00066570       ?swap@@YAXPAD0I@Z          10067570 f   libucrt:qsort.obj
 0001:00066a9e       ??$common_tcsncpy_s@D@@YAHQADIQBDI@Z 10067a9e f   libucrt:strncpy_s.obj
 0001:00066b60       $$000000                   10067b60     libucrt:strpbrk.obj
 0001:00066c44       ?initialize_multibyte@@YAHXZ 10067c44 f   libucrt:multibyte_initializer.obj
 0001:00066f49       ??$console_output_reopen_and_retry@V<lambda_61c1b8a38cedca4df5fdc542e6ccae6d>@@@@YAHABV<lambda_61c1b8a38cedca4df5fdc542e6ccae6d>@@@Z 10067f49 f   libucrt:initcon.obj
 0001:00066fa1       ??0<lambda_61c1b8a38cedca4df5fdc542e6ccae6d>@@QAE@ABQBXABKABQAK@Z 10067fa1 f   libucrt:initcon.obj
 0001:00066fc3       ??R<lambda_61c1b8a38cedca4df5fdc542e6ccae6d>@@QBEHXZ 10067fc3 f   libucrt:initcon.obj
 0001:00066fda       ?__dcrt_lowio_initialize_console_output@@YAXXZ 10067fda f   libucrt:initcon.obj
 0001:0006711a       ??$common_show_message_box@D@@YAHQBD0I@Z 1006811a f   libucrt:crtmbox.obj
 0001:00067197       ??$common_show_message_box@_W@@YAHQB_W0I@Z 10068197 f   libucrt:crtmbox.obj
 0001:000672ce       ??$common_xtox@KD@@YAHKQADII_N@Z 100682ce f   libucrt:xtoa.obj
 0001:0006736e       ??$common_xtox@K_W@@YAHKQA_WII_N@Z 1006836e f   libucrt:xtoa.obj
 0001:00067421       ??$common_xtox@_KD@@YAH_KQADII_N@Z 10068421 f   libucrt:xtoa.obj
 0001:000674e8       ??$common_xtox@_K_W@@YAH_KQA_WII_N@Z 100684e8 f   libucrt:xtoa.obj
 0001:000675c4       ??$common_xtox_s@KD@@YAHKQADII_N@Z 100685c4 f   libucrt:xtoa.obj
 0001:00067634       ??$common_xtox_s@K_W@@YAHKQA_WII_N@Z 10068634 f   libucrt:xtoa.obj
 0001:000676a6       ??$common_xtox_s@_KD@@YAH_KQADII_N@Z 100686a6 f   libucrt:xtoa.obj
 0001:00067719       ??$common_xtox_s@_K_W@@YAH_KQA_WII_N@Z 10068719 f   libucrt:xtoa.obj
 0001:00067b50       $$000000                   10068b50     libucrt:_strnicm.obj
 0001:00067e08       ??$?RV<lambda_2c87c0f1c5824a8f466464d223ae2adf>@@AAV<lambda_da54eedf1eca897cab5ed6d42fa6c58d>@@V<lambda_9b5bb9a9a5e973ce95cdde156d85e5dc>@@@?$__crt_seh_guarded_call@H@@QAEH$$QAV<lambda_2c87c0f1c5824a8f466464d223ae2adf>@@AAV<lambda_da54eedf1eca897cab5ed6d42fa6c58d>@@$$QAV<lambda_9b5bb9a9a5e973ce95cdde156d85e5dc>@@@Z 10068e08 f   libucrt:chsize.obj
 0001:00067e9e       ??$__acrt_lowio_lock_fh_and_call@V<lambda_da54eedf1eca897cab5ed6d42fa6c58d>@@@@YAHH$$QAV<lambda_da54eedf1eca897cab5ed6d42fa6c58d>@@@Z 10068e9e f   libucrt:chsize.obj
 0001:00067ec4       ??0<lambda_2c87c0f1c5824a8f466464d223ae2adf>@@QAE@ABH@Z 10068ec4 f   libucrt:chsize.obj
 0001:00067ed6       ??0<lambda_9b5bb9a9a5e973ce95cdde156d85e5dc>@@QAE@ABH@Z 10068ed6 f   libucrt:chsize.obj
 0001:00067ee8       ??0<lambda_da54eedf1eca897cab5ed6d42fa6c58d>@@QAE@ABHAB_JAAV__crt_cached_ptd_host@@@Z 10068ee8 f   libucrt:chsize.obj
 0001:00067f64       ??R<lambda_2c87c0f1c5824a8f466464d223ae2adf>@@QBEXXZ 10068f64 f   libucrt:chsize.obj
 0001:00067f6d       ??R<lambda_9b5bb9a9a5e973ce95cdde156d85e5dc>@@QBEXXZ 10068f6d f   libucrt:chsize.obj
 0001:00067f76       ??R<lambda_da54eedf1eca897cab5ed6d42fa6c58d>@@QBEHXZ 10068f76 f   libucrt:chsize.obj
 0001:00067fc1       ?_chsize_s_internal@@YAHH_JAAV__crt_cached_ptd_host@@@Z 10068fc1 f   libucrt:chsize.obj
 0001:00068778       ___abstract_cw_sse2        10069778 f   libucrt:ieee87.obj
 0001:00068822       ___abstract_sw_sse2        10069822 f   libucrt:ieee87.obj
 0001:00068865       ___clearfp_sse2            10069865 f   libucrt:ieee87.obj
 0001:00068bd3       ___control87_sse2          10069bd3 f   libucrt:ieee87.obj
 0001:00068d5f       ___hw_cw_sse2              10069d5f f   libucrt:ieee87.obj
 0001:00068e06       ___statusfp_sse2           10069e06 f   libucrt:ieee87.obj
 0001:00068e47       __abstract_cw              10069e47 f   libucrt:ieee87.obj
 0001:00068ee6       __abstract_sw              10069ee6 f   libucrt:ieee87.obj
 0001:0006935a       __hw_cw                    1006a35a f   libucrt:ieee87.obj
 0001:0006977a       ?_mbstowcs_internal@@YAHPAIPA_WIPBDIAAV__crt_cached_ptd_host@@@Z 1006a77a f   libucrt:mbstowcs.obj
 0001:0006985a       ?_mbstowcs_l_helper@@YAIPA_WPBDIAAV__crt_cached_ptd_host@@@Z 1006a85a f   libucrt:mbstowcs.obj
 0001:00069c82       ?fperrraise_with@@YAXHK@Z  1006ac82 f   libucrt:_test.obj
 0001:0006a400       $$000000                   1006b400     LIBCMT:ulldvrm.obj
 0001:0006a431       L1                         1006b431     LIBCMT:ulldvrm.obj
 0001:0006a43f       L3                         1006b43f     LIBCMT:ulldvrm.obj
 0001:0006a46d       L4                         1006b46d     LIBCMT:ulldvrm.obj
 0001:0006a476       L5                         1006b476     LIBCMT:ulldvrm.obj
 0001:0006a478       L2                         1006b478     LIBCMT:ulldvrm.obj
 0001:0006a4f0       $$000000                   1006b4f0     LIBCMT:llmul.obj
 0001:0006a509       hard                       1006b509     LIBCMT:llmul.obj
 0001:0006a530       $$000000                   1006b530     LIBCMT:ulldiv.obj
 0001:0006a552       L1                         1006b552     LIBCMT:ulldiv.obj
 0001:0006a560       L3                         1006b560     LIBCMT:ulldiv.obj
 0001:0006a58e       L4                         1006b58e     LIBCMT:ulldiv.obj
 0001:0006a58f       L5                         1006b58f     LIBCMT:ulldiv.obj
 0001:0006a593       L2                         1006b593     LIBCMT:ulldiv.obj
 0001:0006a5a0       $$000000                   1006b5a0     LIBCMT:lldvrm.obj
 0001:0006a5c4       L1                         1006b5c4     LIBCMT:lldvrm.obj
 0001:0006a5e0       L2                         1006b5e0     LIBCMT:lldvrm.obj
 0001:0006a60c       L3                         1006b60c     LIBCMT:lldvrm.obj
 0001:0006a61a       L5                         1006b61a     LIBCMT:lldvrm.obj
 0001:0006a648       L6                         1006b648     LIBCMT:lldvrm.obj
 0001:0006a651       L7                         1006b651     LIBCMT:lldvrm.obj
 0001:0006a653       L4                         1006b653     LIBCMT:lldvrm.obj
 0001:0006a665       L9                         1006b665     LIBCMT:lldvrm.obj
 0001:0006a679       L8                         1006b679     LIBCMT:lldvrm.obj
 0001:0006a680       $$000000                   1006b680     LIBCMT:llshl.obj
 0001:0006a690       MORE32                     1006b690     LIBCMT:llshl.obj
 0001:0006a69a       RETZERO                    1006b69a     LIBCMT:llshl.obj
 0001:0006a6a0       $$000000                   1006b6a0     LIBCMT:ullshr.obj
 0001:0006a6b0       MORE32                     1006b6b0     LIBCMT:ullshr.obj
 0001:0006a6ba       RETZERO                    1006b6ba     LIBCMT:ullshr.obj
 0001:0006a6c0       $$000000                   1006b6c0     LIBCMT:alloca16.obj
 0001:0006a6d6       alloca_8                   1006b6d6     LIBCMT:alloca16.obj
 0001:0006a972       _cmpBYTE                   1006b972 f   libvcruntime:memcmp.obj
 0001:0006a997       _cmpDWORD                  1006b997 f   libvcruntime:memcmp.obj
 0001:0006a9fc       _cmpResult                 1006b9fc f   libvcruntime:memcmp.obj
 0001:0006aa18       _cmpWORD                   1006ba18 f   libvcruntime:memcmp.obj
 0001:0006b8f3       $LN1250                    1006c8f3     libvcruntime:memcmp.obj
 0001:0006b973       _unaligned_memcmp          1006c973 f   libvcruntime:memcmp.obj
 0001:0006c737       $LN1179                    1006d737     libvcruntime:memcmp.obj
 0001:0006c7c0       $$000000                   1006d7c0     libvcruntime:strrchr.obj
 0001:0006c7fd       strrchr_sse_loop           1006d7fd     libvcruntime:strrchr.obj
 0001:0006c82d       strrchr_sse_break          1006d82d     libvcruntime:strrchr.obj
 0001:0006c84d       strrchr_sttni              1006d84d     libvcruntime:strrchr.obj
 0001:0006c85f       strrchr_sttni_chars        1006d85f     libvcruntime:strrchr.obj
 0001:0006c874       strrchr_sttni_aligned      1006d874     libvcruntime:strrchr.obj
 0001:0006c878       strrchr_sttni_xmm          1006d878     libvcruntime:strrchr.obj
 0001:0006c88b       exit                       1006d88b     libvcruntime:strrchr.obj
 0001:0006c88e       strrchr_zero               1006d88e     libvcruntime:strrchr.obj
 0001:0006c8b3       strchr_zero_loop           1006d8b3     libvcruntime:strrchr.obj
 0001:0006c8c7       strchr_zero_result         1006d8c7     libvcruntime:strrchr.obj
 0001:0006c8ce       strrchr_no_sse             1006d8ce     libvcruntime:strrchr.obj
 0001:0006c8f1       returndi                   1006d8f1     libvcruntime:strrchr.obj
 0001:0006c8f3       toend                      1006d8f3     libvcruntime:strrchr.obj
 0001:0006c900       $$000000                   1006d900     libvcruntime:strchr.obj
 0001:0006c933       strchr_sse_loop            1006d933     libvcruntime:strchr.obj
 0001:0006c957       strchr_sse_break           1006d957     libvcruntime:strchr.obj
 0001:0006c968       strchr_no_sse2             1006d968     libvcruntime:strchr.obj
 0001:0006c980       str_misaligned             1006d980     libvcruntime:strchr.obj
 0001:0006c995       main_loop_start            1006d995     libvcruntime:strchr.obj
 0001:0006c9a0       main_loop                  1006d9a0     libvcruntime:strchr.obj
 0001:0006c9dc       retnull                    1006d9dc     libvcruntime:strchr.obj
 0001:0006c9de       retnull_bx                 1006d9de     libvcruntime:strchr.obj
 0001:0006c9e2       found_bx                   1006d9e2     libvcruntime:strchr.obj
 0001:0006c9e7       chr_is_found               1006d9e7     libvcruntime:strchr.obj
 0001:0006ca0f       byte_3                     1006da0f     libvcruntime:strchr.obj
 0001:0006ca16       byte_2                     1006da16     libvcruntime:strchr.obj
 0001:0006ca1d       byte_1                     1006da1d     libvcruntime:strchr.obj
 0001:0006ca24       byte_0                     1006da24     libvcruntime:strchr.obj
 0001:0006cb6a       __unwindfunclet$?getDecoratedName@UnDecorator@@CA?AVDName@@XZ$0 1006db6a f   libvcruntime:undname.obj
 0001:0006cb77       __ehhandler$?getDecoratedName@UnDecorator@@CA?AVDName@@XZ 1006db77 f   libvcruntime:undname.obj
 0001:0006cb94       __ehhandler$?CallUnexpected@@YAXPBU_s_ESTypeList@@@Z 1006db94 f   libvcruntime:frame.obj
 0001:0006cbb1       __ehhandler$??$__acrt_lock_and_call@V<lambda_6e4b09c48022b2350581041d5f6b0c4c>@@@@YAXW4__acrt_lock_id@@$$QAV<lambda_6e4b09c48022b2350581041d5f6b0c4c>@@@Z 1006dbb1 f   libucrt:exit.obj
 0001:0006cbce       __ehhandler$?common_exit@@YAXHW4_crt_exit_cleanup_mode@@W4_crt_exit_return_mode@@@Z 1006dbce f   libucrt:exit.obj
 0001:0006cbeb       __ehhandler$?try_cor_exit_process@@YAXI@Z 1006dbeb f   libucrt:exit.obj
 0001:0006cc08       __ehhandler$??$uninitialize@A6AXAAPAPAD@_E@?$dual_state_global@PAPAD@__crt_state_management@@QAEXA6AXAAPAPAD@_E@Z 1006dc08 f   libucrt:environment_initialization.obj
 0001:0006cc25       __ehhandler$??$uninitialize@A6AXAAPAPA_W@_E@?$dual_state_global@PAPA_W@__crt_state_management@@QAEXA6AXAAPAPA_W@_E@Z 1006dc25 f   libucrt:environment_initialization.obj
 0001:0006cc42       __ehhandler$___dcrt_uninitialize_environments_nolock 1006dc42 f   libucrt:environment_initialization.obj
 0001:0006cc5f       __ehhandler$??$__acrt_lock_and_call@V<lambda_f03950bc5685219e0bcd2087efbe011e>@@@@YAHW4__acrt_lock_id@@$$QAV<lambda_f03950bc5685219e0bcd2087efbe011e>@@@Z 1006dc5f f   libucrt:onexit.obj
 0001:0006cc7c       __ehhandler$__execute_onexit_table 1006dc7c f   libucrt:onexit.obj
 0001:0006cc99       __ehhandler$?write_double_translated_ansi_nolock@@YA?AUwrite_result@?A0x17268360@@HQBDIAAV__crt_cached_ptd_host@@@Z 1006dc99 f   libucrt:write.obj
 0001:0006ccc3       __ehhandler$?_mbrtowc_internal@@YAHPAHPA_WPBDIPAU_Mbstatet@@AAV__crt_cached_ptd_host@@@Z 1006dcc3 f   libucrt:mbrtowc.obj
 0001:0006cce0       __ehhandler$?_mbsrtowcs_helper@@YAIPA_WPAPBDIPAU_Mbstatet@@AAV__crt_cached_ptd_host@@@Z 1006dce0 f   libucrt:mbrtowc.obj
 0001:0006ccfd       __ehhandler$?_mbstowcs_l_helper@@YAIPA_WPBDIAAV__crt_cached_ptd_host@@@Z 1006dcfd f   libucrt:mbstowcs.obj
 0002:00001850       two32                      1006f850     LIBCMT:ftol2.obj
 0002:00001854       two63                      1006f854     LIBCMT:ftol2.obj
 0002:00001858       _NaN                       1006f858     LIBCMT:ftol2.obj
 0002:00001860       _NaN                       1006f860     LIBCMT:ftol3.obj
 0002:00001864       _onept5                    1006f864     LIBCMT:ftol3.obj
 0002:00001868       _DP2to32                   1006f868     LIBCMT:ftol3.obj
 0002:00001868       _Int32ToUInt32             1006f868     LIBCMT:ftol3.obj
 0002:0000187c       _GS_ExceptionPointers      1006f87c     LIBCMT:gs_report.obj
 0002:00001888       ?tokenTable@@3QBUStringLiteral@@B 1006f888     libvcruntime:undname.obj
 0002:00001908       ?nameTable@@3QBUStringLiteral@@B 1006f908     libvcruntime:undname.obj
 0002:00001ba0       ?rttiTable@@3QBUStringLiteral@@B 1006fba0     libvcruntime:undname.obj
 0002:00001bc8       ?IndirectionName@@3QBUStringLiteral@@B 1006fbc8     libvcruntime:undname.obj
 0002:00001bf8       ?PrefixName@@3QBUStringLiteral@@B 1006fbf8     libvcruntime:undname.obj
 0002:000026c8       ?result@?1??IsValidIdentChar@@YA_ND@Z@4U<unnamed-type-result>@?1??InitValidIdentChar@@YA@XZ@B 100706c8     libvcruntime:undname.obj
 0002:00002800       ?module_names@?A0x87e98a64@@3QBQB_WB 10070800     libvcruntime:winapi_downlevel.obj
 0002:000028a8       ?candidate_modules@?1??try_get_FlsAlloc@@YAP6GKP6GXPAX@Z@ZXZ@4QBW4module_id@?A0x87e98a64@@B 100708a8     libvcruntime:winapi_downlevel.obj
 0002:000028bc       ?candidate_modules@?1??try_get_FlsFree@@YAP6GHK@ZXZ@4QBW4module_id@?A0x87e98a64@@B 100708bc     libvcruntime:winapi_downlevel.obj
 0002:000028cc       ?candidate_modules@?1??try_get_FlsGetValue@@YAP6GPAXK@ZXZ@4QBW4module_id@?A0x87e98a64@@B 100708cc     libvcruntime:winapi_downlevel.obj
 0002:000028e0       ?candidate_modules@?1??try_get_FlsSetValue@@YAP6GHKPAX@ZXZ@4QBW4module_id@?A0x87e98a64@@B 100708e0     libvcruntime:winapi_downlevel.obj
 0002:000028f4       ?candidate_modules@?1??try_get_InitializeCriticalSectionEx@@YAP6GHPAU_RTL_CRITICAL_SECTION@@KK@ZXZ@4QBW4module_id@?A0x87e98a64@@B 100708f4     libvcruntime:winapi_downlevel.obj
 0002:00002960       SC_1                       10070960     libucrt:cos_sse2_precise.obj
 0002:00002970       SC_2                       10070970     libucrt:cos_sse2_precise.obj
 0002:00002980       SC_3                       10070980     libucrt:cos_sse2_precise.obj
 0002:00002990       SC_4                       10070990     libucrt:cos_sse2_precise.obj
 0002:000029a0       PI32INV                    100709a0     libucrt:cos_sse2_precise.obj
 0002:000029a8       SHIFTER                    100709a8     libucrt:cos_sse2_precise.obj
 0002:000029b0       P_2                        100709b0     libucrt:cos_sse2_precise.obj
 0002:000029c0       P_1                        100709c0     libucrt:cos_sse2_precise.obj
 0002:000029c8       P_3                        100709c8     libucrt:cos_sse2_precise.obj
 0002:000029d0       TWO_POW_55                 100709d0     libucrt:cos_sse2_precise.obj
 0002:000029d8       TWO_POW_M55                100709d8     libucrt:cos_sse2_precise.obj
 0002:000029e0       ALL_ONES                   100709e0     libucrt:cos_sse2_precise.obj
 0002:000029e8       NEG_ZERO                   100709e8     libucrt:cos_sse2_precise.obj
 0002:000029f0       ONE                        100709f0     libucrt:cos_sse2_precise.obj
 0002:00002a00       SIGN_MASK                  10070a00     libucrt:cos_sse2_precise.obj
 0002:00002a10       SC_1                       10070a10     libucrt:sin_sse2_precise.obj
 0002:00002a20       SC_2                       10070a20     libucrt:sin_sse2_precise.obj
 0002:00002a30       SC_3                       10070a30     libucrt:sin_sse2_precise.obj
 0002:00002a40       SC_4                       10070a40     libucrt:sin_sse2_precise.obj
 0002:00002a50       PI32INV                    10070a50     libucrt:sin_sse2_precise.obj
 0002:00002a58       SHIFTER                    10070a58     libucrt:sin_sse2_precise.obj
 0002:00002a60       P_2                        10070a60     libucrt:sin_sse2_precise.obj
 0002:00002a70       P_1                        10070a70     libucrt:sin_sse2_precise.obj
 0002:00002a78       P_3                        10070a78     libucrt:sin_sse2_precise.obj
 0002:00002a80       TWO_POW_55                 10070a80     libucrt:sin_sse2_precise.obj
 0002:00002a88       TWO_POW_M55                10070a88     libucrt:sin_sse2_precise.obj
 0002:00002a90       ALL_ONES                   10070a90     libucrt:sin_sse2_precise.obj
 0002:00002a98       NEG_ZERO                   10070a98     libucrt:sin_sse2_precise.obj
 0002:00002aa0       ONE                        10070aa0     libucrt:sin_sse2_precise.obj
 0002:00002db0       Shifter                    10070db0     libucrt:pow_sse2_precise.obj
 0002:00002dc0       SIGMASK                    10070dc0     libucrt:pow_sse2_precise.obj
 0002:00002dd0       ONEMASK                    10070dd0     libucrt:pow_sse2_precise.obj
 0002:00002de0       ABSVALMASK                 10070de0     libucrt:pow_sse2_precise.obj
 0002:00002df0       cev                        10070df0     libucrt:pow_sse2_precise.obj
 0002:00002e18       HALFSIG                    10070e18     libucrt:pow_sse2_precise.obj
 0002:00002e20       LHN                        10070e20     libucrt:pow_sse2_precise.obj
 0002:00002e28       sNaN                       10070e28     libucrt:pow_sse2_precise.obj
 0002:00002e30       INF                        10070e30     libucrt:pow_sse2_precise.obj
 0002:00002e38       NEG_INF                    10070e38     libucrt:pow_sse2_precise.obj
 0002:00002e40       NEG_ZERO                   10070e40     libucrt:pow_sse2_precise.obj
 0002:00002e48       NEG_BIG                    10070e48     libucrt:pow_sse2_precise.obj
 0002:00002e50       POS_BIG                    10070e50     libucrt:pow_sse2_precise.obj
 0002:00002e58       EMIN                       10070e58     libucrt:pow_sse2_precise.obj
 0002:00002e60       QIND                       10070e60     libucrt:pow_sse2_precise.obj
 0002:00002e70       smask                      10070e70     libucrt:exp_sse2_precise.obj
 0002:00002e80       emask                      10070e80     libucrt:exp_sse2_precise.obj
 0002:00002e90       mmask                      10070e90     libucrt:exp_sse2_precise.obj
 0002:00002ea0       bias                       10070ea0     libucrt:exp_sse2_precise.obj
 0002:00002eb0       Shifter                    10070eb0     libucrt:exp_sse2_precise.obj
 0002:00002ec0       twom60                     10070ec0     libucrt:exp_sse2_precise.obj
 0002:00002ed0       cv                         10070ed0     libucrt:exp_sse2_precise.obj
 0002:00002f20       ONE_val                    10070f20     libucrt:exp_sse2_precise.obj
 0002:00002f28       EMIN                       10070f28     libucrt:exp_sse2_precise.obj
 0002:00002f30       MAX_ARG                    10070f30     libucrt:exp_sse2_precise.obj
 0002:00002f38       MIN_ARG                    10070f38     libucrt:exp_sse2_precise.obj
 0002:00002f40       INF                        10070f40     libucrt:exp_sse2_precise.obj
 0002:00002f48       QNAN_BIT                   10070f48     libucrt:exp_sse2_precise.obj
 0002:00002f50       ZERO                       10070f50     libucrt:exp_sse2_precise.obj
 0002:00002f58       XMAX                       10070f58     libucrt:exp_sse2_precise.obj
 0002:00002f60       XMIN                       10070f60     libucrt:exp_sse2_precise.obj
 0002:00002f68       Sm_Thres                   10070f68     libucrt:exp_sse2_precise.obj
 0002:00002f70       Del_Thres                  10070f70     libucrt:exp_sse2_precise.obj
 0002:00002f80       emask                      10070f80     libucrt:log_sse2_precise.obj
 0002:00002f90       Magic                      10070f90     libucrt:log_sse2_precise.obj
 0002:00002fa0       hi_mask                    10070fa0     libucrt:log_sse2_precise.obj
 0002:00002fb0       LOG_2                      10070fb0     libucrt:log_sse2_precise.obj
 0002:00002fc0       place_L                    10070fc0     libucrt:log_sse2_precise.obj
 0002:00002fe0       One                        10070fe0     libucrt:log_sse2_precise.obj
 0002:00002ff0       Zero                       10070ff0     libucrt:log_sse2_precise.obj
 0002:00003000       Two52                      10071000     libucrt:log_sse2_precise.obj
 0002:00003010       Infs                       10071010     libucrt:log_sse2_precise.obj
 0002:00003020       NaN                        10071020     libucrt:log_sse2_precise.obj
 0002:00003030       coeff                      10071030     libucrt:log_sse2_precise.obj
 0002:00003060       _One                       10071060     libucrt:ceil_pentium4.obj
 0002:00003070       _Bns                       10071070     libucrt:ceil_pentium4.obj
 0002:00003080       _Zero                      10071080     libucrt:ceil_pentium4.obj
 0002:00003090       _S                         10071090     libucrt:ceil_pentium4.obj
 0002:000030a0       _NegZero                   100710a0     libucrt:ceil_pentium4.obj
 0002:000030b0       emask                      100710b0     libucrt:log10_sse2_precise.obj
 0002:000030c0       CC                         100710c0     libucrt:log10_sse2_precise.obj
 0002:000030d0       Magic                      100710d0     libucrt:log10_sse2_precise.obj
 0002:000030e0       hi_mask                    100710e0     libucrt:log10_sse2_precise.obj
 0002:000030f0       LOG10_2                    100710f0     libucrt:log10_sse2_precise.obj
 0002:00003100       place_L                    10071100     libucrt:log10_sse2_precise.obj
 0002:00003120       One                        10071120     libucrt:log10_sse2_precise.obj
 0002:00003130       Zero                       10071130     libucrt:log10_sse2_precise.obj
 0002:00003140       Two52                      10071140     libucrt:log10_sse2_precise.obj
 0002:00003150       Infs                       10071150     libucrt:log10_sse2_precise.obj
 0002:00003160       NaN                        10071160     libucrt:log10_sse2_precise.obj
 0002:00003170       coeff                      10071170     libucrt:log10_sse2_precise.obj
 0002:000031b0       _mexp                      100711b0     libucrt:atan_sse2_precise.obj
 0002:000031c0       _mabs                      100711c0     libucrt:atan_sse2_precise.obj
 0002:000031d0       _pi_2d                     100711d0     libucrt:atan_sse2_precise.obj
 0002:000031e0       _d1400                     100711e0     libucrt:atan_sse2_precise.obj
 0002:000031f0       _d1213                     100711f0     libucrt:atan_sse2_precise.obj
 0002:00003200       _d1011                     10071200     libucrt:atan_sse2_precise.obj
 0002:00003210       _d89                       10071210     libucrt:atan_sse2_precise.obj
 0002:00003220       _d67                       10071220     libucrt:atan_sse2_precise.obj
 0002:00003230       _d45                       10071230     libucrt:atan_sse2_precise.obj
 0002:00003240       _d23                       10071240     libucrt:atan_sse2_precise.obj
 0002:00003250       _d01                       10071250     libucrt:atan_sse2_precise.obj
 0002:00003260       _p60                       10071260     libucrt:atan_sse2_precise.obj
 0002:00003270       _p45                       10071270     libucrt:atan_sse2_precise.obj
 0002:00003280       _p23                       10071280     libucrt:atan_sse2_precise.obj
 0002:00003290       _p01                       10071290     libucrt:atan_sse2_precise.obj
 0002:000032a0       _qnan_bit                  100712a0     libucrt:atan_sse2_precise.obj
 0002:000032a8       _cntshf                    100712a8     libucrt:atan_sse2_precise.obj
 0002:000032b0       _zero                      100712b0     libucrt:atan_sse2_precise.obj
 0002:000032b8       _onen                      100712b8     libucrt:atan_sse2_precise.obj
 0002:000032c0       _one                       100712c0     libucrt:atan_sse2_precise.obj
 0002:000032c8       _cnst8                     100712c8     libucrt:atan_sse2_precise.obj
 0002:000032d0       _in3                       100712d0     libucrt:atan_sse2_precise.obj
 0002:000032d8       _in2                       100712d8     libucrt:atan_sse2_precise.obj
 0002:000032e0       _in1                       100712e0     libucrt:atan_sse2_precise.obj
 0002:000032e8       _in0                       100712e8     libucrt:atan_sse2_precise.obj
 0002:000032f0       _in                        100712f0     libucrt:atan_sse2_precise.obj
 0002:000032f8       _minval                    100712f8     libucrt:atan_sse2_precise.obj
 0002:00003300       libm_small                 10071300     libucrt:atan_sse2_precise.obj
 0002:00003310       _One                       10071310     libucrt:floor_pentium4.obj
 0002:00003320       _Bns                       10071320     libucrt:floor_pentium4.obj
 0002:00003330       _NegOne                    10071330     libucrt:floor_pentium4.obj
 0002:00003340       _NegZero                   10071340     libucrt:floor_pentium4.obj
 0002:00003350       _S                         10071350     libucrt:floor_pentium4.obj
 0002:00003360       ?_names@?1??_get_fname@@9@4QBU<unnamed-type-_names>@?1??1@YAPADI@Z@B 10071360     libucrt:fpexcept.obj
 0002:000035b0       ___acrt_initializers       100715b0     libucrt:initialization.obj
 0002:00003630       _NAME_                     10071630     libucrt:cos_impl.obj
 0002:00003e40       _NAME_                     10071e40     libucrt:sin_impl.obj
 0002:00003e48       _INF                       10071e48     libucrt:libm_error.obj
 0002:00003e58       _BIG                       10071e58     libucrt:libm_error.obj
 0002:00003e68       _ZERO                      10071e68     libucrt:libm_error.obj
 0002:00003e78       _INF_32                    10071e78     libucrt:libm_error.obj
 0002:00003e80       _NAN_32                    10071e80     libucrt:libm_error.obj
 0002:00003e88       _ZERO_32                   10071e88     libucrt:libm_error.obj
 0002:00003e90       _libm_largef               10071e90     libucrt:libm_error.obj
 0002:00003e98       _libm_smallf               10071e98     libucrt:libm_error.obj
 0002:00003ea0       _libm_small                10071ea0     libucrt:libm_error.obj
 0002:00003eb0       ?errtable@@3QBUerrentry@?A0x31fdb9ec@@B 10071eb0     libucrt:errno.obj
 0002:00004018       ?module_names@?A0x391cf84c@@3QBQB_WB 10072018     libucrt:winapi_thunks.obj
 0002:000044cc       ?candidate_modules@?1??try_get_AreFileApisANSI@@YAP6GHXZXZ@4QBW4module_id@?A0x391cf84c@@B 100724cc     libucrt:winapi_thunks.obj
 0002:000044e0       ?candidate_modules@?1??try_get_CompareStringEx@@YAP6GHPB_WK0H0HPAU_nlsversioninfo@@PAXJ@ZXZ@4QBW4module_id@?A0x391cf84c@@B 100724e0     libucrt:winapi_thunks.obj
 0002:000044f8       ?candidate_modules@?1??try_get_EnumSystemLocalesEx@@YAP6GHP6GHPA_WKJ@ZKJPAX@ZXZ@4QBW4module_id@?A0x391cf84c@@B 100724f8     libucrt:winapi_thunks.obj
 0002:00004514       ?candidate_modules@?1??try_get_GetActiveWindow@@YAP6GPAUHWND__@@XZXZ@4QBW4module_id@?A0x391cf84c@@B 10072514     libucrt:winapi_thunks.obj
 0002:0000452c       ?candidate_modules@?1??try_get_GetDateFormatEx@@YAP6GHPB_WKPBU_SYSTEMTIME@@0PA_WH0@ZXZ@4QBW4module_id@?A0x391cf84c@@B 1007252c     libucrt:winapi_thunks.obj
 0002:00004544       ?candidate_modules@?1??try_get_GetEnabledXStateFeatures@@YAP6G_KXZXZ@4QBW4module_id@?A0x391cf84c@@B 10072544     libucrt:winapi_thunks.obj
 0002:00004568       ?candidate_modules@?1??try_get_GetLastActivePopup@@YAP6GPAUHWND__@@PAU2@@ZXZ@4QBW4module_id@?A0x391cf84c@@B 10072568     libucrt:winapi_thunks.obj
 0002:00004584       ?candidate_modules@?1??try_get_GetLocaleInfoEx@@YAP6GHPB_WKPA_WH@ZXZ@4QBW4module_id@?A0x391cf84c@@B 10072584     libucrt:winapi_thunks.obj
 0002:0000459c       ?candidate_modules@?1??try_get_GetProcessWindowStation@@YAP6GPAUHWINSTA__@@XZXZ@4QBW4module_id@?A0x391cf84c@@B 1007259c     libucrt:winapi_thunks.obj
 0002:000045bc       ?candidate_modules@?1??try_get_GetSystemTimePreciseAsFileTime@@YAP6GXPAU_FILETIME@@@ZXZ@4QBW4module_id@?A0x391cf84c@@B 100725bc     libucrt:winapi_thunks.obj
 0002:000045e0       ?candidate_modules@?1??try_get_GetTimeFormatEx@@YAP6GHPB_WKPBU_SYSTEMTIME@@0PA_WH@ZXZ@4QBW4module_id@?A0x391cf84c@@B 100725e0     libucrt:winapi_thunks.obj
 0002:000045f8       ?candidate_modules@?1??try_get_GetUserDefaultLocaleName@@YAP6GHPA_WH@ZXZ@4QBW4module_id@?A0x391cf84c@@B 100725f8     libucrt:winapi_thunks.obj
 0002:0000461c       ?candidate_modules@?1??try_get_GetUserObjectInformationW@@YAP6GHPAXH0KPAK@ZXZ@4QBW4module_id@?A0x391cf84c@@B 1007261c     libucrt:winapi_thunks.obj
 0002:00004640       ?candidate_modules@?1??try_get_GetXStateFeaturesMask@@YAP6GHPAU_CONTEXT@@PA_K@ZXZ@4QBW4module_id@?A0x391cf84c@@B 10072640     libucrt:winapi_thunks.obj
 0002:00004660       ?candidate_modules@?1??try_get_InitializeCriticalSectionEx@@YAP6GHPAU_RTL_CRITICAL_SECTION@@KK@ZXZ@4QBW4module_id@?A0x391cf84c@@B 10072660     libucrt:winapi_thunks.obj
 0002:00004668       ?candidate_modules@?1??try_get_IsValidLocaleName@@YAP6GHPB_W@ZXZ@4QBW4module_id@?A0x391cf84c@@B 10072668     libucrt:winapi_thunks.obj
 0002:00004684       ?candidate_modules@?1??try_get_LCMapStringEx@@YAP6GHPB_WK0HPA_WHPAU_nlsversioninfo@@PAXJ@ZXZ@4QBW4module_id@?A0x391cf84c@@B 10072684     libucrt:winapi_thunks.obj
 0002:0000469c       ?candidate_modules@?1??try_get_LCIDToLocaleName@@YAP6GHKPA_WHK@ZXZ@4QBW4module_id@?A0x391cf84c@@B 1007269c     libucrt:winapi_thunks.obj
 0002:000046b8       ?candidate_modules@?1??try_get_LocaleNameToLCID@@YAP6GKPB_WK@ZXZ@4QBW4module_id@?A0x391cf84c@@B 100726b8     libucrt:winapi_thunks.obj
 0002:000046d4       ?candidate_modules@?1??try_get_LocateXStateFeature@@YAP6GPAXPAU_CONTEXT@@KPAK@ZXZ@4QBW4module_id@?A0x391cf84c@@B 100726d4     libucrt:winapi_thunks.obj
 0002:000046f0       ?candidate_modules@?1??try_get_MessageBoxA@@YAP6GHPAUHWND__@@PBD1I@ZXZ@4QBW4module_id@?A0x391cf84c@@B 100726f0     libucrt:winapi_thunks.obj
 0002:00004704       ?candidate_modules@?1??try_get_MessageBoxW@@YAP6GHPAUHWND__@@PB_W1I@ZXZ@4QBW4module_id@?A0x391cf84c@@B 10072704     libucrt:winapi_thunks.obj
 0002:00004718       ?candidate_modules@?1??try_get_RoInitialize@@YAP6GJW4RO_INIT_TYPE@@@ZXZ@4QBW4module_id@?A0x391cf84c@@B 10072718     libucrt:winapi_thunks.obj
 0002:0000472c       ?candidate_modules@?1??try_get_RoUninitialize@@YAP6GXXZXZ@4QBW4module_id@?A0x391cf84c@@B 1007272c     libucrt:winapi_thunks.obj
 0002:00004740       ?candidate_modules@?1??try_get_AppPolicyGetProcessTerminationMethod@@YAP6GJPAXPAW4AppPolicyProcessTerminationMethod@@@ZXZ@4QBW4module_id@?A0x391cf84c@@B 10072740     libucrt:winapi_thunks.obj
 0002:0000476c       ?candidate_modules@?1??try_get_AppPolicyGetThreadInitializationType@@YAP6GJPAXPAW4AppPolicyThreadInitializationType@@@ZXZ@4QBW4module_id@?A0x391cf84c@@B 1007276c     libucrt:winapi_thunks.obj
 0002:00004798       ?candidate_modules@?1??try_get_AppPolicyGetShowDeveloperDiagnostic@@YAP6GJPAXPAW4AppPolicyShowDeveloperDiagnostic@@@ZXZ@4QBW4module_id@?A0x391cf84c@@B 10072798     libucrt:winapi_thunks.obj
 0002:000047c0       ?candidate_modules@?1??try_get_AppPolicyGetWindowingModel@@YAP6GJPAXPAW4AppPolicyWindowingModel@@@ZXZ@4QBW4module_id@?A0x391cf84c@@B 100727c0     libucrt:winapi_thunks.obj
 0002:000047e0       ?candidate_modules@?1??try_get_SetThreadStackGuarantee@@YAP6GHPAK@ZXZ@4QBW4module_id@?A0x391cf84c@@B 100727e0     libucrt:winapi_thunks.obj
 0002:00004800       ?candidate_modules@?1??try_get_SystemFunction036@@YAP6GEPAXK@ZXZ@4QBW4module_id@?A0x391cf84c@@B 10072800     libucrt:winapi_thunks.obj
 0002:0000481c       ?candidate_modules@?1??try_get_FlsAlloc@@YAP6GKP6GXPAX@Z@ZXZ@4QBW4module_id@?A0x391cf84c@@B 1007281c     libucrt:winapi_thunks.obj
 0002:00004824       ?candidate_modules@?1??try_get_FlsFree@@YAP6GHK@ZXZ@4QBW4module_id@?A0x391cf84c@@B 10072824     libucrt:winapi_thunks.obj
 0002:0000482c       ?candidate_modules@?1??try_get_FlsGetValue@@YAP6GPAXK@ZXZ@4QBW4module_id@?A0x391cf84c@@B 1007282c     libucrt:winapi_thunks.obj
 0002:00004834       ?candidate_modules@?1??try_get_FlsSetValue@@YAP6GHKPAX@ZXZ@4QBW4module_id@?A0x391cf84c@@B 10072834     libucrt:winapi_thunks.obj
 0002:00004840       __first_127char            10072840     libucrt:wsetlocale.obj
 0002:00004f30       ?strings@?1??fp_format_nan_or_infinity@@YAHW4__acrt_fp_class@@_NPADI1@Z@4QAY03QBDA 10072f30     libucrt:cvt.obj
 0002:00005760       POW_name                   10073760     libucrt:pow_impl.obj
 0002:000093f0       _tanhmaxarg                100773f0     libucrt:87trigh.obj
 0002:00009460       DblMax                     10077460     libucrt:87cdisp.obj
 0002:00009468       DblMin                     10077468     libucrt:87cdisp.obj
 0002:00009470       IeeeAdjO                   10077470     libucrt:87cdisp.obj
 0002:00009478       IeeeAdjU                   10077478     libucrt:87cdisp.obj
 0002:00009480       _infinity                  10077480     libucrt:87cdisp.obj
 0002:00009488       _zero                      10077488     libucrt:87cdisp.obj
 0002:00009490       LOG_name                   10077490     libucrt:log_impl.obj
 0002:00009cc0       _newcw                     10077cc0     libucrt:ceil.obj
 0002:00009cd0       LOG_name                   10077cd0     libucrt:log10_impl.obj
 0002:0000a500       _NAME_                     10078500     libucrt:atan_impl.obj
 0002:0000bd18       _newcw                     10079d18     libucrt:floor.obj
 0002:0000bd48       _over                      10079d48     libucrt:fpctrl.obj
 0002:0000bd54       _under                     10079d54     libucrt:fpctrl.obj
 0002:0000bd60       ?_mb_locale_names@@3QBQB_WB 10079d60     libucrt:mbctype.obj
 0002:0000c5b0       SC_1                       1007a5b0     libucrt:cos_pentium4.obj
 0002:0000c5c0       SC_2                       1007a5c0     libucrt:cos_pentium4.obj
 0002:0000c5d0       SC_3                       1007a5d0     libucrt:cos_pentium4.obj
 0002:0000c5e0       SC_4                       1007a5e0     libucrt:cos_pentium4.obj
 0002:0000c5f0       PI32INV                    1007a5f0     libucrt:cos_pentium4.obj
 0002:0000c5f8       SHIFTER                    1007a5f8     libucrt:cos_pentium4.obj
 0002:0000c600       P_2                        1007a600     libucrt:cos_pentium4.obj
 0002:0000c610       P_1                        1007a610     libucrt:cos_pentium4.obj
 0002:0000c618       P_3                        1007a618     libucrt:cos_pentium4.obj
 0002:0000c620       TWO_POW_55                 1007a620     libucrt:cos_pentium4.obj
 0002:0000c628       TWO_POW_M55                1007a628     libucrt:cos_pentium4.obj
 0002:0000c630       ALL_ONES                   1007a630     libucrt:cos_pentium4.obj
 0002:0000c638       NEG_ZERO                   1007a638     libucrt:cos_pentium4.obj
 0002:0000c640       ONE                        1007a640     libucrt:cos_pentium4.obj
 0002:0000c650       SIGN_MASK                  1007a650     libucrt:cos_pentium4.obj
 0002:0000c67e       One                        1007a67e     libucrt:87disp.obj
 0002:0000c686       Three                      1007a686     libucrt:87disp.obj
 0002:0000c68e       XAMtoTagTab                1007a68e     libucrt:87disp.obj
 0002:0000c6a0       One                        1007a6a0     libucrt:common.obj
 0002:0000c6b4       DblMax                     1007a6b4     libucrt:common.obj
 0002:0000c6bc       DblMin                     1007a6bc     libucrt:common.obj
 0002:0000c6c4       IeeeAdjO                   1007a6c4     libucrt:common.obj
 0002:0000c6cc       IeeeAdjU                   1007a6cc     libucrt:common.obj
 0002:0000c6d4       _infinity                  1007a6d4     libucrt:common.obj
 0002:0000c6dc       _zero                      1007a6dc     libucrt:common.obj
 0002:0000c6f0       SC_1                       1007a6f0     libucrt:sin_pentium4.obj
 0002:0000c700       SC_2                       1007a700     libucrt:sin_pentium4.obj
 0002:0000c710       SC_3                       1007a710     libucrt:sin_pentium4.obj
 0002:0000c720       SC_4                       1007a720     libucrt:sin_pentium4.obj
 0002:0000c730       PI32INV                    1007a730     libucrt:sin_pentium4.obj
 0002:0000c738       SHIFTER                    1007a738     libucrt:sin_pentium4.obj
 0002:0000c740       P_2                        1007a740     libucrt:sin_pentium4.obj
 0002:0000c750       P_1                        1007a750     libucrt:sin_pentium4.obj
 0002:0000c758       P_3                        1007a758     libucrt:sin_pentium4.obj
 0002:0000c760       TWO_POW_55                 1007a760     libucrt:sin_pentium4.obj
 0002:0000c768       TWO_POW_M55                1007a768     libucrt:sin_pentium4.obj
 0002:0000c770       ALL_ONES                   1007a770     libucrt:sin_pentium4.obj
 0002:0000c778       NEG_ZERO                   1007a778     libucrt:sin_pentium4.obj
 0002:0000c780       ONE                        1007a780     libucrt:sin_pentium4.obj
 0002:0000c790       _NAME_                     1007a790     libucrt:sqrt_impl.obj
 0002:0000c798       ?LcidToLocaleNameTable@?A0x881e4c05@@3QBULcidToLocaleName@1@B 1007a798     libucrt:lcidtoname_downlevel.obj
 0002:0000d8c0       ?LocaleNameToIndexTable@?A0x881e4c05@@3QBULocaleNameIndex@1@B 1007b8c0     libucrt:lcidtoname_downlevel.obj
 0002:00010090       Shifter                    1007e090     libucrt:pow_pentium4.obj
 0002:000100a0       SIGMASK                    1007e0a0     libucrt:pow_pentium4.obj
 0002:000100b0       ONEMASK                    1007e0b0     libucrt:pow_pentium4.obj
 0002:000100c0       ABSVALMASK                 1007e0c0     libucrt:pow_pentium4.obj
 0002:000100d0       cev                        1007e0d0     libucrt:pow_pentium4.obj
 0002:000100f8       HALFSIG                    1007e0f8     libucrt:pow_pentium4.obj
 0002:00010100       LHN                        1007e100     libucrt:pow_pentium4.obj
 0002:00010108       sNaN                       1007e108     libucrt:pow_pentium4.obj
 0002:00010110       INF                        1007e110     libucrt:pow_pentium4.obj
 0002:00010118       NEG_INF                    1007e118     libucrt:pow_pentium4.obj
 0002:00010120       NEG_ZERO                   1007e120     libucrt:pow_pentium4.obj
 0002:00010128       NEG_BIG                    1007e128     libucrt:pow_pentium4.obj
 0002:00010130       POS_BIG                    1007e130     libucrt:pow_pentium4.obj
 0002:00010138       EMIN                       1007e138     libucrt:pow_pentium4.obj
 0002:00010140       QIND                       1007e140     libucrt:pow_pentium4.obj
 0002:0001016e       _log2max                   1007e16e     libucrt:87tran.obj
 0002:00010178       _smallarg                  1007e178     libucrt:87tran.obj
 0002:00010182       _half                      1007e182     libucrt:87tran.obj
 0002:000101b0       smask                      1007e1b0     libucrt:exp_pentium4.obj
 0002:000101c0       emask                      1007e1c0     libucrt:exp_pentium4.obj
 0002:000101d0       mmask                      1007e1d0     libucrt:exp_pentium4.obj
 0002:000101e0       bias                       1007e1e0     libucrt:exp_pentium4.obj
 0002:000101f0       Shifter                    1007e1f0     libucrt:exp_pentium4.obj
 0002:00010200       twom60                     1007e200     libucrt:exp_pentium4.obj
 0002:00010210       cv                         1007e210     libucrt:exp_pentium4.obj
 0002:00010260       ONE_val                    1007e260     libucrt:exp_pentium4.obj
 0002:00010268       EMIN                       1007e268     libucrt:exp_pentium4.obj
 0002:00010270       MAX_ARG                    1007e270     libucrt:exp_pentium4.obj
 0002:00010278       MIN_ARG                    1007e278     libucrt:exp_pentium4.obj
 0002:00010280       INF                        1007e280     libucrt:exp_pentium4.obj
 0002:00010288       ZERO                       1007e288     libucrt:exp_pentium4.obj
 0002:00010290       XMAX                       1007e290     libucrt:exp_pentium4.obj
 0002:00010298       XMIN                       1007e298     libucrt:exp_pentium4.obj
 0002:000102a0       Sm_Thres                   1007e2a0     libucrt:exp_pentium4.obj
 0002:000102a8       Del_Thres                  1007e2a8     libucrt:exp_pentium4.obj
 0002:000102b0       emask                      1007e2b0     libucrt:log_pentium4.obj
 0002:000102c0       Magic                      1007e2c0     libucrt:log_pentium4.obj
 0002:000102d0       hi_mask                    1007e2d0     libucrt:log_pentium4.obj
 0002:000102e0       LOG_2                      1007e2e0     libucrt:log_pentium4.obj
 0002:000102f0       place_L                    1007e2f0     libucrt:log_pentium4.obj
 0002:00010310       One                        1007e310     libucrt:log_pentium4.obj
 0002:00010320       Zero                       1007e320     libucrt:log_pentium4.obj
 0002:00010330       Two52                      1007e330     libucrt:log_pentium4.obj
 0002:00010340       Infs                       1007e340     libucrt:log_pentium4.obj
 0002:00010350       NaN                        1007e350     libucrt:log_pentium4.obj
 0002:00010360       coeff                      1007e360     libucrt:log_pentium4.obj
 0002:00010390       emask                      1007e390     libucrt:log10_pentium4.obj
 0002:000103a0       CC                         1007e3a0     libucrt:log10_pentium4.obj
 0002:000103b0       Magic                      1007e3b0     libucrt:log10_pentium4.obj
 0002:000103c0       hi_mask                    1007e3c0     libucrt:log10_pentium4.obj
 0002:000103d0       LOG10_2                    1007e3d0     libucrt:log10_pentium4.obj
 0002:000103e0       place_L                    1007e3e0     libucrt:log10_pentium4.obj
 0002:00010400       One                        1007e400     libucrt:log10_pentium4.obj
 0002:00010410       Zero                       1007e410     libucrt:log10_pentium4.obj
 0002:00010420       Two52                      1007e420     libucrt:log10_pentium4.obj
 0002:00010430       Infs                       1007e430     libucrt:log10_pentium4.obj
 0002:00010440       NaN                        1007e440     libucrt:log10_pentium4.obj
 0002:00010450       coeff                      1007e450     libucrt:log10_pentium4.obj
 0002:00010490       _mexp                      1007e490     libucrt:atan_pentium4.obj
 0002:000104a0       _mabs                      1007e4a0     libucrt:atan_pentium4.obj
 0002:000104b0       _pi_2d                     1007e4b0     libucrt:atan_pentium4.obj
 0002:000104c0       _d1400                     1007e4c0     libucrt:atan_pentium4.obj
 0002:000104d0       _d1213                     1007e4d0     libucrt:atan_pentium4.obj
 0002:000104e0       _d1011                     1007e4e0     libucrt:atan_pentium4.obj
 0002:000104f0       _d89                       1007e4f0     libucrt:atan_pentium4.obj
 0002:00010500       _d67                       1007e500     libucrt:atan_pentium4.obj
 0002:00010510       _d45                       1007e510     libucrt:atan_pentium4.obj
 0002:00010520       _d23                       1007e520     libucrt:atan_pentium4.obj
 0002:00010530       _d01                       1007e530     libucrt:atan_pentium4.obj
 0002:00010540       _p60                       1007e540     libucrt:atan_pentium4.obj
 0002:00010550       _p45                       1007e550     libucrt:atan_pentium4.obj
 0002:00010560       _p23                       1007e560     libucrt:atan_pentium4.obj
 0002:00010570       _p01                       1007e570     libucrt:atan_pentium4.obj
 0002:00010580       _cntshf                    1007e580     libucrt:atan_pentium4.obj
 0002:00010588       _zero                      1007e588     libucrt:atan_pentium4.obj
 0002:00010590       _onen                      1007e590     libucrt:atan_pentium4.obj
 0002:00010598       _one                       1007e598     libucrt:atan_pentium4.obj
 0002:000105a0       _cnst8                     1007e5a0     libucrt:atan_pentium4.obj
 0002:000105a8       _in3                       1007e5a8     libucrt:atan_pentium4.obj
 0002:000105b0       _in2                       1007e5b0     libucrt:atan_pentium4.obj
 0002:000105b8       _in1                       1007e5b8     libucrt:atan_pentium4.obj
 0002:000105c0       _in0                       1007e5c0     libucrt:atan_pentium4.obj
 0002:000105c8       _in                        1007e5c8     libucrt:atan_pentium4.obj
 0002:000105d0       _minval                    1007e5d0     libucrt:atan_pentium4.obj
 0002:000105d8       libm_small                 1007e5d8     libucrt:atan_pentium4.obj
 0002:000105f0       ?commonFlags@?1??_control87@@9@9 1007e5f0     libucrt:ieee87.obj
 0002:000105f4       ?mask@?P@??_d_int@@9@4QBGB 1007e5f4     libucrt:_test.obj
 0002:00010614       ?sub@?P@??_d_int@@9@4QBIB  1007e614     libucrt:_test.obj
 0002:00010624       ?mask@?P@??_fd_int@@9@4QBGB 1007e624     libucrt:_test.obj
 0002:00010644       ?sub@?P@??_fd_int@@9@4QBIB 1007e644     libucrt:_test.obj
 0002:00011278       __sehtable$?dllmain_crt_process_attach@@YAHQAUHINSTANCE__@@QAX@Z 1007f278     LIBCMT:dll_dllmain.obj
 0002:00011298       __sehtable$?dllmain_crt_process_detach@@YAH_N@Z 1007f298     LIBCMT:dll_dllmain.obj
 0002:000112c0       __sehtable$?dllmain_dispatch@@YAHQAUHINSTANCE__@@KQAX@Z 1007f2c0     LIBCMT:dll_dllmain.obj
 0002:000112e0       __sehtable$___scrt_is_nonwritable_in_current_image 1007f2e0     LIBCMT:utility.obj
 0002:00011300       __sehtable$___DestructExceptionObject 1007f300     libvcruntime:ehhelpers.obj
 0002:00011320       __sehtable$___unDNameEx    1007f320     libvcruntime:undname.obj
 0002:0001133c       __unwindtable$?getDecoratedName@UnDecorator@@CA?AVDName@@XZ 1007f33c     libvcruntime:undname.obj
 0002:00011344       __ehfuncinfo$?getDecoratedName@UnDecorator@@CA?AVDName@@XZ 1007f344     libvcruntime:undname.obj
 0002:00011368       __sehtable$?FrameUnwindToState@__FrameHandler3@@SAXPAUEHRegistrationNode@@PAXPBU_s_FuncInfo@@H@Z 1007f368     libvcruntime:frame.obj
 0002:00011390       __sehtable$?CallCatchBlock@@YAPAXPAUEHExceptionRecord@@PAUEHRegistrationNode@@PAU_CONTEXT@@PBU_s_FuncInfo@@PAXHK@Z 1007f390     libvcruntime:frame.obj
 0002:000113b8       __catchsym$?CallUnexpected@@YAXPBU_s_ESTypeList@@@Z$2 1007f3b8     libvcruntime:frame.obj
 0002:000113c8       __unwindtable$?CallUnexpected@@YAXPBU_s_ESTypeList@@@Z 1007f3c8     libvcruntime:frame.obj
 0002:000113d8       __tryblocktable$?CallUnexpected@@YAXPBU_s_ESTypeList@@@Z 1007f3d8     libvcruntime:frame.obj
 0002:000113ec       __ehfuncinfo$?CallUnexpected@@YAXPBU_s_ESTypeList@@@Z 1007f3ec     libvcruntime:frame.obj
 0002:00011410       __sehtable$??$BuildCatchObjectHelperInternal@V__FrameHandler3@@@@YAHPAUEHExceptionRecord@@PAXPBU_s_HandlerType@@PBU_s_CatchableType@@@Z 1007f410     libvcruntime:frame.obj
 0002:00011430       __sehtable$??$BuildCatchObjectInternal@V__FrameHandler3@@@@YAXPAUEHExceptionRecord@@PAXPBU_s_HandlerType@@PBU_s_CatchableType@@@Z 1007f430     libvcruntime:frame.obj
 0002:000114a0       __sehtable$??$?RV<lambda_19a181d029bd86e446c81e2704b38c4b>@@AAV<lambda_48f637d546cad12a4f7a08a33f82bed3>@@V<lambda_102057672a4e90d7193c8045abc474dc>@@@?$__crt_seh_guarded_call@H@@QAEH$$QAV<lambda_19a181d029bd86e446c81e2704b38c4b>@@AAV<lambda_48f637d546cad12a4f7a08a33f82bed3>@@$$QAV<lambda_102057672a4e90d7193c8045abc474dc>@@@Z 1007f4a0     libucrt:stat.obj
 0002:000114c0       __sehtable$??$?RV<lambda_eb8e992fc2967f674bdd13aed39bd917>@@AAV<lambda_4d5a17c94aa2aaa0f753895cfe986462>@@V<lambda_f3d523c14c5ced676e1892433f994293>@@@?$__crt_seh_guarded_call@H@@QAEH$$QAV<lambda_eb8e992fc2967f674bdd13aed39bd917>@@AAV<lambda_4d5a17c94aa2aaa0f753895cfe986462>@@$$QAV<lambda_f3d523c14c5ced676e1892433f994293>@@@Z 1007f4c0     libucrt:stat.obj
 0002:000114e0       __sehtable$??$?RV<lambda_15bf9711507a956a9b92b72103417415>@@AAV<lambda_030c500d7a5b6af83e89b8f90c8f8b77>@@V<lambda_1b62051d9a25440eb0692d614a6db7e2>@@@?$__crt_seh_guarded_call@H@@QAEH$$QAV<lambda_15bf9711507a956a9b92b72103417415>@@AAV<lambda_030c500d7a5b6af83e89b8f90c8f8b77>@@$$QAV<lambda_1b62051d9a25440eb0692d614a6db7e2>@@@Z 1007f4e0     libucrt:stat.obj
 0002:00011500       __sehtable$??$?RV<lambda_3fbdc05a7b75ad3345997c5c88b25055>@@AAV<lambda_c178ad9533f203a2ba4f364d49dc5113>@@V<lambda_f8575de5a9e054d22965e38bf6e91640>@@@?$__crt_seh_guarded_call@H@@QAEH$$QAV<lambda_3fbdc05a7b75ad3345997c5c88b25055>@@AAV<lambda_c178ad9533f203a2ba4f364d49dc5113>@@$$QAV<lambda_f8575de5a9e054d22965e38bf6e91640>@@@Z 1007f500     libucrt:stat.obj
 0002:00011520       __sehtable$__tzset         1007f520     libucrt:tzset.obj
 0002:00011540       __sehtable$__isindst       1007f540     libucrt:tzset.obj
 0002:00011560       __sehtable$___tzset        1007f560     libucrt:tzset.obj
 0002:0001157c       __ehfuncinfo$?try_cor_exit_process@@YAXI@Z 1007f57c     libucrt:exit.obj
 0002:000115a0       __unwindtable$?common_exit@@YAXHW4_crt_exit_cleanup_mode@@W4_crt_exit_return_mode@@@Z 1007f5a0     libucrt:exit.obj
 0002:000115a8       __ehfuncinfo$?common_exit@@YAXHW4_crt_exit_cleanup_mode@@W4_crt_exit_return_mode@@@Z 1007f5a8     libucrt:exit.obj
 0002:000115d0       __sehtable$??R<lambda_6e4b09c48022b2350581041d5f6b0c4c>@@QBE@XZ 1007f5d0     libucrt:exit.obj
 0002:000115ec       __ehfuncinfo$??$__acrt_lock_and_call@V<lambda_6e4b09c48022b2350581041d5f6b0c4c>@@@@YAXW4__acrt_lock_id@@$$QAV<lambda_6e4b09c48022b2350581041d5f6b0c4c>@@@Z 1007f5ec     libucrt:exit.obj
 0002:00011610       __sehtable$??$?RV<lambda_03b1d95aef87969028cfba75ccab2455>@@AAV<lambda_6e4b09c48022b2350581041d5f6b0c4c>@@V<lambda_22bdf7517842c4b3e53723af5aa32b9e>@@@?$__crt_seh_guarded_call@X@@QAEX$$QAV<lambda_03b1d95aef87969028cfba75ccab2455>@@AAV<lambda_6e4b09c48022b2350581041d5f6b0c4c>@@$$QAV<lambda_22bdf7517842c4b3e53723af5aa32b9e>@@@Z 1007f610     libucrt:exit.obj
 0002:00011630       __sehtable$??$common_getenv@D@@YAPADQBD@Z 1007f630     libucrt:getenv.obj
 0002:00011650       __sehtable$??$common_getenv@_W@@YAPA_WQB_W@Z 1007f650     libucrt:getenv.obj
 0002:00011670       __sehtable$??$common_getenv_s@D@@YAHQAIQADIQBD@Z 1007f670     libucrt:getenv.obj
 0002:00011690       __sehtable$??$common_getenv_s@_W@@YAHQAIQA_WIQB_W@Z 1007f690     libucrt:getenv.obj
 0002:000116b0       __sehtable$??$common_dupenv_s@D@@YAHQAPADQAIQBDH2H@Z 1007f6b0     libucrt:getenv.obj
 0002:000116d0       __sehtable$??$common_dupenv_s@_W@@YAHQAPA_WQAIQB_WHQBDH@Z 1007f6d0     libucrt:getenv.obj
 0002:000116f0       __sehtable$??$common_fsopen@D@@YAPAU_iobuf@@QBD0H@Z 1007f6f0     libucrt:fopen.obj
 0002:00011710       __sehtable$??$common_fsopen@_W@@YAPAU_iobuf@@QB_W0H@Z 1007f710     libucrt:fopen.obj
 0002:00011730       __sehtable$??$common_freopen@D@@YAHQAPAU_iobuf@@QBD1V__crt_stdio_stream@@H@Z 1007f730     libucrt:freopen.obj
 0002:00011750       __sehtable$??$common_freopen@_W@@YAHQAPAU_iobuf@@QB_W1V__crt_stdio_stream@@H@Z 1007f750     libucrt:freopen.obj
 0002:00011770       __sehtable$??$?RV<lambda_62491a2101a2aba6cc4a769149c84f1f>@@AAV<lambda_826c27fce7726908515bbc79a5266961>@@V<lambda_4e64bbd54b50a7b070e3ea8d795375b6>@@@?$__crt_seh_guarded_call@H@@QAEH$$QAV<lambda_62491a2101a2aba6cc4a769149c84f1f>@@AAV<lambda_826c27fce7726908515bbc79a5266961>@@$$QAV<lambda_4e64bbd54b50a7b070e3ea8d795375b6>@@@Z 1007f770     libucrt:output.obj
 0002:00011790       __sehtable$??$?RV<lambda_1dd36762653bb5cc831adc02c559755c>@@AAV<lambda_9fb07d2873e768404def6e7ec3f3bd18>@@V<lambda_312d3343bae4ccb789116aa824e5f620>@@@?$__crt_seh_guarded_call@H@@QAEH$$QAV<lambda_1dd36762653bb5cc831adc02c559755c>@@AAV<lambda_9fb07d2873e768404def6e7ec3f3bd18>@@$$QAV<lambda_312d3343bae4ccb789116aa824e5f620>@@@Z 1007f790     libucrt:output.obj
 0002:000117b0       __sehtable$??$?RV<lambda_268f691db7ba8862576cc41eacd8d3fd>@@AAV<lambda_312b98b6e93f7bd1096efcdba8896847>@@V<lambda_0c72ce5095939d4030d96c58d8cff8d4>@@@?$__crt_seh_guarded_call@H@@QAEH$$QAV<lambda_268f691db7ba8862576cc41eacd8d3fd>@@AAV<lambda_312b98b6e93f7bd1096efcdba8896847>@@$$QAV<lambda_0c72ce5095939d4030d96c58d8cff8d4>@@@Z 1007f7b0     libucrt:output.obj
 0002:000117d0       __sehtable$??$?RV<lambda_78cb94d37b94ff79e42a63bc0a4c738b>@@AAV<lambda_fc0a3d1c2b6c3d92d2035d41ea1a5fc2>@@V<lambda_c0cb211e2b6165fb776e03b4a51ce6f0>@@@?$__crt_seh_guarded_call@H@@QAEH$$QAV<lambda_78cb94d37b94ff79e42a63bc0a4c738b>@@AAV<lambda_fc0a3d1c2b6c3d92d2035d41ea1a5fc2>@@$$QAV<lambda_c0cb211e2b6165fb776e03b4a51ce6f0>@@@Z 1007f7d0     libucrt:output.obj
 0002:000117f0       __sehtable$??$?RV<lambda_9dace5035c2c94629a3d83f35d2cbf28>@@AAV<lambda_c8ddbc9de0285f54db25fdd0dfe69f61>@@V<lambda_975e2777cf69332657189d5b5f264fbf>@@@?$__crt_seh_guarded_call@H@@QAEH$$QAV<lambda_9dace5035c2c94629a3d83f35d2cbf28>@@AAV<lambda_c8ddbc9de0285f54db25fdd0dfe69f61>@@$$QAV<lambda_975e2777cf69332657189d5b5f264fbf>@@@Z 1007f7f0     libucrt:output.obj
 0002:00011810       __sehtable$??$?RV<lambda_2786941c813214a8cc5a0ce49a6190e4>@@AAV<lambda_1d6335751f7543f02e9f302c9e987a5a>@@V<lambda_c8e805040e711a9373867320b0cf5708>@@@?$__crt_seh_guarded_call@H@@QAEH$$QAV<lambda_2786941c813214a8cc5a0ce49a6190e4>@@AAV<lambda_1d6335751f7543f02e9f302c9e987a5a>@@$$QAV<lambda_c8e805040e711a9373867320b0cf5708>@@@Z 1007f810     libucrt:output.obj
 0002:00011830       __sehtable$?_perror_internal@@YAXQBDAAV__crt_cached_ptd_host@@@Z 1007f830     libucrt:perror.obj
 0002:00011850       __sehtable$??$?RV<lambda_2866be3712abc81a800a822484c830d8>@@AAV<lambda_39ca0ed439415581b5b15c265174cece>@@V<lambda_2b24c74d71094a6cd0cb82e44167d71b>@@@?$__crt_seh_guarded_call@X@@QAEX$$QAV<lambda_2866be3712abc81a800a822484c830d8>@@AAV<lambda_39ca0ed439415581b5b15c265174cece>@@$$QAV<lambda_2b24c74d71094a6cd0cb82e44167d71b>@@@Z 1007f850     libucrt:fflush.obj
 0002:00011870       __sehtable$??$?RV<lambda_2cc53f568c5a2bb6f192f930a45d44ea>@@AAV<lambda_ab61a845afdef5b7c387490eaf3616ee>@@V<lambda_c2ffc0b7726aa6be21d5f0026187e748>@@@?$__crt_seh_guarded_call@X@@QAEX$$QAV<lambda_2cc53f568c5a2bb6f192f930a45d44ea>@@AAV<lambda_ab61a845afdef5b7c387490eaf3616ee>@@$$QAV<lambda_c2ffc0b7726aa6be21d5f0026187e748>@@@Z 1007f870     libucrt:fflush.obj
 0002:00011890       __sehtable$??$?RV<lambda_6d20deecaf4856105ebacbad442d1079>@@AAV<lambda_9a32fed5bf61b6b509b2d3f6003082a1>@@V<lambda_63ea2239ed67c638ddbae41947fdf875>@@@?$__crt_seh_guarded_call@H@@QAEH$$QAV<lambda_6d20deecaf4856105ebacbad442d1079>@@AAV<lambda_9a32fed5bf61b6b509b2d3f6003082a1>@@$$QAV<lambda_63ea2239ed67c638ddbae41947fdf875>@@@Z 1007f890     libucrt:fflush.obj
 0002:000118b0       __sehtable$?_fclose_internal@@YAHQAU_iobuf@@AAV__crt_cached_ptd_host@@@Z 1007f8b0     libucrt:fclose.obj
 0002:000118d0       __sehtable$_fread_s        1007f8d0     libucrt:fread.obj
 0002:000118f0       __sehtable$??$?RV<lambda_76055cf4b68c1f980da8b7496a3ae623>@@AAV<lambda_26974eb511f701c600fccfa2a97a8e1b>@@V<lambda_0062726809bb3c529c0733aa37379daf>@@@?$__crt_seh_guarded_call@I@@QAEI$$QAV<lambda_76055cf4b68c1f980da8b7496a3ae623>@@AAV<lambda_26974eb511f701c600fccfa2a97a8e1b>@@$$QAV<lambda_0062726809bb3c529c0733aa37379daf>@@@Z 1007f8f0     libucrt:fwrite.obj
 0002:0001190c       __unwindtable$___dcrt_uninitialize_environments_nolock 1007f90c     libucrt:environment_initialization.obj
 0002:0001191c       __ehfuncinfo$___dcrt_uninitialize_environments_nolock 1007f91c     libucrt:environment_initialization.obj
 0002:00011940       __ehfuncinfo$??$uninitialize@A6AXAAPAPAD@_E@?$dual_state_global@PAPAD@__crt_state_management@@QAEXA6AXAAPAPAD@_E@Z 1007f940     libucrt:environment_initialization.obj
 0002:00011964       __ehfuncinfo$??$uninitialize@A6AXAAPAPA_W@_E@?$dual_state_global@PAPA_W@__crt_state_management@@QAEXA6AXAAPAPA_W@_E@Z 1007f964     libucrt:environment_initialization.obj
 0002:00011988       __unwindtable$__execute_onexit_table 1007f988     libucrt:onexit.obj
 0002:00011990       __ehfuncinfo$__execute_onexit_table 1007f990     libucrt:onexit.obj
 0002:000119b4       __ehfuncinfo$??$__acrt_lock_and_call@V<lambda_f03950bc5685219e0bcd2087efbe011e>@@@@YAHW4__acrt_lock_id@@$$QAV<lambda_f03950bc5685219e0bcd2087efbe011e>@@@Z 1007f9b4     libucrt:onexit.obj
 0002:000119d8       __sehtable$??$?RV<lambda_8e746cf0007f6ed984d6f78af1fec997>@@AAV<lambda_22ebabd17bc4fa466a2aca6d8deb888d>@@V<lambda_18ed0c0b38a6dc0daf1e7ac6d6adf05e>@@@?$__crt_seh_guarded_call@H@@QAEH$$QAV<lambda_8e746cf0007f6ed984d6f78af1fec997>@@AAV<lambda_22ebabd17bc4fa466a2aca6d8deb888d>@@$$QAV<lambda_18ed0c0b38a6dc0daf1e7ac6d6adf05e>@@@Z 1007f9d8     libucrt:onexit.obj
 0002:000119f8       __sehtable$??$?RV<lambda_69a2805e680e0e292e8ba93315fe43a8>@@AAV<lambda_f03950bc5685219e0bcd2087efbe011e>@@V<lambda_03fcd07e894ec930e3f35da366ca99d6>@@@?$__crt_seh_guarded_call@H@@QAEH$$QAV<lambda_69a2805e680e0e292e8ba93315fe43a8>@@AAV<lambda_f03950bc5685219e0bcd2087efbe011e>@@$$QAV<lambda_03fcd07e894ec930e3f35da366ca99d6>@@@Z 1007f9f8     libucrt:onexit.obj
 0002:00011a18       __sehtable$_terminate      1007fa18     libucrt:terminate.obj
 0002:00011a38       __sehtable$__write_internal 1007fa38     libucrt:write.obj
 0002:00011a54       __ehfuncinfo$?write_double_translated_ansi_nolock@@YA?AUwrite_result@?A0x17268360@@HQBDIAAV__crt_cached_ptd_host@@@Z 1007fa54     libucrt:write.obj
 0002:00011a78       __sehtable$??$?RV<lambda_15ade71b0218206bbe3333a0c9b79046>@@AAV<lambda_da44e0f8b0f19ba52fefafb335991732>@@V<lambda_207f2d024fc103971653565357d6cd41>@@@?$__crt_seh_guarded_call@X@@QAEX$$QAV<lambda_15ade71b0218206bbe3333a0c9b79046>@@AAV<lambda_da44e0f8b0f19ba52fefafb335991732>@@$$QAV<lambda_207f2d024fc103971653565357d6cd41>@@@Z 1007fa78     libucrt:per_thread_data.obj
 0002:00011a98       __sehtable$??$?RV<lambda_a7e850c220f1c8d1e6efeecdedd162c6>@@AAV<lambda_46720907175c18b6c9d2717bc0d2d362>@@V<lambda_9048902d66e8d99359bc9897bbb930a8>@@@?$__crt_seh_guarded_call@X@@QAEX$$QAV<lambda_a7e850c220f1c8d1e6efeecdedd162c6>@@AAV<lambda_46720907175c18b6c9d2717bc0d2d362>@@$$QAV<lambda_9048902d66e8d99359bc9897bbb930a8>@@@Z 1007fa98     libucrt:per_thread_data.obj
 0002:00011ab8       __sehtable$??$?RV<lambda_38edbb1296d33220d7e4dd0ed76b244a>@@AAV<lambda_5ce1d447e08cb34b2473517608e21441>@@V<lambda_fb385d3da700c9147fc39e65dd577a8c>@@@?$__crt_seh_guarded_call@X@@QAEX$$QAV<lambda_38edbb1296d33220d7e4dd0ed76b244a>@@AAV<lambda_5ce1d447e08cb34b2473517608e21441>@@$$QAV<lambda_fb385d3da700c9147fc39e65dd577a8c>@@@Z 1007fab8     libucrt:per_thread_data.obj
 0002:00011ad8       __sehtable$??$?RV<lambda_6affb1475c98b40b75cdec977db92e3c>@@AAV<lambda_b8d4b9c228a6ecc3f80208dbb4b4a104>@@V<lambda_608742c3c92a14382c1684fc64f96c88>@@@?$__crt_seh_guarded_call@X@@QAEX$$QAV<lambda_6affb1475c98b40b75cdec977db92e3c>@@AAV<lambda_b8d4b9c228a6ecc3f80208dbb4b4a104>@@$$QAV<lambda_608742c3c92a14382c1684fc64f96c88>@@@Z 1007fad8     libucrt:per_thread_data.obj
 0002:00011af8       __sehtable$??$?RV<lambda_6b4b7855443974f2b4b77000ea21c99c>@@AAV<lambda_8f7d3b162ab39427f4fa9995c67a7986>@@V<lambda_cc9a5ba8a5d8428b9634eab82665e5dc>@@@?$__crt_seh_guarded_call@H@@QAEH$$QAV<lambda_6b4b7855443974f2b4b77000ea21c99c>@@AAV<lambda_8f7d3b162ab39427f4fa9995c67a7986>@@$$QAV<lambda_cc9a5ba8a5d8428b9634eab82665e5dc>@@@Z 1007faf8     libucrt:winapi_thunks.obj
 0002:00011b18       __sehtable$__open_osfhandle 1007fb18     libucrt:osfinfo.obj
 0002:00011b38       __sehtable$__alloc_osfhnd  1007fb38     libucrt:osfinfo.obj
 0002:00011b58       __sehtable$___acrt_lowio_ensure_fh_exists 1007fb58     libucrt:osfinfo.obj
 0002:00011b78       __sehtable$__free_locale   1007fb78     libucrt:wsetlocale.obj
 0002:00011ba0       __sehtable$??$?RV<lambda_e5124f882df8998aaf41531e079ba474>@@AAV<lambda_3e16ef9562a7dcce91392c22ab16ea36>@@V<lambda_e25ca0880e6ef98be67edffd8c599615>@@@?$__crt_seh_guarded_call@X@@QAEX$$QAV<lambda_e5124f882df8998aaf41531e079ba474>@@AAV<lambda_3e16ef9562a7dcce91392c22ab16ea36>@@$$QAV<lambda_e25ca0880e6ef98be67edffd8c599615>@@@Z 1007fba0     libucrt:wsetlocale.obj
 0002:00011bc0       __sehtable$??$?RV<lambda_82aef432098b982f9ede325b418aa67a>@@AAV<lambda_862e9a3f04921db6ca1ce3faa2bf3edf>@@V<lambda_ffabc152e504b53d7492b9889b10c020>@@@?$__crt_seh_guarded_call@X@@QAEX$$QAV<lambda_82aef432098b982f9ede325b418aa67a>@@AAV<lambda_862e9a3f04921db6ca1ce3faa2bf3edf>@@$$QAV<lambda_ffabc152e504b53d7492b9889b10c020>@@@Z 1007fbc0     libucrt:wsetlocale.obj
 0002:00011be0       __sehtable$??$?RV<lambda_6673f7c4c09a5d469d0c27ae364621ce>@@AAV<lambda_ebab98244f73a74f49db879bf13fa982>@@V<lambda_be20789b7a146653eab82509ec35b419>@@@?$__crt_seh_guarded_call@X@@QAEX$$QAV<lambda_6673f7c4c09a5d469d0c27ae364621ce>@@AAV<lambda_ebab98244f73a74f49db879bf13fa982>@@$$QAV<lambda_be20789b7a146653eab82509ec35b419>@@@Z 1007fbe0     libucrt:wsetlocale.obj
 0002:00011c00       __sehtable$??$?RV<lambda_4fdada1b837b2abbf20876fac97688ad>@@AAV<lambda_b57350f2640456a0859d250846f69caf>@@V<lambda_eed5e4f92b5b7d55fa22c48c484aaa54>@@@?$__crt_seh_guarded_call@X@@QAEX$$QAV<lambda_4fdada1b837b2abbf20876fac97688ad>@@AAV<lambda_b57350f2640456a0859d250846f69caf>@@$$QAV<lambda_eed5e4f92b5b7d55fa22c48c484aaa54>@@@Z 1007fc00     libucrt:wsetlocale.obj
 0002:00011c20       __sehtable$??$?RV<lambda_ac03c5d59bd18b09cb88b28331f6bfed>@@AAV<lambda_2a444430fde8c29194d880d93eed5e8f>@@AAV<lambda_02db5278e8aef8b5e4976579d73f5304>@@@?$__crt_seh_guarded_call@X@@QAEX$$QAV<lambda_ac03c5d59bd18b09cb88b28331f6bfed>@@AAV<lambda_2a444430fde8c29194d880d93eed5e8f>@@AAV<lambda_02db5278e8aef8b5e4976579d73f5304>@@@Z 1007fc20     libucrt:wsetlocale.obj
 0002:00011c40       __sehtable$___acrt_initialize_lowio 1007fc40     libucrt:ioinit.obj
 0002:00011c60       __sehtable$__fcloseall     1007fc60     libucrt:closeall.obj
 0002:00011c80       __sehtable$?__acrt_stdio_allocate_stream@@YA?AV__crt_stdio_stream@@XZ 1007fc80     libucrt:stream.obj
 0002:00011ca0       __sehtable$?_fputwc_internal@@YAG_WQAU_iobuf@@AAV__crt_cached_ptd_host@@@Z 1007fca0     libucrt:fputwc.obj
 0002:00011cc0       __sehtable$?_fputc_internal@@YAHHQAU_iobuf@@AAV__crt_cached_ptd_host@@@Z 1007fcc0     libucrt:fputc.obj
 0002:00011ce0       __sehtable$??$?RV<lambda_9e9de3de5fa147e2223d7db92bc10aa6>@@AAV<lambda_38ce7e780aa69e748d6df282ebc68efe>@@V<lambda_8ca6da459f0f6780f1cff60fdc3d00e5>@@@?$__crt_seh_guarded_call@H@@QAEH$$QAV<lambda_9e9de3de5fa147e2223d7db92bc10aa6>@@AAV<lambda_38ce7e780aa69e748d6df282ebc68efe>@@$$QAV<lambda_8ca6da459f0f6780f1cff60fdc3d00e5>@@@Z 1007fce0     libucrt:commit.obj
 0002:00011d00       __sehtable$??$?RV<lambda_d422a76eb4c3bf3ad751449ab71a6ea4>@@AAV<lambda_c9ba49e555ba839a7b07aa3fbecb7617>@@V<lambda_9476263c8ee91a25d21c55370bdb50de>@@@?$__crt_seh_guarded_call@H@@QAEH$$QAV<lambda_d422a76eb4c3bf3ad751449ab71a6ea4>@@AAV<lambda_c9ba49e555ba839a7b07aa3fbecb7617>@@$$QAV<lambda_9476263c8ee91a25d21c55370bdb50de>@@@Z 1007fd00     libucrt:close.obj
 0002:00011d20       __sehtable$__read          1007fd20     libucrt:read.obj
 0002:00011d40       __sehtable$___set_fpsr_sse2 1007fd40     libucrt:fpctrl.obj
 0002:00011d60       __sehtable$?update_thread_multibyte_data_internal@@YAPAU__crt_multibyte_data@@QAU__acrt_ptd@@QAPAU1@@Z 1007fd60     libucrt:mbctype.obj
 0002:00011d80       __sehtable$??$?RV<lambda_ceb1ee4838e85a9d631eb091e2fbe199>@@AAV<lambda_ae742caa10f662c28703da3d2ea5e57e>@@V<lambda_cd08b5d6af4937fe54fc07d0c9bf6b37>@@@?$__crt_seh_guarded_call@X@@QAEX$$QAV<lambda_ceb1ee4838e85a9d631eb091e2fbe199>@@AAV<lambda_ae742caa10f662c28703da3d2ea5e57e>@@$$QAV<lambda_cd08b5d6af4937fe54fc07d0c9bf6b37>@@@Z 1007fd80     libucrt:mbctype.obj
 0002:00011da0       __sehtable$__query_new_handler 1007fda0     libucrt:new_handler.obj
 0002:00011dc0       __sehtable$__set_new_handler 1007fdc0     libucrt:new_handler.obj
 0002:00011de0       __sehtable$_signal         1007fde0     libucrt:signal.obj
 0002:00011e00       __sehtable$_raise          1007fe00     libucrt:signal.obj
 0002:00011e20       __sehtable$?ctrlevent_capture@@YGHK@Z 1007fe20     libucrt:signal.obj
 0002:00011e40       __sehtable$??$?RV<lambda_cbab9ec6f41b0180b23cc171c22676b0>@@AAV<lambda_44731a7d0e6d81c3e6aa82d741081786>@@V<lambda_4b292cb8dd18144e164572427af410ab>@@@?$__crt_seh_guarded_call@P6AXH@Z@@QAEP6AXH@Z$$QAV<lambda_cbab9ec6f41b0180b23cc171c22676b0>@@AAV<lambda_44731a7d0e6d81c3e6aa82d741081786>@@$$QAV<lambda_4b292cb8dd18144e164572427af410ab>@@@Z 1007fe40     libucrt:signal.obj
 0002:00011e60       __sehtable$??$common_lseek@J@@YAJHJHAAV__crt_cached_ptd_host@@@Z 1007fe60     libucrt:lseek.obj
 0002:00011e80       __sehtable$??$common_lseek@_J@@YA_JH_JHAAV__crt_cached_ptd_host@@@Z 1007fe80     libucrt:lseek.obj
 0002:00011e9c       __ehfuncinfo$?_mbrtowc_internal@@YAHPAHPA_WPBDIPAU_Mbstatet@@AAV__crt_cached_ptd_host@@@Z 1007fe9c     libucrt:mbrtowc.obj
 0002:00011ec0       __ehfuncinfo$?_mbsrtowcs_helper@@YAIPA_WPAPBDIPAU_Mbstatet@@AAV__crt_cached_ptd_host@@@Z 1007fec0     libucrt:mbrtowc.obj
 0002:00011ee8       __sehtable$??$?RV<lambda_f828341fbe69b7c0d4c527b01f22877f>@@AAV<lambda_9e0b6ab72a5b3ae37ad997d08b519f50>@@V<lambda_f01deac0a8d65d6e0411edf7e0af5775>@@@?$__crt_seh_guarded_call@G@@QAEG$$QAV<lambda_f828341fbe69b7c0d4c527b01f22877f>@@AAV<lambda_9e0b6ab72a5b3ae37ad997d08b519f50>@@$$QAV<lambda_f01deac0a8d65d6e0411edf7e0af5775>@@@Z 1007fee8     libucrt:putwch.obj
 0002:00011f08       __sehtable$___acrt_update_thread_locale_data 1007ff08     libucrt:locale_refcounting.obj
 0002:00011f28       __sehtable$??$common_open@D@@YAHQBDHH@Z 1007ff28     libucrt:open.obj
 0002:00011f48       __sehtable$??$common_open@_W@@YAHQB_WHH@Z 1007ff48     libucrt:open.obj
 0002:00011f68       __sehtable$??$common_sopen_dispatch@D@@YAHQBDHHHQAHH@Z 1007ff68     libucrt:open.obj
 0002:00011f88       __sehtable$??$common_sopen_dispatch@_W@@YAHQB_WHHHQAHH@Z 1007ff88     libucrt:open.obj
 0002:00011fa8       __sehtable$__setmode       1007ffa8     libucrt:setmode.obj
 0002:00011fc8       __sehtable$??$?RV<lambda_2c87c0f1c5824a8f466464d223ae2adf>@@AAV<lambda_da54eedf1eca897cab5ed6d42fa6c58d>@@V<lambda_9b5bb9a9a5e973ce95cdde156d85e5dc>@@@?$__crt_seh_guarded_call@H@@QAEH$$QAV<lambda_2c87c0f1c5824a8f466464d223ae2adf>@@AAV<lambda_da54eedf1eca897cab5ed6d42fa6c58d>@@$$QAV<lambda_9b5bb9a9a5e973ce95cdde156d85e5dc>@@@Z 1007ffc8     libucrt:chsize.obj
 0002:00011fe4       __ehfuncinfo$?_mbstowcs_l_helper@@YAIPA_WPBDIAAV__crt_cached_ptd_host@@@Z 1007ffe4     libucrt:mbstowcs.obj
 0002:00012008       __sehtable$__IsNonwritableInCurrentImage 10080008     LIBCMT:pesect.obj
 0002:00012030       .edata                     10080030     DttSP.exp
 0002:00012058       rgpv                       10080058     DttSP.exp
 0002:000122ec       rgszName                   100802ec     DttSP.exp
 0002:00012580       rgwOrd                     10080580     DttSP.exp
 0002:000126ca       szName                     100806ca     DttSP.exp
 0002:000126d4       $N00001                    100806d4     DttSP.exp
 0002:000126df       $N00002                    100806df     DttSP.exp
 0002:000126ee       $N00003                    100806ee     DttSP.exp
 0002:000126fe       $N00004                    100806fe     DttSP.exp
 0002:0001270c       $N00005                    1008070c     DttSP.exp
 0002:0001271b       $N00006                    1008071b     DttSP.exp
 0002:0001272c       $N00007                    1008072c     DttSP.exp
 0002:0001273d       $N00008                    1008073d     DttSP.exp
 0002:0001274d       $N00009                    1008074d     DttSP.exp
 0002:0001275e       $N00010                    1008075e     DttSP.exp
 0002:0001276a       $N00011                    1008076a     DttSP.exp
 0002:00012781       $N00012                    10080781     DttSP.exp
 0002:0001278d       $N00013                    1008078d     DttSP.exp
 0002:00012799       $N00014                    10080799     DttSP.exp
 0002:000127a6       $N00015                    100807a6     DttSP.exp
 0002:000127b3       $N00016                    100807b3     DttSP.exp
 0002:000127c4       $N00017                    100807c4     DttSP.exp
 0002:000127d4       $N00018                    100807d4     DttSP.exp
 0002:000127e6       $N00019                    100807e6     DttSP.exp
 0002:000127f1       $N00020                    100807f1     DttSP.exp
 0002:000127ff       $N00021                    100807ff     DttSP.exp
 0002:00012815       $N00022                    10080815     DttSP.exp
 0002:00012828       $N00023                    10080828     DttSP.exp
 0002:00012835       $N00024                    10080835     DttSP.exp
 0002:00012842       $N00025                    10080842     DttSP.exp
 0002:00012856       $N00026                    10080856     DttSP.exp
 0002:00012867       $N00027                    10080867     DttSP.exp
 0002:0001287a       $N00028                    1008087a     DttSP.exp
 0002:00012883       $N00029                    10080883     DttSP.exp
 0002:00012890       $N00030                    10080890     DttSP.exp
 0002:0001289e       $N00031                    1008089e     DttSP.exp
 0002:000128af       $N00032                    100808af     DttSP.exp
 0002:000128bd       $N00033                    100808bd     DttSP.exp
 0002:000128ca       $N00034                    100808ca     DttSP.exp
 0002:000128d8       $N00035                    100808d8     DttSP.exp
 0002:000128f0       $N00036                    100808f0     DttSP.exp
 0002:00012903       $N00037                    10080903     DttSP.exp
 0002:00012911       $N00038                    10080911     DttSP.exp
 0002:0001291f       $N00039                    1008091f     DttSP.exp
 0002:00012930       $N00040                    10080930     DttSP.exp
 0002:0001293f       $N00041                    1008093f     DttSP.exp
 0002:00012946       $N00042                    10080946     DttSP.exp
 0002:00012951       $N00043                    10080951     DttSP.exp
 0002:0001295e       $N00044                    1008095e     DttSP.exp
 0002:00012965       $N00045                    10080965     DttSP.exp
 0002:00012972       $N00046                    10080972     DttSP.exp
 0002:0001297f       $N00047                    1008097f     DttSP.exp
 0002:0001298c       $N00048                    1008098c     DttSP.exp
 0002:0001299f       $N00049                    1008099f     DttSP.exp
 0002:000129b0       $N00050                    100809b0     DttSP.exp
 0002:000129c2       $N00051                    100809c2     DttSP.exp
 0002:000129d3       $N00052                    100809d3     DttSP.exp
 0002:000129e3       $N00053                    100809e3     DttSP.exp
 0002:000129f7       $N00054                    100809f7     DttSP.exp
 0002:00012a0b       $N00055                    10080a0b     DttSP.exp
 0002:00012a1a       $N00056                    10080a1a     DttSP.exp
 0002:00012a2d       $N00057                    10080a2d     DttSP.exp
 0002:00012a3e       $N00058                    10080a3e     DttSP.exp
 0002:00012a52       $N00059                    10080a52     DttSP.exp
 0002:00012a62       $N00060                    10080a62     DttSP.exp
 0002:00012a76       $N00061                    10080a76     DttSP.exp
 0002:00012a83       $N00062                    10080a83     DttSP.exp
 0002:00012a90       $N00063                    10080a90     DttSP.exp
 0002:00012aa1       $N00064                    10080aa1     DttSP.exp
 0002:00012ab4       $N00065                    10080ab4     DttSP.exp
 0002:00012aca       $N00066                    10080aca     DttSP.exp
 0002:00012ad6       $N00067                    10080ad6     DttSP.exp
 0002:00012ae2       $N00068                    10080ae2     DttSP.exp
 0002:00012af0       $N00069                    10080af0     DttSP.exp
 0002:00012aff       $N00070                    10080aff     DttSP.exp
 0002:00012b0b       $N00071                    10080b0b     DttSP.exp
 0002:00012b19       $N00072                    10080b19     DttSP.exp
 0002:00012b27       $N00073                    10080b27     DttSP.exp
 0002:00012b35       $N00074                    10080b35     DttSP.exp
 0002:00012b44       $N00075                    10080b44     DttSP.exp
 0002:00012b51       $N00076                    10080b51     DttSP.exp
 0002:00012b5d       $N00077                    10080b5d     DttSP.exp
 0002:00012b6f       $N00078                    10080b6f     DttSP.exp
 0002:00012b7b       $N00079                    10080b7b     DttSP.exp
 0002:00012b8c       $N00080                    10080b8c     DttSP.exp
 0002:00012b99       $N00081                    10080b99     DttSP.exp
 0002:00012ba6       $N00082                    10080ba6     DttSP.exp
 0002:00012bbd       $N00083                    10080bbd     DttSP.exp
 0002:00012bcc       $N00084                    10080bcc     DttSP.exp
 0002:00012bd9       $N00085                    10080bd9     DttSP.exp
 0002:00012bed       $N00086                    10080bed     DttSP.exp
 0002:00012bfa       $N00087                    10080bfa     DttSP.exp
 0002:00012c0c       $N00088                    10080c0c     DttSP.exp
 0002:00012c1b       $N00089                    10080c1b     DttSP.exp
 0002:00012c2e       $N00090                    10080c2e     DttSP.exp
 0002:00012c3c       $N00091                    10080c3c     DttSP.exp
 0002:00012c4b       $N00092                    10080c4b     DttSP.exp
 0002:00012c53       $N00093                    10080c53     DttSP.exp
 0002:00012c59       $N00094                    10080c59     DttSP.exp
 0002:00012c63       $N00095                    10080c63     DttSP.exp
 0002:00012c69       $N00096                    10080c69     DttSP.exp
 0002:00012c73       $N00097                    10080c73     DttSP.exp
 0002:00012c7f       $N00098                    10080c7f     DttSP.exp
 0002:00012c8b       $N00099                    10080c8b     DttSP.exp
 0002:00012c96       $N00100                    10080c96     DttSP.exp
 0002:00012c9f       $N00101                    10080c9f     DttSP.exp
 0002:00012cae       $N00102                    10080cae     DttSP.exp
 0002:00012cbc       $N00103                    10080cbc     DttSP.exp
 0002:00012cc9       $N00104                    10080cc9     DttSP.exp
 0002:00012cdf       $N00105                    10080cdf     DttSP.exp
 0002:00012ced       $N00106                    10080ced     DttSP.exp
 0002:00012cf9       $N00107                    10080cf9     DttSP.exp
 0002:00012d06       $N00108                    10080d06     DttSP.exp
 0002:00012d17       $N00109                    10080d17     DttSP.exp
 0002:00012d28       $N00110                    10080d28     DttSP.exp
 0002:00012d34       $N00111                    10080d34     DttSP.exp
 0002:00012d47       $N00112                    10080d47     DttSP.exp
 0002:00012d5e       $N00113                    10080d5e     DttSP.exp
 0002:00012d73       $N00114                    10080d73     DttSP.exp
 0002:00012d7c       $N00115                    10080d7c     DttSP.exp
 0002:00012d8c       $N00116                    10080d8c     DttSP.exp
 0002:00012d95       $N00117                    10080d95     DttSP.exp
 0002:00012da9       $N00118                    10080da9     DttSP.exp
 0002:00012db7       $N00119                    10080db7     DttSP.exp
 0002:00012dc0       $N00120                    10080dc0     DttSP.exp
 0002:00012dcd       $N00121                    10080dcd     DttSP.exp
 0002:00012ddb       $N00122                    10080ddb     DttSP.exp
 0002:00012df0       $N00123                    10080df0     DttSP.exp
 0002:00012e00       $N00124                    10080e00     DttSP.exp
 0002:00012e0e       $N00125                    10080e0e     DttSP.exp
 0002:00012e19       $N00126                    10080e19     DttSP.exp
 0002:00012e25       $N00127                    10080e25     DttSP.exp
 0002:00012e37       $N00128                    10080e37     DttSP.exp
 0002:00012e3e       $N00129                    10080e3e     DttSP.exp
 0002:00012e52       $N00130                    10080e52     DttSP.exp
 0002:00012e5d       $N00131                    10080e5d     DttSP.exp
 0002:00012e73       $N00132                    10080e73     DttSP.exp
 0002:00012e82       $N00133                    10080e82     DttSP.exp
 0002:00012e8e       $N00134                    10080e8e     DttSP.exp
 0002:00012e9c       $N00135                    10080e9c     DttSP.exp
 0002:00012ea9       $N00136                    10080ea9     DttSP.exp
 0002:00012ebd       $N00137                    10080ebd     DttSP.exp
 0002:00012eca       $N00138                    10080eca     DttSP.exp
 0002:00012ed9       $N00139                    10080ed9     DttSP.exp
 0002:00012ee6       $N00140                    10080ee6     DttSP.exp
 0002:00012ef6       $N00141                    10080ef6     DttSP.exp
 0002:00012f07       $N00142                    10080f07     DttSP.exp
 0002:00012f13       $N00143                    10080f13     DttSP.exp
 0002:00012f26       $N00144                    10080f26     DttSP.exp
 0002:00012f38       $N00145                    10080f38     DttSP.exp
 0002:00012f49       $N00146                    10080f49     DttSP.exp
 0002:00012f58       $N00147                    10080f58     DttSP.exp
 0002:00012f68       $N00148                    10080f68     DttSP.exp
 0002:00012f71       $N00149                    10080f71     DttSP.exp
 0002:00012f81       $N00150                    10080f81     DttSP.exp
 0002:00012f90       $N00151                    10080f90     DttSP.exp
 0002:00012fa0       $N00152                    10080fa0     DttSP.exp
 0002:00012fad       $N00153                    10080fad     DttSP.exp
 0002:00012fb9       $N00154                    10080fb9     DttSP.exp
 0002:00012fd1       $N00155                    10080fd1     DttSP.exp
 0002:00012fdd       $N00156                    10080fdd     DttSP.exp
 0002:00012fe7       $N00157                    10080fe7     DttSP.exp
 0002:00012ff1       $N00158                    10080ff1     DttSP.exp
 0002:00012ffc       $N00159                    10080ffc     DttSP.exp
 0002:00013006       $N00160                    10081006     DttSP.exp
 0002:00013017       $N00161                    10081017     DttSP.exp
 0002:0001302a       $N00162                    1008102a     DttSP.exp
 0002:0001303a       $N00163                    1008103a     DttSP.exp
 0002:0001304b       $N00164                    1008104b     DttSP.exp
 0002:00013062       $N00165                    10081062     DttSP.exp
 0002:000132a0       .idata$6                   100812a0     winMM:WINMM.dll
 0002:00013306       .idata$6                   10081306     libfftw3f-3:libfftw3f-3.dll
 0002:00013348       .idata$6                   10081348     pthreadVC:pthreadVC.dll
 0002:000134fc       .idata$6                   100814fc     kernel32:KERNEL32.dll
 0003:00000024       _EQ_Num_48000              10082024     graphiceq.obj
 0003:00000030       _EQ_Den_48000              10082030     graphiceq.obj
 0003:00000038       _EQ_Num_96000              10082038     graphiceq.obj
 0003:00000044       _EQ_Den_96000              10082044     graphiceq.obj
 0003:0000004c       _EQ_Num_192000             1008204c     graphiceq.obj
 0003:00000058       _EQ_Den_192000             10082058     graphiceq.obj
 0003:00000060       _pole                      10082060     hilbert.obj
 0003:00000090       __ISOband_info             10082090     isoband.obj
 0003:00000350       _wpm                       10082350     keyd.obj
 0003:00000354       _freq                      10082354     keyd.obj
 0003:00000358       _ramp                      10082358     keyd.obj
 0003:0000035c       _mid_element               1008235c     keyd.obj
 0003:00000360       __white                    10082360     splitfields.obj
 0003:00000368       _fast_atan_table           10082368     fastrig1.obj
 0003:00000790       ?prefix@?1??getDimension@UnDecorator@@CA?AVDName@@_N@Z@4UStringLiteral@@A 10082790     libvcruntime:undname.obj
 0003:00000798       ?__vcrt_flsindex@@3KA      10082798     libvcruntime:per_thread_data.obj
 0003:000007b0       ?tzstd_program@@3PADA      100827b0     libucrt:timeset.obj
 0003:000007f0       ?tzdst_program@@3PADA      100827f0     libucrt:timeset.obj
 0003:00000830       ?w_tzstd_program@@3PA_WA   10082830     libucrt:timeset.obj
 0003:000008b0       ?w_tzdst_program@@3PA_WA   100828b0     libucrt:timeset.obj
 0003:00000930       ?tzname_states@@3PAY01PADA 10082930     libucrt:timeset.obj
 0003:00000938       ?w_tzname_states@@3PAY01PA_WA 10082938     libucrt:timeset.obj
 0003:00000940       ?dststart@@3Utransitiondate@?A0x7639d0b4@@A 10082940     libucrt:tzset.obj
 0003:0000094c       ?dstend@@3Utransitiondate@?A0x7639d0b4@@A 1008294c     libucrt:tzset.obj
 0003:00000a10       ?errno_no_memory@@3HA      10082a10     libucrt:errno.obj
 0003:00000a14       ?doserrno_no_memory@@3KA   10082a14     libucrt:errno.obj
 0003:00000a18       ?__acrt_flsindex@@3KA      10082a18     libucrt:per_thread_data.obj
 0003:00000a1c       __ctype_loc_style          10082a1c     libucrt:wsetlocale.obj
 0003:00000c20       ?__DAZ_ENABLED@?1??__set_fpsr_sse2@@9@9 10082c20     libucrt:fpctrl.obj
 0003:00000e48       __mbctypes                 10082e48     libucrt:mbctype.obj
 0003:00000f50       __mbcasemaps               10082f50     libucrt:mbctype.obj
 0003:00001050       ?__rgctypeflag@@3PADA      10083050     libucrt:mbctype.obj
 0003:00001058       ?__rgcode_page_info@@3PAUcode_page_info@@A 10083058     libucrt:mbctype.obj
 0003:000011c0       ?__dcrt_lowio_console_output_handle@@3PAXA 100831c0     libucrt:initcon.obj
 0003:000012e0       ?buff@?1??fmt_tv@@9@9      100832e0     banal.obj
 0003:000013e0       __safemem_currcount        100833e0     bufvec.obj
 0003:000013ec       _EQ_Num                    100833ec     graphiceq.obj
 0003:000013f8       _EQ_Den                    100833f8     graphiceq.obj
 0003:00001409       _playing1                  10083409     keyd.obj
 0003:0000140a       _playing                   1008340a     keyd.obj
 0003:0000140b       _iambic                    1008340b     keyd.obj
 0003:0000140c       _CS_CW                     1008340c     keyd.obj
 0003:00001424       _UPDATE_OK                 10083424     keyd.obj
 0003:0000143c       _cs_cw                     1008343c     keyd.obj
 0003:00001440       _update_ok                 10083440     keyd.obj
 0003:00001444       _bug                       10083444     keyd.obj
 0003:00001445       _cw_ring_reset             10083445     keyd.obj
 0003:00001446       _auto_space_char           10083446     keyd.obj
 0003:00001448       _gain                      10083448     keyd.obj
 0003:0000144c       ?keyerState@?1??klogic@@9@9 1008344c     keyer.obj
 0003:00001450       ?last_element@?1??klogic@@9@9 10083450     keyer.obj
 0003:00001454       ?ditmem@?1??klogic@@9@9    10083454     keyer.obj
 0003:00001455       ?dahmem@?1??klogic@@9@9    10083455     keyer.obj
 0003:00001456       ?squeezeStartedAfterCurrentElementStartedPlaying@?1??klogic@@9@9 10083456     keyer.obj
 0003:00001457       ?squeezeStartedBeforeCurrentElementStartedPlaying@?1??klogic@@9@9 10083457     keyer.obj
 0003:00001458       ?squeezeReleasedBeforeMidpointAndModeBStrict@?1??klogic@@9@9 10083458     keyer.obj
 0003:00001459       ?afterflagdebug@?1??klogic@@9@9 10083459     keyer.obj
 0003:00001460       ?keystate@?1??read_straight_key@@9@9 10083460     keyerio.obj
 0003:00001464       ?debounce_buf_i@?1??read_straight_key@@9@9 10083464     keyerio.obj
 0003:00001468       ?debounce_buf@?1??read_straight_key@@9@9 10083468     keyerio.obj
 0003:000014e0       ?dah_debounce_buf@?1??read_iambic_key@@9@9 100834e0     keyerio.obj
 0003:00001500       ?dit_debounce_buf@?1??read_iambic_key@@9@9 10083500     keyerio.obj
 0003:00001520       ?dah@?1??read_iambic_key@@9@9 10083520     keyerio.obj
 0003:00001524       ?debounce_buf_i@?1??read_iambic_key@@9@9 10083524     keyerio.obj
 0003:00001528       ?dit@?1??read_iambic_key@@9@9 10083528     keyerio.obj
 0003:00001534       _mic_avg                   10083534     sdr.obj
 0003:00001538       _mic_pk                    10083538     sdr.obj
 0003:0000153c       _alc_avg                   1008353c     sdr.obj
 0003:00001540       _alc_pk                    10083540     sdr.obj
 0003:00001544       _lev_avg                   10083544     sdr.obj
 0003:00001548       _lev_pk                    10083548     sdr.obj
 0003:0000154c       _eq_avg                    1008354c     sdr.obj
 0003:00001550       _eq_pk                     10083550     sdr.obj
 0003:00001554       _comp_avg                  10083554     sdr.obj
 0003:00001558       _comp_pk                   10083558     sdr.obj
 0003:0000155c       _cpdr_avg                  1008355c     sdr.obj
 0003:00001560       _cpdr_pk                   10083560     sdr.obj
 0003:00001564       _TABLE_FACTOR              10083564     fastrig1.obj
 0003:00001568       _sinT                      10083568     fastrig1.obj
 0003:0000156c       _cosT                      1008356c     fastrig1.obj
 0003:00001570       ?__proc_attached@@3HA      10083570     LIBCMT:dll_dllmain.obj
 0003:00001578       _GS_ExceptionRecord        10083578     LIBCMT:gs_report.obj
 0003:000015c8       _GS_ContextRecord          100835c8     LIBCMT:gs_report.obj
 0003:000018c0       ?is_initialized_as_dll@@3_NA 100838c0     LIBCMT:utility.obj
 0003:000018c1       ?module_local_atexit_table_initialized@@3_NA 100838c1     LIBCMT:utility.obj
 0003:000018c4       ?module_local_atexit_table@@3U_onexit_table_t@@A 100838c4     LIBCMT:utility.obj
 0003:000018d0       ?module_local_at_quick_exit_table@@3U_onexit_table_t@@A 100838d0     LIBCMT:utility.obj
 0003:00001910       ?heap@@3V_HeapManager@@A   10083910     libvcruntime:undname.obj
 0003:00001924       ?__vcrt_startup_thread_ptd@@3U__vcrt_ptd@@A 10083924     libvcruntime:per_thread_data.obj
 0003:0000194c       ___vcrt_lock_table         1008394c     libvcruntime:locks.obj
 0003:00001964       ___vcrt_locks_initialized  10083964     libvcruntime:locks.obj
 0003:00001968       ?module_handles@@3PAPAUHINSTANCE__@@A 10083968     libvcruntime:winapi_downlevel.obj
 0003:00001974       ?function_pointers@@3PAPAXA 10083974     libvcruntime:winapi_downlevel.obj
 0003:00001998       ?_tzname@@3V?$dual_state_global@PAPAD@__crt_state_management@@A 10083998     libucrt:timeset.obj
 0003:0000199c       ?w_tzname@@3V?$dual_state_global@PAPA_W@__crt_state_management@@A 1008399c     libucrt:timeset.obj
 0003:000019a0       ?last_wide_tz@@3PA_WA      100839a0     libucrt:tzset.obj
 0003:000019a8       ?tz_api_used@@3HA          100839a8     libucrt:tzset.obj
 0003:000019ac       ?tzset_init_state@@3V?$dual_state_global@J@__crt_state_management@@A 100839ac     libucrt:tzset.obj
 0003:000019b0       ?tz_info@@3U_TIME_ZONE_INFORMATION@@A 100839b0     libucrt:tzset.obj
 0003:00001a5c       ?c_termination_complete@@3JA 10083a5c     libucrt:exit.obj
 0003:00001a60       ?thread_local_exit_callback_func@@3P6GXPAXK0@ZA 10083a60     libucrt:exit.obj
 0003:00001a78       ?program_name@?1???$common_configure_argv@D@@YAHW4_crt_argv_mode@@@Z@4PADA 10083a78     libucrt:argv_parsing.obj
 0003:00001b80       ?program_name@?1???$common_configure_argv@_W@@YAHW4_crt_argv_mode@@@Z@4PA_WA 10083b80     libucrt:argv_parsing.obj
 0003:00001db4       __pmatherr_set             10083db4     libucrt:libm_error.obj
 0003:00001db8       ?__acrt_invalid_parameter_handler@@3V?$dual_state_global@P6AXPB_W00II@Z@__crt_state_management@@A 10083db8     libucrt:invalid_parameter.obj
 0003:00001dc0       ?module_handles@@3PAPAUHINSTANCE__@@A 10083dc0     libucrt:winapi_thunks.obj
 0003:00001e10       ?encoded_function_pointers@@3PAPAXA 10083e10     libucrt:winapi_thunks.obj
 0003:00001e98       ?static_enum_proc@?1??enum_system_locales_ex_nolock@@YAHQ6GHPA_WKJ@Z@Z@4P6GH0KJ@ZA 10083e98     libucrt:winapi_thunks.obj
 0003:000020b0       ?__acrt_lock_table@@3PAU_RTL_CRITICAL_SECTION@@A 100840b0     libucrt:locks.obj
 0003:00002200       ?__acrt_locks_initialized@@3IA 10084200     libucrt:locks.obj
 0003:00002204       ?state_cache@?1???$get_cached_win_policy@Ubegin_thread_init_policy_properties@?1??__acrt_get_begin_thread_init_policy@@YA?AW4begin_thread_init_policy@@XZ@@@YA?AW4begin_thread_init_policy@@W4AppPolicyThreadInitializationType@@@Z@4JA 10084204     libucrt:win_policies.obj
 0003:00002208       ?state_cache@?1???$get_cached_win_policy@Udeveloper_information_policy_properties@?1??__acrt_get_developer_information_policy@@YA?AW4developer_information_policy@@XZ@@@YA?AW4developer_information_policy@@W4AppPolicyShowDeveloperDiagnostic@@@Z@4JA 10084208     libucrt:win_policies.obj
 0003:0000220c       ?state_cache@?1???$get_cached_win_policy@Uwindowing_model_policy_properties@?1??__acrt_get_windowing_model_policy@@YA?AW4windowing_model_policy@@XZ@@@YA?AW4windowing_model_policy@@W4AppPolicyWindowingModel@@@Z@4JA 1008420c     libucrt:win_policies.obj
 0003:00002210       ?internal_state@?1??_mbtowc_internal@@9@4U_Mbstatet@@A 10084210     libucrt:mbtowc.obj
 0003:00002218       ?enable_percent_n@@3IA     10084218     libucrt:printf_count_output.obj
 0003:00002224       ?user_matherr@@3V?$dual_state_global@P6AHPAU_exception@@@Z@__crt_state_management@@A 10084224     libucrt:matherr.obj
 0003:00002234       ?fSystemSet@@3HA           10084234     libucrt:mbctype.obj
 0003:00002238       ?initialized@?1??__acrt_initialize_multibyte@@9@4_NA 10084238     libucrt:mbctype.obj
 0003:0000225c       ?__acrt_new_handler@@3V?$dual_state_global@P6AHI@Z@__crt_state_management@@A 1008425c     libucrt:new_handler.obj
 0003:00002260       ?console_ctrl_handler_installed@@3_NA 10084260     libucrt:signal.obj
 0003:00002264       ?ctrlc_action@@3V?$dual_state_global@P6AXH@Z@__crt_state_management@@A 10084264     libucrt:signal.obj
 0003:00002268       ?ctrlbreak_action@@3V?$dual_state_global@P6AXH@Z@__crt_state_management@@A 10084268     libucrt:signal.obj
 0003:0000226c       ?abort_action@@3V?$dual_state_global@P6AXH@Z@__crt_state_management@@A 1008426c     libucrt:signal.obj
 0003:00002270       ?term_action@@3V?$dual_state_global@P6AXH@Z@__crt_state_management@@A 10084270     libucrt:signal.obj
 0003:00002274       ?mbst@?1??mbrlen@@9@4U_Mbstatet@@A 10084274     libucrt:mbrtowc.obj
 0003:0000227c       ?mbst@?1??mbrtowc@@9@4U_Mbstatet@@A 1008427c     libucrt:mbrtowc.obj
 0003:00002284       ?mbst@?1??_mbsrtowcs_helper@@YAIPA_WPAPBDIPAU_Mbstatet@@AAV__crt_cached_ptd_host@@@Z@4U2@A 10084284     libucrt:mbrtowc.obj
 0003:00002290       ?__acrt_global_new_mode@@3V?$dual_state_global@J@__crt_state_management@@A 10084290     libucrt:new_mode.obj
 0003:00002294       ?__acrt_app_type@@3W4_crt_app_type@@A 10084294     libucrt:report_runtime_error.obj
 0003:00002298       ?outmsg@?9??__acrt_report_runtime_error@@9@4PA_WA 10084298     libucrt:report_runtime_error.obj
 0003:000028cc       ?internal_pst@?1??__mbrtoc32_utf8@__crt_mbstring@@YAIPA_UPBDIPAU_Mbstatet@@AAV__crt_cached_ptd_host@@@Z@4U3@A 100848cc     libucrt:mbrtoc32.obj
 0003:000028d4       ___acrt_error_mode         100848d4     libucrt:set_error_mode.obj
 0004:000000a0       $R000000                   100c30a0     DttSP.res
 0004:000003b8       $R000318                   100c33b8     DttSP.res
